MPLINK 4.35, Linker
Linker Map File - Created Sat Jul 27 17:04:44 2019

                                 Section Info
                  Section       Type    Address   Location Size(Bytes)
                ---------  ---------  ---------  ---------  ---------
                   Resetv       code   0x000000    program   0x000006
                   .cinit    romdata   0x000003    program   0x000004
                hllupuser       code   0x000005    program   0x0002ec
                  hllt450       code   0x00017b    program   0x000128
                 hllt4513       code   0x00020f    program   0x0000f2
                   hlog1b       code   0x000288    program   0x00006e
                   hlog1a       code   0x0002bf    program   0x00006e
                  cprntuc       code   0x0002f6    program   0x000062
                 hllt4512       code   0x000327    program   0x00005e
                  hlog1cz       code   0x000356    program   0x00003a
                  hllt459       code   0x000373    program   0x00003a
                  hllt458       code   0x000390    program   0x00003a
                hllkrn444       code   0x0003ad    program   0x00002c
                  hllt457       code   0x0003c3    program   0x000024
                  hllt454       code   0x0003d5    program   0x000024
                  hllt453       code   0x0003e7    program   0x000024
                   hlog1f       code   0x0003f9    program   0x00000e
                hllkrna08       code   0x000400    program   0x000022
                 hllt4515       code   0x000411    program   0x000020
                hllkrna06       code   0x000421    program   0x000020
                 hllt4514       code   0x000431    program   0x00001e
                hllkrna05       code   0x000440    program   0x00001e
                hllkrna04       code   0x00044f    program   0x00001e
                     main       code   0x00045e    program   0x000018
                hllkrna00       code   0x00046a    program   0x000014
                hllkrna07       code   0x000474    program   0x000010
                hllkrna03       code   0x00047c    program   0x00000e
                   hlog1h       code   0x000483    program   0x00000a
                   hlog1d       code   0x000488    program   0x00000a
                hllkrna01       code   0x00048d    program   0x00000a
                hllkrna02       code   0x000492    program   0x000006
                hllkrna11       code   0x000495    program   0x000004
                hllkrna10       code   0x000497    program   0x000004
                hllkrna09       code   0x000499    program   0x000004
    .config_8007_TARGET.O       code   0x008007    program   0x000002
    .config_8008_TARGET.O       code   0x008008    program   0x000002
                   ukrnl2      udata   0x000020       data   0x000050
                   ukrshr      udata   0x000070       data   0x000009
                 mainvars      udata   0x000079       data   0x000001
                   ukrnl3      udata   0x000220       data   0x000014
                   ukernl      udata   0x000234       data   0x000003
                  ansiadt      udata   0x000237       data   0x000003
                  ansiadu      udata   0x00023a       data   0x000001



                              Program Memory Usage 
                               Start         End      
                           ---------   ---------      
                            0x000000    0x00049a      
                            0x008007    0x008008      
            1181 out of 4359 program addresses used, program memory utilization is 27%



                              Symbols - Sorted by Name
                     Name    Address   Location    Storage File                     
                ---------  ---------  ---------  --------- ---------                
          _hllkrna00_0007   0x000471    program     static Z:\home\dell\frost\frostgyroproject\target.asm
          _hllkrna03_0005   0x000481    program     static Z:\home\dell\frost\frostgyroproject\target.asm
          _hllkrna04_0009   0x000458    program     static Z:\home\dell\frost\frostgyroproject\target.asm
          _hllkrna04_000B   0x00045a    program     static Z:\home\dell\frost\frostgyroproject\target.asm
          _hllkrna05_0009   0x000449    program     static Z:\home\dell\frost\frostgyroproject\target.asm
          _hllkrna05_000B   0x00044b    program     static Z:\home\dell\frost\frostgyroproject\target.asm
                      ack   0x000390    program     static Z:\home\dell\frost\frostgyroproject\target.asm
                      add   0x00048d    program     static Z:\home\dell\frost\frostgyroproject\target.asm
                     andu   0x000483    program     static Z:\home\dell\frost\frostgyroproject\target.asm
                 checkack   0x000327    program     static Z:\home\dell\frost\frostgyroproject\target.asm
                 clearbit   0x0002bf    program     static Z:\home\dell\frost\frostgyroproject\target.asm
                clearfill   0x0003c3    program     static Z:\home\dell\frost\frostgyroproject\target.asm
           clearinterrupt   0x0003d5    program     static Z:\home\dell\frost\frostgyroproject\target.asm
         clearinterruptin   0x0003e7    program     static Z:\home\dell\frost\frostgyroproject\target.asm
                    delay   0x00020f    program     static Z:\home\dell\frost\frostgyroproject\target.asm
                  dispose   0x000495    program     static Z:\home\dell\frost\frostgyroproject\target.asm
                     divu   0x000440    program     static Z:\home\dell\frost\frostgyroproject\target.asm
                   dmm445   0x0003bd    program     static Z:\home\dell\frost\frostgyroproject\target.asm
                       eq   0x000474    program     static Z:\home\dell\frost\frostgyroproject\target.asm
                   getbit   0x000356    program     static Z:\home\dell\frost\frostgyroproject\target.asm
                    getch   0x000421    program     static Z:\home\dell\frost\frostgyroproject\target.asm
                    geth2   0x000426    program     static Z:\home\dell\frost\frostgyroproject\target.asm
                    geth3   0x00042b    program     static Z:\home\dell\frost\frostgyroproject\target.asm
                    geth4   0x00042a    program     static Z:\home\dell\frost\frostgyroproject\target.asm
                 hllAAAAA   0x0002c9    program     static Z:\home\dell\frost\frostgyroproject\target.asm
                 hllBAAAA   0x0002cf    program     static Z:\home\dell\frost\frostgyroproject\target.asm
                 hllCAAAA   0x0002d6    program     static Z:\home\dell\frost\frostgyroproject\target.asm
                 hllDAAAA   0x0002dd    program     static Z:\home\dell\frost\frostgyroproject\target.asm
                 hllEAAAA   0x0002e4    program     static Z:\home\dell\frost\frostgyroproject\target.asm
                 hllFAAAA   0x0002eb    program     static Z:\home\dell\frost\frostgyroproject\target.asm
                 hllGAAAA   0x0002f2    program     static Z:\home\dell\frost\frostgyroproject\target.asm
                 hllHAAAA   0x0002f4    program     static Z:\home\dell\frost\frostgyroproject\target.asm
                 hllIAAAA   0x00035f    program     static Z:\home\dell\frost\frostgyroproject\target.asm
                 hllJAAAA   0x000367    program     static Z:\home\dell\frost\frostgyroproject\target.asm
                 hllKAAAA   0x000370    program     static Z:\home\dell\frost\frostgyroproject\target.asm
                 hllLAAAA   0x000292    program     static Z:\home\dell\frost\frostgyroproject\target.asm
                 hllMAAAA   0x000298    program     static Z:\home\dell\frost\frostgyroproject\target.asm
                 hllNAAAA   0x00029f    program     static Z:\home\dell\frost\frostgyroproject\target.asm
                 hllOAAAA   0x0002a6    program     static Z:\home\dell\frost\frostgyroproject\target.asm
                 hllPAAAA   0x0002ad    program     static Z:\home\dell\frost\frostgyroproject\target.asm
                 hllQAAAA   0x0002b4    program     static Z:\home\dell\frost\frostgyroproject\target.asm
                 hllRAAAA   0x0002bb    program     static Z:\home\dell\frost\frostgyroproject\target.asm
                 hllSAAAA   0x0002bd    program     static Z:\home\dell\frost\frostgyroproject\target.asm
                hlllb51J1   0x0003f7    program     static Z:\home\dell\frost\frostgyroproject\target.asm
               hlllb51J10   0x00033d    program     static Z:\home\dell\frost\frostgyroproject\target.asm
               hlllb51J11   0x000351    program     static Z:\home\dell\frost\frostgyroproject\target.asm
                hlllb51J2   0x0003f8    program     static Z:\home\dell\frost\frostgyroproject\target.asm
                hlllb51J5   0x0003d3    program     static Z:\home\dell\frost\frostgyroproject\target.asm
                hlllb51J6   0x0003d4    program     static Z:\home\dell\frost\frostgyroproject\target.asm
                hllprgen2   0x000420    program     static Z:\home\dell\frost\frostgyroproject\target.asm
               hllprogend   0x00017a    program     static Z:\home\dell\frost\frostgyroproject\target.asm
              hlluserprog   0x000005    program     static Z:\home\dell\frost\frostgyroproject\target.asm
                   hloego   0x00045e    program     static Z:\home\dell\frost\frostgyroproject\target.asm
                   iicend   0x000411    program     static Z:\home\dell\frost\frostgyroproject\target.asm
                 iicstart   0x000431    program     static Z:\home\dell\frost\frostgyroproject\target.asm
                     kpop   0x000499    program     static Z:\home\dell\frost\frostgyroproject\target.asm
                    kpush   0x000497    program     static Z:\home\dell\frost\frostgyroproject\target.asm
                   kspox5   0x0003b4    program     static Z:\home\dell\frost\frostgyroproject\target.asm
                     loop   0x00017b    program     static Z:\home\dell\frost\frostgyroproject\target.asm
                     modu   0x00044f    program     static Z:\home\dell\frost\frostgyroproject\target.asm
                      mul   0x00046a    program     static Z:\home\dell\frost\frostgyroproject\target.asm
                     nack   0x000373    program     static Z:\home\dell\frost\frostgyroproject\target.asm
                     nbnb   0x0003fe    program     static Z:\home\dell\frost\frostgyroproject\target.asm
                     ncnc   0x0003ff    program     static Z:\home\dell\frost\frostgyroproject\target.asm
                    negti   0x000492    program     static Z:\home\dell\frost\frostgyroproject\target.asm
                     notb   0x0003f9    program     static Z:\home\dell\frost\frostgyroproject\target.asm
                      oru   0x000488    program     static Z:\home\dell\frost\frostgyroproject\target.asm
                     parm   0x000400    program     static Z:\home\dell\frost\frostgyroproject\target.asm
                  printch   0x00047c    program     static Z:\home\dell\frost\frostgyroproject\target.asm
                   printu   0x0002f6    program     static Z:\home\dell\frost\frostgyroproject\target.asm
                 safepush   0x0003ad    program     static Z:\home\dell\frost\frostgyroproject\target.asm
                   setbit   0x000288    program     static Z:\home\dell\frost\frostgyroproject\target.asm
                  sperr11   0x0003bb    program     static Z:\home\dell\frost\frostgyroproject\target.asm
                 ALT_Save   0x000077       data     static Z:\home\dell\frost\frostgyroproject\target.asm
                 FSR_Save   0x000076       data     static Z:\home\dell\frost\frostgyroproject\target.asm
              STATUS_Save   0x000075       data     static Z:\home\dell\frost\frostgyroproject\target.asm
                   W_Save   0x000074       data     static Z:\home\dell\frost\frostgyroproject\target.asm
                   aart00   0x000237       data     static Z:\home\dell\frost\frostgyroproject\target.asm
                   aart01   0x000238       data     static Z:\home\dell\frost\frostgyroproject\target.asm
                   aart02   0x000239       data     static Z:\home\dell\frost\frostgyroproject\target.asm
                 aartpr00   0x00023a       data     static Z:\home\dell\frost\frostgyroproject\target.asm
                  alt_fsr   0x000073       data     static Z:\home\dell\frost\frostgyroproject\target.asm
                alt_stack   0x000220       data     static Z:\home\dell\frost\frostgyroproject\target.asm
                hllblss00   0x000234       data     static Z:\home\dell\frost\frostgyroproject\target.asm
                hllblss01   0x000235       data     static Z:\home\dell\frost\frostgyroproject\target.asm
                hllblss02   0x000236       data     static Z:\home\dell\frost\frostgyroproject\target.asm
                   in_isr   0x000078       data     static Z:\home\dell\frost\frostgyroproject\target.asm
                    pbase   0x000079       data     static Z:\home\dell\frost\frostgyroproject\target.asm
               softstack0   0x000070       data     static Z:\home\dell\frost\frostgyroproject\target.asm
               softstack1   0x000071       data     static Z:\home\dell\frost\frostgyroproject\target.asm
               softstack2   0x000072       data     static Z:\home\dell\frost\frostgyroproject\target.asm
                    stack   0x000020       data     static Z:\home\dell\frost\frostgyroproject\target.asm



                              Symbols - Sorted by Address
                     Name    Address   Location    Storage File                     
                ---------  ---------  ---------  --------- ---------                
              hlluserprog   0x000005    program     static Z:\home\dell\frost\frostgyroproject\target.asm
               hllprogend   0x00017a    program     static Z:\home\dell\frost\frostgyroproject\target.asm
                     loop   0x00017b    program     static Z:\home\dell\frost\frostgyroproject\target.asm
                    delay   0x00020f    program     static Z:\home\dell\frost\frostgyroproject\target.asm
                   setbit   0x000288    program     static Z:\home\dell\frost\frostgyroproject\target.asm
                 hllLAAAA   0x000292    program     static Z:\home\dell\frost\frostgyroproject\target.asm
                 hllMAAAA   0x000298    program     static Z:\home\dell\frost\frostgyroproject\target.asm
                 hllNAAAA   0x00029f    program     static Z:\home\dell\frost\frostgyroproject\target.asm
                 hllOAAAA   0x0002a6    program     static Z:\home\dell\frost\frostgyroproject\target.asm
                 hllPAAAA   0x0002ad    program     static Z:\home\dell\frost\frostgyroproject\target.asm
                 hllQAAAA   0x0002b4    program     static Z:\home\dell\frost\frostgyroproject\target.asm
                 hllRAAAA   0x0002bb    program     static Z:\home\dell\frost\frostgyroproject\target.asm
                 hllSAAAA   0x0002bd    program     static Z:\home\dell\frost\frostgyroproject\target.asm
                 clearbit   0x0002bf    program     static Z:\home\dell\frost\frostgyroproject\target.asm
                 hllAAAAA   0x0002c9    program     static Z:\home\dell\frost\frostgyroproject\target.asm
                 hllBAAAA   0x0002cf    program     static Z:\home\dell\frost\frostgyroproject\target.asm
                 hllCAAAA   0x0002d6    program     static Z:\home\dell\frost\frostgyroproject\target.asm
                 hllDAAAA   0x0002dd    program     static Z:\home\dell\frost\frostgyroproject\target.asm
                 hllEAAAA   0x0002e4    program     static Z:\home\dell\frost\frostgyroproject\target.asm
                 hllFAAAA   0x0002eb    program     static Z:\home\dell\frost\frostgyroproject\target.asm
                 hllGAAAA   0x0002f2    program     static Z:\home\dell\frost\frostgyroproject\target.asm
                 hllHAAAA   0x0002f4    program     static Z:\home\dell\frost\frostgyroproject\target.asm
                   printu   0x0002f6    program     static Z:\home\dell\frost\frostgyroproject\target.asm
                 checkack   0x000327    program     static Z:\home\dell\frost\frostgyroproject\target.asm
               hlllb51J10   0x00033d    program     static Z:\home\dell\frost\frostgyroproject\target.asm
               hlllb51J11   0x000351    program     static Z:\home\dell\frost\frostgyroproject\target.asm
                   getbit   0x000356    program     static Z:\home\dell\frost\frostgyroproject\target.asm
                 hllIAAAA   0x00035f    program     static Z:\home\dell\frost\frostgyroproject\target.asm
                 hllJAAAA   0x000367    program     static Z:\home\dell\frost\frostgyroproject\target.asm
                 hllKAAAA   0x000370    program     static Z:\home\dell\frost\frostgyroproject\target.asm
                     nack   0x000373    program     static Z:\home\dell\frost\frostgyroproject\target.asm
                      ack   0x000390    program     static Z:\home\dell\frost\frostgyroproject\target.asm
                 safepush   0x0003ad    program     static Z:\home\dell\frost\frostgyroproject\target.asm
                   kspox5   0x0003b4    program     static Z:\home\dell\frost\frostgyroproject\target.asm
                  sperr11   0x0003bb    program     static Z:\home\dell\frost\frostgyroproject\target.asm
                   dmm445   0x0003bd    program     static Z:\home\dell\frost\frostgyroproject\target.asm
                clearfill   0x0003c3    program     static Z:\home\dell\frost\frostgyroproject\target.asm
                hlllb51J5   0x0003d3    program     static Z:\home\dell\frost\frostgyroproject\target.asm
                hlllb51J6   0x0003d4    program     static Z:\home\dell\frost\frostgyroproject\target.asm
           clearinterrupt   0x0003d5    program     static Z:\home\dell\frost\frostgyroproject\target.asm
         clearinterruptin   0x0003e7    program     static Z:\home\dell\frost\frostgyroproject\target.asm
                hlllb51J1   0x0003f7    program     static Z:\home\dell\frost\frostgyroproject\target.asm
                hlllb51J2   0x0003f8    program     static Z:\home\dell\frost\frostgyroproject\target.asm
                     notb   0x0003f9    program     static Z:\home\dell\frost\frostgyroproject\target.asm
                     nbnb   0x0003fe    program     static Z:\home\dell\frost\frostgyroproject\target.asm
                     ncnc   0x0003ff    program     static Z:\home\dell\frost\frostgyroproject\target.asm
                     parm   0x000400    program     static Z:\home\dell\frost\frostgyroproject\target.asm
                   iicend   0x000411    program     static Z:\home\dell\frost\frostgyroproject\target.asm
                hllprgen2   0x000420    program     static Z:\home\dell\frost\frostgyroproject\target.asm
                    getch   0x000421    program     static Z:\home\dell\frost\frostgyroproject\target.asm
                    geth2   0x000426    program     static Z:\home\dell\frost\frostgyroproject\target.asm
                    geth4   0x00042a    program     static Z:\home\dell\frost\frostgyroproject\target.asm
                    geth3   0x00042b    program     static Z:\home\dell\frost\frostgyroproject\target.asm
                 iicstart   0x000431    program     static Z:\home\dell\frost\frostgyroproject\target.asm
                     divu   0x000440    program     static Z:\home\dell\frost\frostgyroproject\target.asm
          _hllkrna05_0009   0x000449    program     static Z:\home\dell\frost\frostgyroproject\target.asm
          _hllkrna05_000B   0x00044b    program     static Z:\home\dell\frost\frostgyroproject\target.asm
                     modu   0x00044f    program     static Z:\home\dell\frost\frostgyroproject\target.asm
          _hllkrna04_0009   0x000458    program     static Z:\home\dell\frost\frostgyroproject\target.asm
          _hllkrna04_000B   0x00045a    program     static Z:\home\dell\frost\frostgyroproject\target.asm
                   hloego   0x00045e    program     static Z:\home\dell\frost\frostgyroproject\target.asm
                      mul   0x00046a    program     static Z:\home\dell\frost\frostgyroproject\target.asm
          _hllkrna00_0007   0x000471    program     static Z:\home\dell\frost\frostgyroproject\target.asm
                       eq   0x000474    program     static Z:\home\dell\frost\frostgyroproject\target.asm
                  printch   0x00047c    program     static Z:\home\dell\frost\frostgyroproject\target.asm
          _hllkrna03_0005   0x000481    program     static Z:\home\dell\frost\frostgyroproject\target.asm
                     andu   0x000483    program     static Z:\home\dell\frost\frostgyroproject\target.asm
                      oru   0x000488    program     static Z:\home\dell\frost\frostgyroproject\target.asm
                      add   0x00048d    program     static Z:\home\dell\frost\frostgyroproject\target.asm
                    negti   0x000492    program     static Z:\home\dell\frost\frostgyroproject\target.asm
                  dispose   0x000495    program     static Z:\home\dell\frost\frostgyroproject\target.asm
                    kpush   0x000497    program     static Z:\home\dell\frost\frostgyroproject\target.asm
                     kpop   0x000499    program     static Z:\home\dell\frost\frostgyroproject\target.asm
                    stack   0x000020       data     static Z:\home\dell\frost\frostgyroproject\target.asm
               softstack0   0x000070       data     static Z:\home\dell\frost\frostgyroproject\target.asm
               softstack1   0x000071       data     static Z:\home\dell\frost\frostgyroproject\target.asm
               softstack2   0x000072       data     static Z:\home\dell\frost\frostgyroproject\target.asm
                  alt_fsr   0x000073       data     static Z:\home\dell\frost\frostgyroproject\target.asm
                   W_Save   0x000074       data     static Z:\home\dell\frost\frostgyroproject\target.asm
              STATUS_Save   0x000075       data     static Z:\home\dell\frost\frostgyroproject\target.asm
                 FSR_Save   0x000076       data     static Z:\home\dell\frost\frostgyroproject\target.asm
                 ALT_Save   0x000077       data     static Z:\home\dell\frost\frostgyroproject\target.asm
                   in_isr   0x000078       data     static Z:\home\dell\frost\frostgyroproject\target.asm
                    pbase   0x000079       data     static Z:\home\dell\frost\frostgyroproject\target.asm
                alt_stack   0x000220       data     static Z:\home\dell\frost\frostgyroproject\target.asm
                hllblss00   0x000234       data     static Z:\home\dell\frost\frostgyroproject\target.asm
                hllblss01   0x000235       data     static Z:\home\dell\frost\frostgyroproject\target.asm
                hllblss02   0x000236       data     static Z:\home\dell\frost\frostgyroproject\target.asm
                   aart00   0x000237       data     static Z:\home\dell\frost\frostgyroproject\target.asm
                   aart01   0x000238       data     static Z:\home\dell\frost\frostgyroproject\target.asm
                   aart02   0x000239       data     static Z:\home\dell\frost\frostgyroproject\target.asm
                 aartpr00   0x00023a       data     static Z:\home\dell\frost\frostgyroproject\target.asm


