MPASM  5.37                        TARGET.ASM   3-21-2012  18:31:13         PAGE  1


LOC  OBJECT CODE     LINE SOURCE TEXT
  VALUE

                      00001 
                      00002 #include "hloe.inc"
                      00001 
                      00002 
                      00003 #define HLLGUARDhllblss
                      00004 
                      00005 
                      00006 #define HLOE_STACK_SIZE .80
                      00007 #define HLOE_STACK2_SIZE .80
                      00008 
                      00009 
                      00010 #include <p16f1827.inc>
                      00001         LIST
                      00002 
                      00003 ;==========================================================================
                      00004 ;  MPASM PIC16F1827 processor include
                      00005 ; 
                      00006 ;  (c) Copyright 1999-2010 Microchip Technology, All rights reserved
                      00007 ;==========================================================================
                      00008 
                      01304         LIST
                      00011 #include <f:\beau\frostcompiler\kernel16f1827.inc>
                      00001 
                      00002 PUSH macro ;Push to the main stack for the programmer's parms and dyn. data;
                      00003  movwi ++INDF0
                      00004  endm
                      00005 
                      00006 ;SAFEPUSH macro ;Push to the main stack for the programmer's parms and dyn. data;
                      00007 ; movwi ++INDF0 ;INTEGRITY CHECK
                      00008  ;movf FSR0L,w
                      00009  ;xorlw stack +HLOE_STACK_SIZE
                      00010  ;btfss STATUS,Z
                      00011  ;goto $+10
                      00012  ;BCF INTCON,GIE  
                      00013  ;bcf STATUS,RP0
                      00014  ;bcf STATUS,RP1  
                      00015  ;movlw '!'
                      00016  ;bcf PIR1,TXIF 
                      00017  ;movwf   TXREG
                      00018  ;btfss   PIR1,TXIF
                      00019  ;goto    $-1 
                      00020  ;goto    $-5
                      00021 ;endm
                      00022 
                      00023  
                      00024 POP macro ;Pop from main stack; "decf" is the de-allocator and thus happens last to 
                      00025  moviw INDF0-- ; preserve the safety of this code under interruptible conditions. 
                      00026  endm
                      00027 
                      00028 ;SAFEPOP macro ;Pop from main stack; "decf" is the de-allocator and thus happens last to 
                      00029 ; moviw INDF0--
                      00030  ;;INTEGRITY CHECK
                      00031  ;movf FSR0L,w
MPASM  5.37                        TARGET.ASM   3-21-2012  18:31:13         PAGE  2


LOC  OBJECT CODE     LINE SOURCE TEXT
  VALUE

                      00032  ;xorlw stack -2
                      00033  ;btfss STATUS,Z
                      00034  ;goto $+10
                      00035  ;BCF INTCON,GIE  
                      00036  ;bcf STATUS,RP0
                      00037  ;bcf STATUS,RP1  
                      00038  ;movlw '?'
                      00039  ;bcf PIR1,TXIF 
                      00040  ;movwf   TXREG
                      00041  ;btfss   PIR1,TXIF
                      00042  ;goto    $-1 
                      00043  ;goto    $-5
                      00044  ;endm
                      00045 
                      00046  
                      00047 DISCARD macro ;Remove items from the main stack and throw them away w/o affecting W
                      00048  decf FSR0L,f 
                      00049  endm
                      00050 
                      00051 COPY macro ;Duplicate stack top
                      00052  movfw INDF0
                      00053  incf FSR0L,f 
                      00054  movwf INDF0 
                      00055  endm
                      00056 
                      00057 #define HLFSR FSR0L
                      00058  
                      00059 #define HLINDF INDF0
                      00060 
                      00061 KPUSH macro
                      00062  movwi ++INDF1
                      00063  endm
                      00064  
                      00065 KPOP macro 
                      00066  moviw INDF1--
                      00067  endm 
                      00068 
                      00069 KDISCARD macro ;Remove items from stack 2 and throw them away w/o affecting W
                      00070  decf FSR1L,f 
                      00071  endm
                      00072 
                      00073 FAR_CALL macro caller_os,func_os ;Call destination residing within a different code page
                      00074  pagesel func_os
                      00075  call func_os
                      00076  pagesel caller_os
                      00077  endm
                      00078 
                      00079 ;Call destination residing within a different code page... does not restore the caller's
                      00080 ; code page after return, which may be OK (e.g. if the next operation is another 'Far'
                      00081 ; function call). 
                      00082 HALF_FAR_CALL macro func_os 
                      00083  pagesel func_os        
                      00084  call func_os
MPASM  5.37                        TARGET.ASM   3-21-2012  18:31:13         PAGE  3


LOC  OBJECT CODE     LINE SOURCE TEXT
  VALUE

                      00085  endm
                      00086  
                      00087  
                      00088 PREEMPT macro
                      00089 #ifdef HLLMULTITASK 
                      00090  incf in_isr,f
                      00091  pagesel ISR
                      00092  movf FSR0L,w           ;Restore "softstacks" if main thread was using 2nd stack
                      00093  movf softstack0,f
                      00094  btfss STATUS,Z   
                      00095  movf softstack0,w  
                      00096  movwf FSR0L          
                      00097 #endif 
                      00098  endm
                      00099 
                      00100 RESUME macro
                      00101 #ifdef HLLMULTITASK 
                      00102  clrf in_isr
                      00103 #endif
                      00104  endm
                      00105  
                      00106 ; Table macro.. this followed by any series of RETLW calls
                      00107 ; transforms said call list into a function that takes an offset
                      00108 ; and returns that entry in the table (takes 1 byte, returns 1
                      00109 ; byte... this goes atop the HLL feature which allows generation 
                      00110 ; of tables. It can also go atop RETLW tables entered into assembly 
                      00111 ; files in a very basic fashion when doing assembly programming. In 
                      00112 ; either case, the overall result can be called exactly as if it were any 
                      00113 ; other HLOE function
                      00114 HLTABLE macro mmnme
                      00115 mmnme:
                      00116  movlw high mmnme#v(2) ; Necess. b/c writes to PCL take 5 bits fr. PCLATH
                      00117  movwf PCLATH ; and PAGESEL doesn't take care of all 5
                      00118  movlw low mmnme#v(2) ; Perform pointer arithmetic
                      00119  addwf INDF0,w 
                      00120  decf FSR0L,f
                      00121  btfsc STATUS,C ; Necess. b/c writes to PCL take 5 bits fr. PCLATH
                      00122  incf PCLATH,f 
                      00123  movwf PCL 
                      00124 mmnme#v(2): 
                      00125  ;retlw K, retlw K, etc. go here
                      00126  endm
                      00127  
                      00003 
8007   C9A4           00004  __config  _CONFIG1,_WDTE_OFF  & _BOREN_OFF & _FOSC_INTOSC & _PWRTE_OFF & _MCLRE_OFF & _CLKOUTEN_OFF & _
                            IESO_OFF & _FCMEN_OFF
8008   FFFF           00005  __config  _CONFIG2,_PLLEN_ON & _STVREN_ON
                      00006 
                      00007 
                      00008 
                      00009 Resetv code 0 
0000   138B           00010  bcf INTCON,GIE
0001   3180           00011  pagesel hloego
MPASM  5.37                        TARGET.ASM   3-21-2012  18:31:13         PAGE  4


LOC  OBJECT CODE     LINE SOURCE TEXT
  VALUE

0002   2???           00012  goto hloego
                      00013  
                      00014 #ifdef HLLMULTITASK
                      00015 vectr code 4     ;Device specific
                      00016 ISR:
                      00017 
                      00018 
                      00019  PREEMPT
                      00020 #endif
                      00021 #ifdef HLLMULTITASK
                      00022 ExitISR:    
                      00023  
                      00024  RESUME
                      00025  
                      00026  retfie
                      00027 #endif
                      00028 
                      00029 mainvars udata_shr      
                      00030 #ifdef HLLMULTITASK
                      00031 pbase res .1                    ; Used for functions w/ numbered pass/return, to clean up parms/push arg
                            s
                      00032 pbaseisr res .1 
                      00033 #else
0000                  00034 pbase res .1
                      00035 #endif
                      00036 
                      00037 main code
0000                  00038 hloego:
                      00039 
0000   01??           00040   clrf in_isr
                      00041  
0001   30??           00042   movlw LOW (stack-1)           ;Set up stack starting position based on literals det. by incremental li
                            nker
0002   0084           00043   movwf FSR0L 
0003   30??           00044   movlw HIGH (stack-1)
0004   0085           00045   movwf FSR0H
                      00046  
                      00047   
0005   30??           00048  movlw LOW (alt_stack-1)
0006   0086           00049  movwf FSR1L
0007   30??           00050  movlw HIGH (alt_stack-1)
0008   0087           00051  movwf FSR1H
                      00052  
                      00053  
0009   01??           00054  clrf softstack0 
                      00055  
                      00056  
000A   3180           00057  pagesel hlluserprog
000B   2???           00058  goto hlluserprog
                      00059 
                      00060 hllupuser CODE
0000                  00061 hlluserprog: 
                      00062  
MPASM  5.37                        TARGET.ASM   3-21-2012  18:31:13         PAGE  5


LOC  OBJECT CODE     LINE SOURCE TEXT
  VALUE

                      00063 
0000   3070           00064  movlw .112
                      00065 
                      00066    
                      00067  FAR_CALL hlluserprog ,safepush
0001   3180               M  pagesel safepush
0002   2???               M  call safepush
0003   3180               M  pagesel hlluserprog
                      00068 
                      00069 
0004   30F7           00070  movlw .247
                      00071 
                      00072    
                      00073  FAR_CALL hlluserprog ,safepush
0005   3180               M  pagesel safepush
0006   2???               M  call safepush
0007   3180               M  pagesel hlluserprog
                      00074 
0008   0021           00075    banksel OSCCON
0009   0819           00076    movfw OSCCON
                      00077    
                      00078    
                      00079 
                      00080    
                      00081  HALF_FAR_CALL safepush
000A   3180               M  pagesel safepush       
000B   2???               M  call safepush
                      00082 
                      00083 
                      00084  
                      00085  HALF_FAR_CALL andu
000C   3180               M  pagesel andu           
000D   2???               M  call andu
                      00086 
                      00087 
                      00088  
                      00089  FAR_CALL hlluserprog,oru
000E   3180               M  pagesel oru
000F   2???               M  call oru
0010   3180               M  pagesel hlluserprog
                      00090 
                      00091  POP
0011   0013               M  moviw INDF0-- ; preserve the safety of this code under interruptible conditions. 
0012   0021           00092  banksel OSCCON
0013   0099           00093  movwf OSCCON
                      00094  
                      00095 
                      00096 
0014   3004           00097  movlw CREN
                      00098 
                      00099 
                      00100    
                      00101  FAR_CALL hlluserprog ,safepush
MPASM  5.37                        TARGET.ASM   3-21-2012  18:31:13         PAGE  6


LOC  OBJECT CODE     LINE SOURCE TEXT
  VALUE

0015   3180               M  pagesel safepush
0016   2???               M  call safepush
0017   3180               M  pagesel hlluserprog
                      00102 
0018   0023           00103    banksel RCSTA
0019   081D           00104    movfw RCSTA
                      00105    
                      00106    
                      00107 
                      00108    
                      00109  HALF_FAR_CALL safepush
001A   3180               M  pagesel safepush       
001B   2???               M  call safepush
                      00110 
                      00111 
                      00112  
                      00113  FAR_CALL hlluserprog,setbit
001C   3180               M  pagesel setbit
001D   2???               M  call setbit
001E   3180               M  pagesel hlluserprog
                      00114 
                      00115  POP
001F   0013               M  moviw INDF0-- ; preserve the safety of this code under interruptible conditions. 
0020   0023           00116  banksel RCSTA
0021   009D           00117  movwf RCSTA
                      00118  
                      00119 
                      00120 
0022   3002           00121  movlw BRGH
                      00122 
                      00123 
                      00124    
                      00125  FAR_CALL hlluserprog ,safepush
0023   3180               M  pagesel safepush
0024   2???               M  call safepush
0025   3180               M  pagesel hlluserprog
                      00126 
0026   0023           00127    banksel TXSTA
0027   081E           00128    movfw TXSTA
                      00129    
                      00130    
                      00131 
                      00132    
                      00133  HALF_FAR_CALL safepush
0028   3180               M  pagesel safepush       
0029   2???               M  call safepush
                      00134 
                      00135 
                      00136  
                      00137  FAR_CALL hlluserprog,setbit
002A   3180               M  pagesel setbit
002B   2???               M  call setbit
002C   3180               M  pagesel hlluserprog
MPASM  5.37                        TARGET.ASM   3-21-2012  18:31:13         PAGE  7


LOC  OBJECT CODE     LINE SOURCE TEXT
  VALUE

                      00138 
                      00139  POP
002D   0013               M  moviw INDF0-- ; preserve the safety of this code under interruptible conditions. 
002E   0023           00140  banksel TXSTA
002F   009E           00141  movwf TXSTA
                      00142  
                      00143 
                      00144 
0030   3003           00145  movlw BRG16
                      00146 
                      00147 
                      00148    
                      00149  FAR_CALL hlluserprog ,safepush
0031   3180               M  pagesel safepush
0032   2???               M  call safepush
0033   3180               M  pagesel hlluserprog
                      00150 
0034   0023           00151    banksel BAUDCON
0035   081F           00152    movfw BAUDCON
                      00153    
                      00154    
                      00155 
                      00156    
                      00157  HALF_FAR_CALL safepush
0036   3180               M  pagesel safepush       
0037   2???               M  call safepush
                      00158 
                      00159 
                      00160  
                      00161  FAR_CALL hlluserprog,setbit
0038   3180               M  pagesel setbit
0039   2???               M  call setbit
003A   3180               M  pagesel hlluserprog
                      00162 
                      00163  POP
003B   0013               M  moviw INDF0-- ; preserve the safety of this code under interruptible conditions. 
003C   0023           00164  banksel BAUDCON
003D   009F           00165  movwf BAUDCON
                      00166  
                      00167 
                      00168 
003E   3044           00169  movlw .68
                      00170 
                      00171    
                      00172  FAR_CALL hlluserprog ,safepush
003F   3180               M  pagesel safepush
0040   2???               M  call safepush
0041   3180               M  pagesel hlluserprog
                      00173 
                      00174  POP
0042   0013               M  moviw INDF0-- ; preserve the safety of this code under interruptible conditions. 
0043   0023           00175  banksel SPBRG
0044   009B           00176  movwf SPBRG
MPASM  5.37                        TARGET.ASM   3-21-2012  18:31:13         PAGE  8


LOC  OBJECT CODE     LINE SOURCE TEXT
  VALUE

                      00177  
                      00178 
                      00179 
0045   3000           00180  movlw .0
                      00181 
                      00182    
                      00183  FAR_CALL hlluserprog ,safepush
0046   3180               M  pagesel safepush
0047   2???               M  call safepush
0048   3180               M  pagesel hlluserprog
                      00184 
                      00185  POP
0049   0013               M  moviw INDF0-- ; preserve the safety of this code under interruptible conditions. 
004A   0023           00186  banksel SPBRGH
004B   009C           00187  movwf SPBRGH
                      00188  
                      00189 
                      00190 
004C   3006           00191  movlw TX9
                      00192 
                      00193 
                      00194    
                      00195  FAR_CALL hlluserprog ,safepush
004D   3180               M  pagesel safepush
004E   2???               M  call safepush
004F   3180               M  pagesel hlluserprog
                      00196 
                      00197 
0050   3005           00198  movlw TXEN
                      00199 
                      00200 
                      00201    
                      00202  FAR_CALL hlluserprog ,safepush
0051   3180               M  pagesel safepush
0052   2???               M  call safepush
0053   3180               M  pagesel hlluserprog
                      00203 
                      00204 
0054   3004           00205  movlw SYNC
                      00206 
                      00207 
                      00208    
                      00209  FAR_CALL hlluserprog ,safepush
0055   3180               M  pagesel safepush
0056   2???               M  call safepush
0057   3180               M  pagesel hlluserprog
                      00210 
0058   0023           00211    banksel TXSTA
0059   081E           00212    movfw TXSTA
                      00213    
                      00214    
                      00215 
                      00216    
MPASM  5.37                        TARGET.ASM   3-21-2012  18:31:13         PAGE  9


LOC  OBJECT CODE     LINE SOURCE TEXT
  VALUE

                      00217  HALF_FAR_CALL safepush
005A   3180               M  pagesel safepush       
005B   2???               M  call safepush
                      00218 
                      00219 
                      00220  
                      00221  HALF_FAR_CALL clearbit
005C   3180               M  pagesel clearbit       
005D   2???               M  call clearbit
                      00222 
                      00223 
                      00224  
                      00225  HALF_FAR_CALL setbit
005E   3180               M  pagesel setbit         
005F   2???               M  call setbit
                      00226 
                      00227 
                      00228  
                      00229  FAR_CALL hlluserprog,clearbit
0060   3180               M  pagesel clearbit
0061   2???               M  call clearbit
0062   3180               M  pagesel hlluserprog
                      00230 
                      00231  POP
0063   0013               M  moviw INDF0-- ; preserve the safety of this code under interruptible conditions. 
0064   0023           00232  banksel TXSTA
0065   009E           00233  movwf TXSTA
                      00234  
                      00235 
                      00236 
0066   3004           00237  movlw SCKP
                      00238 
                      00239 
                      00240    
                      00241  FAR_CALL hlluserprog ,safepush
0067   3180               M  pagesel safepush
0068   2???               M  call safepush
0069   3180               M  pagesel hlluserprog
                      00242 
006A   0023           00243    banksel BAUDCON
006B   081F           00244    movfw BAUDCON
                      00245    
                      00246    
                      00247 
                      00248    
                      00249  HALF_FAR_CALL safepush
006C   3180               M  pagesel safepush       
006D   2???               M  call safepush
                      00250 
                      00251 
                      00252  
                      00253  FAR_CALL hlluserprog,setbit
006E   3180               M  pagesel setbit
MPASM  5.37                        TARGET.ASM   3-21-2012  18:31:13         PAGE 10


LOC  OBJECT CODE     LINE SOURCE TEXT
  VALUE

006F   2???               M  call setbit
0070   3180               M  pagesel hlluserprog
                      00254 
                      00255  POP
0071   0013               M  moviw INDF0-- ; preserve the safety of this code under interruptible conditions. 
0072   0023           00256  banksel BAUDCON
0073   009F           00257  movwf BAUDCON
                      00258  
                      00259 
                      00260 
0074   3007           00261  movlw SPEN
                      00262 
                      00263 
                      00264    
                      00265  FAR_CALL hlluserprog ,safepush
0075   3180               M  pagesel safepush
0076   2???               M  call safepush
0077   3180               M  pagesel hlluserprog
                      00266 
0078   0023           00267    banksel RCSTA
0079   081D           00268    movfw RCSTA
                      00269    
                      00270    
                      00271 
                      00272    
                      00273  HALF_FAR_CALL safepush
007A   3180               M  pagesel safepush       
007B   2???               M  call safepush
                      00274 
                      00275 
                      00276  
                      00277  FAR_CALL hlluserprog,setbit
007C   3180               M  pagesel setbit
007D   2???               M  call setbit
007E   3180               M  pagesel hlluserprog
                      00278 
                      00279  POP
007F   0013               M  moviw INDF0-- ; preserve the safety of this code under interruptible conditions. 
0080   0023           00280  banksel RCSTA
0081   009D           00281  movwf RCSTA
                      00282  
                      00283 
                      00284 
0082   3005           00285  movlw .5
                      00286 
                      00287    
                      00288  FAR_CALL hlluserprog ,safepush
0083   3180               M  pagesel safepush
0084   2???               M  call safepush
0085   3180               M  pagesel hlluserprog
                      00289 
0086   0021           00290    banksel TRISB
0087   080D           00291    movfw TRISB
MPASM  5.37                        TARGET.ASM   3-21-2012  18:31:13         PAGE 11


LOC  OBJECT CODE     LINE SOURCE TEXT
  VALUE

                      00292    
                      00293    
                      00294 
                      00295    
                      00296  HALF_FAR_CALL safepush
0088   3180               M  pagesel safepush       
0089   2???               M  call safepush
                      00297 
                      00298 
                      00299  
                      00300  FAR_CALL hlluserprog,clearbit
008A   3180               M  pagesel clearbit
008B   2???               M  call clearbit
008C   3180               M  pagesel hlluserprog
                      00301 
                      00302  POP
008D   0013               M  moviw INDF0-- ; preserve the safety of this code under interruptible conditions. 
008E   0021           00303  banksel TRISB
008F   008D           00304  movwf TRISB
                      00305  
                      00306 
                      00307 
0090   3005           00308  movlw .5
                      00309 
                      00310    
                      00311  FAR_CALL hlluserprog ,safepush
0091   3180               M  pagesel safepush
0092   2???               M  call safepush
0093   3180               M  pagesel hlluserprog
                      00312 
0094   0023           00313    banksel ANSELB
0095   080D           00314    movfw ANSELB
                      00315    
                      00316    
                      00317 
                      00318    
                      00319  HALF_FAR_CALL safepush
0096   3180               M  pagesel safepush       
0097   2???               M  call safepush
                      00320 
                      00321 
                      00322  
                      00323  FAR_CALL hlluserprog,clearbit
0098   3180               M  pagesel clearbit
0099   2???               M  call clearbit
009A   3180               M  pagesel hlluserprog
                      00324 
                      00325  POP
009B   0013               M  moviw INDF0-- ; preserve the safety of this code under interruptible conditions. 
009C   0023           00326  banksel ANSELB
009D   008D           00327  movwf ANSELB
                      00328  
                      00329 
MPASM  5.37                        TARGET.ASM   3-21-2012  18:31:13         PAGE 12


LOC  OBJECT CODE     LINE SOURCE TEXT
  VALUE

                      00330 
009E   3000           00331  movlw TXCKSEL
                      00332 
                      00333 
                      00334    
                      00335  FAR_CALL hlluserprog ,safepush
009F   3180               M  pagesel safepush
00A0   2???               M  call safepush
00A1   3180               M  pagesel hlluserprog
                      00336 
00A2   0022           00337    banksel APFCON1
00A3   081E           00338    movfw APFCON1
                      00339    
                      00340    
                      00341 
                      00342    
                      00343  HALF_FAR_CALL safepush
00A4   3180               M  pagesel safepush       
00A5   2???               M  call safepush
                      00344 
                      00345 
                      00346  
                      00347  FAR_CALL hlluserprog,setbit
00A6   3180               M  pagesel setbit
00A7   2???               M  call setbit
00A8   3180               M  pagesel hlluserprog
                      00348 
                      00349  POP
00A9   0013               M  moviw INDF0-- ; preserve the safety of this code under interruptible conditions. 
00AA   0022           00350  banksel APFCON1
00AB   009E           00351  movwf APFCON1
                      00352  
                      00353 
                      00354 
                      00355  
                      00356  HALF_FAR_CALL cls
00AC   3180               M  pagesel cls            
00AD   2???               M  call cls
                      00357 
                      00358 
                      00359  
                      00360  FAR_CALL hlluserprog,longf
00AE   3180               M  pagesel longf
00AF   2???               M  call longf
00B0   3180               M  pagesel hlluserprog
                      00361 
                      00362     
00B1                  00363 hllprogend:
00B1   2???           00364  goto hllprogend
                      00365  
                      00366 
                      00367 hllt450 CODE
0000                  00368 longf:
MPASM  5.37                        TARGET.ASM   3-21-2012  18:31:13         PAGE 13


LOC  OBJECT CODE     LINE SOURCE TEXT
  VALUE

                      00369 
                      00370 
0000   3008           00371  movlw .8
                      00372 
                      00373    
                      00374  FAR_CALL longf ,safepush
0001   3180               M  pagesel safepush
0002   2???               M  call safepush
0003   3180               M  pagesel longf
                      00375 
                      00376 
0004   3000           00377  movlw .0
                      00378 
                      00379    
                      00380  HALF_FAR_CALL safepush
0005   3180               M  pagesel safepush       
0006   2???               M  call safepush
                      00381 
                      00382 
                      00383  
                      00384  FAR_CALL longf,samplef
0007   3180               M  pagesel samplef
0008   2???               M  call samplef
0009   3180               M  pagesel longf
                      00385 
                      00386 
000A   3000           00387  movlw .0
                      00388  
                      00389 
                      00390 
                      00391 
                      00392    
                      00393  FAR_CALL longf ,safepush
000B   3180               M  pagesel safepush
000C   2???               M  call safepush
000D   3180               M  pagesel longf
                      00394 
                      00395 
000E   3007           00396  movlw .7
                      00397  
                      00398 
                      00399 
                      00400    
                      00401  HALF_FAR_CALL safepush
000F   3180               M  pagesel safepush       
0010   2???               M  call safepush
                      00402 
                      00403 
                      00404  
                      00405  HALF_FAR_CALL divf
0011   3180               M  pagesel divf           
0012   2???               M  call divf
                      00406 
MPASM  5.37                        TARGET.ASM   3-21-2012  18:31:13         PAGE 14


LOC  OBJECT CODE     LINE SOURCE TEXT
  VALUE

                      00407 
                      00408  
                      00409  FAR_CALL longf,ftou
0013   3180               M  pagesel ftou
0014   2???               M  call ftou
0015   3180               M  pagesel longf
                      00410 
                      00411 
0016   300A           00412  movlw .10
                      00413 
                      00414    
                      00415  FAR_CALL longf ,safepush
0017   3180               M  pagesel safepush
0018   2???               M  call safepush
0019   3180               M  pagesel longf
                      00416 
                      00417 
001A   300A           00418  movlw .10
                      00419 
                      00420    
                      00421  HALF_FAR_CALL safepush
001B   3180               M  pagesel safepush       
001C   2???               M  call safepush
                      00422 
                      00423 
                      00424  
                      00425  FAR_CALL longf,graphx
001D   3180               M  pagesel graphx
001E   2???               M  call graphx
001F   3180               M  pagesel longf
                      00426 
                      00427  ;
0020   2???           00428  goto longf
                      00429 
                      00430  
                      00431 
                      00432 hllt4511 CODE
0000                  00433 samplef:
                      00434 
0000   0804           00435  movf FSR0L,w
                      00436  
                      00437 
                      00438  
                      00439  FAR_CALL samplef ,kpush
0001   3180               M  pagesel kpush
0002   2???               M  call kpush
0003   3180               M  pagesel samplef
                      00440 
                      00441 
0004   3000           00442  movlw .0
                      00443 
                      00444    
                      00445  HALF_FAR_CALL safepush
MPASM  5.37                        TARGET.ASM   3-21-2012  18:31:13         PAGE 15


LOC  OBJECT CODE     LINE SOURCE TEXT
  VALUE

0005   3180               M  pagesel safepush       
0006   2???               M  call safepush
                      00446 
                      00447 
                      00448  
                      00449  FAR_CALL samplef,parm
0007   3180               M  pagesel parm
0008   2???               M  call parm
0009   3180               M  pagesel samplef
                      00450 
                      00451 
000A   3000           00452  movlw .0
                      00453 
                      00454    
                      00455  HALF_FAR_CALL safepush
000B   3180               M  pagesel safepush       
000C   2???               M  call safepush
                      00456 
                      00457 
                      00458  
                      00459  FAR_CALL samplef,eq
000D   3180               M  pagesel eq
000E   2???               M  call eq
000F   3180               M  pagesel samplef
                      00460 
                      00461  POP
0010   0013               M  moviw INDF0-- ; preserve the safety of this code under interruptible conditions. 
0011   3A00           00462  xorlw .0
0012   1903           00463  btfsc STATUS,Z
0013   2???           00464  goto hlllb51J9 
                      00465  
                      00466 
0014   3002           00467  movlw .2
                      00468 
                      00469    
                      00470  FAR_CALL samplef ,safepush
0015   3180               M  pagesel safepush
0016   2???               M  call safepush
0017   3180               M  pagesel samplef
                      00471 
                      00472 
0018   3003           00473  movlw .3
                      00474 
                      00475    
                      00476  FAR_CALL samplef ,safepush
0019   3180               M  pagesel safepush
001A   2???               M  call safepush
001B   3180               M  pagesel samplef
                      00477 
                      00478 
001C   3004           00479  movlw .4
                      00480 
                      00481    
MPASM  5.37                        TARGET.ASM   3-21-2012  18:31:13         PAGE 16


LOC  OBJECT CODE     LINE SOURCE TEXT
  VALUE

                      00482  FAR_CALL samplef ,safepush
001D   3180               M  pagesel safepush
001E   2???               M  call safepush
001F   3180               M  pagesel samplef
                      00483 
0020   0021           00484    banksel ADCON0
0021   081D           00485    movfw ADCON0
                      00486    
                      00487    
                      00488 
                      00489    
                      00490  HALF_FAR_CALL safepush
0022   3180               M  pagesel safepush       
0023   2???               M  call safepush
                      00491 
                      00492 
                      00493  
                      00494  HALF_FAR_CALL clearbit
0024   3180               M  pagesel clearbit       
0025   2???               M  call clearbit
                      00495 
                      00496 
                      00497  
                      00498  HALF_FAR_CALL clearbit
0026   3180               M  pagesel clearbit       
0027   2???               M  call clearbit
                      00499 
                      00500 
                      00501  
                      00502  FAR_CALL samplef,clearbit
0028   3180               M  pagesel clearbit
0029   2???               M  call clearbit
002A   3180               M  pagesel samplef
                      00503 
                      00504  
002B   2???           00505  goto hlllb51J10
                      00506  
                      00507 
002C                  00508 hlllb51J9:
                      00509 
                      00510 
002C   3000           00511  movlw .0
                      00512 
                      00513    
                      00514  HALF_FAR_CALL safepush
002D   3180               M  pagesel safepush       
002E   2???               M  call safepush
                      00515 
                      00516 
                      00517  
                      00518  FAR_CALL samplef,parm
002F   3180               M  pagesel parm
0030   2???               M  call parm
MPASM  5.37                        TARGET.ASM   3-21-2012  18:31:13         PAGE 17


LOC  OBJECT CODE     LINE SOURCE TEXT
  VALUE

0031   3180               M  pagesel samplef
                      00519 
                      00520 
0032   3001           00521  movlw .1
                      00522 
                      00523    
                      00524  HALF_FAR_CALL safepush
0033   3180               M  pagesel safepush       
0034   2???               M  call safepush
                      00525 
                      00526 
                      00527  
                      00528  FAR_CALL samplef,eq
0035   3180               M  pagesel eq
0036   2???               M  call eq
0037   3180               M  pagesel samplef
                      00529 
                      00530  POP
0038   0013               M  moviw INDF0-- ; preserve the safety of this code under interruptible conditions. 
0039   3A00           00531  xorlw .0
003A   1903           00532  btfsc STATUS,Z
003B   2???           00533  goto hlllb51J7 
                      00534  
                      00535 
003C   3002           00536  movlw .2
                      00537 
                      00538    
                      00539  FAR_CALL samplef ,safepush
003D   3180               M  pagesel safepush
003E   2???               M  call safepush
003F   3180               M  pagesel samplef
                      00540 
                      00541 
0040   3003           00542  movlw .3
                      00543 
                      00544    
                      00545  FAR_CALL samplef ,safepush
0041   3180               M  pagesel safepush
0042   2???               M  call safepush
0043   3180               M  pagesel samplef
                      00546 
                      00547 
0044   3004           00548  movlw .4
                      00549 
                      00550    
                      00551  FAR_CALL samplef ,safepush
0045   3180               M  pagesel safepush
0046   2???               M  call safepush
0047   3180               M  pagesel samplef
                      00552 
0048   0021           00553    banksel ADCON0
0049   081D           00554    movfw ADCON0
                      00555    
MPASM  5.37                        TARGET.ASM   3-21-2012  18:31:13         PAGE 18


LOC  OBJECT CODE     LINE SOURCE TEXT
  VALUE

                      00556    
                      00557 
                      00558    
                      00559  HALF_FAR_CALL safepush
004A   3180               M  pagesel safepush       
004B   2???               M  call safepush
                      00560 
                      00561 
                      00562  
                      00563  HALF_FAR_CALL clearbit
004C   3180               M  pagesel clearbit       
004D   2???               M  call clearbit
                      00564 
                      00565 
                      00566  
                      00567  HALF_FAR_CALL clearbit
004E   3180               M  pagesel clearbit       
004F   2???               M  call clearbit
                      00568 
                      00569 
                      00570  
                      00571  FAR_CALL samplef,setbit
0050   3180               M  pagesel setbit
0051   2???               M  call setbit
0052   3180               M  pagesel samplef
                      00572 
                      00573  
0053   2???           00574  goto hlllb51J8
                      00575  
                      00576 
0054                  00577 hlllb51J7:
                      00578 
                      00579 
0054   3000           00580  movlw .0
                      00581 
                      00582    
                      00583  HALF_FAR_CALL safepush
0055   3180               M  pagesel safepush       
0056   2???               M  call safepush
                      00584 
                      00585 
                      00586  
                      00587  FAR_CALL samplef,parm
0057   3180               M  pagesel parm
0058   2???               M  call parm
0059   3180               M  pagesel samplef
                      00588 
                      00589 
005A   3002           00590  movlw .2
                      00591 
                      00592    
                      00593  HALF_FAR_CALL safepush
005B   3180               M  pagesel safepush       
MPASM  5.37                        TARGET.ASM   3-21-2012  18:31:13         PAGE 19


LOC  OBJECT CODE     LINE SOURCE TEXT
  VALUE

005C   2???               M  call safepush
                      00594 
                      00595 
                      00596  
                      00597  FAR_CALL samplef,eq
005D   3180               M  pagesel eq
005E   2???               M  call eq
005F   3180               M  pagesel samplef
                      00598 
                      00599  POP
0060   0013               M  moviw INDF0-- ; preserve the safety of this code under interruptible conditions. 
0061   3A00           00600  xorlw .0
0062   1903           00601  btfsc STATUS,Z
0063   2???           00602  goto hlllb51J5 
                      00603  
                      00604 
0064   3002           00605  movlw .2
                      00606 
                      00607    
                      00608  FAR_CALL samplef ,safepush
0065   3180               M  pagesel safepush
0066   2???               M  call safepush
0067   3180               M  pagesel samplef
                      00609 
                      00610 
0068   3003           00611  movlw .3
                      00612 
                      00613    
                      00614  FAR_CALL samplef ,safepush
0069   3180               M  pagesel safepush
006A   2???               M  call safepush
006B   3180               M  pagesel samplef
                      00615 
                      00616 
006C   3004           00617  movlw .4
                      00618 
                      00619    
                      00620  FAR_CALL samplef ,safepush
006D   3180               M  pagesel safepush
006E   2???               M  call safepush
006F   3180               M  pagesel samplef
                      00621 
0070   0021           00622    banksel ADCON0
0071   081D           00623    movfw ADCON0
                      00624    
                      00625    
                      00626 
                      00627    
                      00628  HALF_FAR_CALL safepush
0072   3180               M  pagesel safepush       
0073   2???               M  call safepush
                      00629 
                      00630 
MPASM  5.37                        TARGET.ASM   3-21-2012  18:31:13         PAGE 20


LOC  OBJECT CODE     LINE SOURCE TEXT
  VALUE

                      00631  
                      00632  HALF_FAR_CALL clearbit
0074   3180               M  pagesel clearbit       
0075   2???               M  call clearbit
                      00633 
                      00634 
                      00635  
                      00636  HALF_FAR_CALL setbit
0076   3180               M  pagesel setbit         
0077   2???               M  call setbit
                      00637 
                      00638 
                      00639  
                      00640  FAR_CALL samplef,clearbit
0078   3180               M  pagesel clearbit
0079   2???               M  call clearbit
007A   3180               M  pagesel samplef
                      00641 
                      00642  
007B   2???           00643  goto hlllb51J6
                      00644  
                      00645 
007C                  00646 hlllb51J5:
                      00647 
                      00648 
007C   3000           00649  movlw .0
                      00650 
                      00651    
                      00652  HALF_FAR_CALL safepush
007D   3180               M  pagesel safepush       
007E   2???               M  call safepush
                      00653 
                      00654 
                      00655  
                      00656  FAR_CALL samplef,parm
007F   3180               M  pagesel parm
0080   2???               M  call parm
0081   3180               M  pagesel samplef
                      00657 
                      00658 
0082   3003           00659  movlw .3
                      00660 
                      00661    
                      00662  HALF_FAR_CALL safepush
0083   3180               M  pagesel safepush       
0084   2???               M  call safepush
                      00663 
                      00664 
                      00665  
                      00666  FAR_CALL samplef,eq
0085   3180               M  pagesel eq
0086   2???               M  call eq
0087   3180               M  pagesel samplef
MPASM  5.37                        TARGET.ASM   3-21-2012  18:31:13         PAGE 21


LOC  OBJECT CODE     LINE SOURCE TEXT
  VALUE

                      00667 
                      00668  POP
0088   0013               M  moviw INDF0-- ; preserve the safety of this code under interruptible conditions. 
0089   3A00           00669  xorlw .0
008A   1903           00670  btfsc STATUS,Z
008B   2???           00671  goto hlllb51J3 
                      00672  
                      00673 
008C   3002           00674  movlw .2
                      00675 
                      00676    
                      00677  FAR_CALL samplef ,safepush
008D   3180               M  pagesel safepush
008E   2???               M  call safepush
008F   3180               M  pagesel samplef
                      00678 
                      00679 
0090   3003           00680  movlw .3
                      00681 
                      00682    
                      00683  FAR_CALL samplef ,safepush
0091   3180               M  pagesel safepush
0092   2???               M  call safepush
0093   3180               M  pagesel samplef
                      00684 
                      00685 
0094   3004           00686  movlw .4
                      00687 
                      00688    
                      00689  FAR_CALL samplef ,safepush
0095   3180               M  pagesel safepush
0096   2???               M  call safepush
0097   3180               M  pagesel samplef
                      00690 
0098   0021           00691    banksel ADCON0
0099   081D           00692    movfw ADCON0
                      00693    
                      00694    
                      00695 
                      00696    
                      00697  HALF_FAR_CALL safepush
009A   3180               M  pagesel safepush       
009B   2???               M  call safepush
                      00698 
                      00699 
                      00700  
                      00701  HALF_FAR_CALL clearbit
009C   3180               M  pagesel clearbit       
009D   2???               M  call clearbit
                      00702 
                      00703 
                      00704  
                      00705  HALF_FAR_CALL setbit
MPASM  5.37                        TARGET.ASM   3-21-2012  18:31:13         PAGE 22


LOC  OBJECT CODE     LINE SOURCE TEXT
  VALUE

009E   3180               M  pagesel setbit         
009F   2???               M  call setbit
                      00706 
                      00707 
                      00708  
                      00709  FAR_CALL samplef,setbit
00A0   3180               M  pagesel setbit
00A1   2???               M  call setbit
00A2   3180               M  pagesel samplef
                      00710 
                      00711  
00A3   2???           00712  goto hlllb51J4
                      00713  
                      00714 
00A4                  00715 hlllb51J3:
                      00716 
                      00717 
00A4   3000           00718  movlw .0
                      00719 
                      00720    
                      00721  HALF_FAR_CALL safepush
00A5   3180               M  pagesel safepush       
00A6   2???               M  call safepush
                      00722 
                      00723 
                      00724  
                      00725  FAR_CALL samplef,parm
00A7   3180               M  pagesel parm
00A8   2???               M  call parm
00A9   3180               M  pagesel samplef
                      00726 
                      00727 
00AA   3004           00728  movlw .4
                      00729 
                      00730    
                      00731  HALF_FAR_CALL safepush
00AB   3180               M  pagesel safepush       
00AC   2???               M  call safepush
                      00732 
                      00733 
                      00734  
                      00735  FAR_CALL samplef,eq
00AD   3180               M  pagesel eq
00AE   2???               M  call eq
00AF   3180               M  pagesel samplef
                      00736 
                      00737  POP
00B0   0013               M  moviw INDF0-- ; preserve the safety of this code under interruptible conditions. 
00B1   3A00           00738  xorlw .0
00B2   1903           00739  btfsc STATUS,Z
00B3   2???           00740  goto hlllb51J1 
                      00741  
                      00742 
MPASM  5.37                        TARGET.ASM   3-21-2012  18:31:13         PAGE 23


LOC  OBJECT CODE     LINE SOURCE TEXT
  VALUE

00B4   3002           00743  movlw .2
                      00744 
                      00745    
                      00746  FAR_CALL samplef ,safepush
00B5   3180               M  pagesel safepush
00B6   2???               M  call safepush
00B7   3180               M  pagesel samplef
                      00747 
                      00748 
00B8   3003           00749  movlw .3
                      00750 
                      00751    
                      00752  FAR_CALL samplef ,safepush
00B9   3180               M  pagesel safepush
00BA   2???               M  call safepush
00BB   3180               M  pagesel samplef
                      00753 
                      00754 
00BC   3004           00755  movlw .4
                      00756 
                      00757    
                      00758  FAR_CALL samplef ,safepush
00BD   3180               M  pagesel safepush
00BE   2???               M  call safepush
00BF   3180               M  pagesel samplef
                      00759 
00C0   0021           00760    banksel ADCON0
00C1   081D           00761    movfw ADCON0
                      00762    
                      00763    
                      00764 
                      00765    
                      00766  HALF_FAR_CALL safepush
00C2   3180               M  pagesel safepush       
00C3   2???               M  call safepush
                      00767 
                      00768 
                      00769  
                      00770  HALF_FAR_CALL setbit
00C4   3180               M  pagesel setbit         
00C5   2???               M  call setbit
                      00771 
                      00772 
                      00773  
                      00774  HALF_FAR_CALL clearbit
00C6   3180               M  pagesel clearbit       
00C7   2???               M  call clearbit
                      00775 
                      00776 
                      00777  
                      00778  FAR_CALL samplef,clearbit
00C8   3180               M  pagesel clearbit
00C9   2???               M  call clearbit
MPASM  5.37                        TARGET.ASM   3-21-2012  18:31:13         PAGE 24


LOC  OBJECT CODE     LINE SOURCE TEXT
  VALUE

00CA   3180               M  pagesel samplef
                      00779 
                      00780  
00CB   2???           00781  goto hlllb51J2
                      00782  
                      00783 
00CC                  00784 hlllb51J1:
                      00785 
                      00786 
00CC                  00787 hlllb51J2:
                      00788 
                      00789 
00CC                  00790 hlllb51J4:
                      00791 
                      00792 
00CC                  00793 hlllb51J6:
                      00794 
                      00795 
00CC                  00796 hlllb51J8:
                      00797 
                      00798 
00CC                  00799 hlllb51J10:
                      00800 
                      00801  POP
00CC   0013               M  moviw INDF0-- ; preserve the safety of this code under interruptible conditions. 
00CD   0021           00802  banksel ADCON0
00CE   009D           00803  movwf ADCON0
                      00804  
                      00805 
                      00806 
00CF   3000           00807  movlw .0
                      00808 
                      00809    
                      00810  FAR_CALL samplef ,safepush
00D0   3180               M  pagesel safepush
00D1   2???               M  call safepush
00D2   3180               M  pagesel samplef
                      00811 
00D3   0021           00812    banksel ADCON0
00D4   081D           00813    movfw ADCON0
                      00814    
                      00815    
                      00816 
                      00817    
                      00818  HALF_FAR_CALL safepush
00D5   3180               M  pagesel safepush       
00D6   2???               M  call safepush
                      00819 
                      00820 
                      00821  
                      00822  FAR_CALL samplef,setbit
00D7   3180               M  pagesel setbit
00D8   2???               M  call setbit
MPASM  5.37                        TARGET.ASM   3-21-2012  18:31:13         PAGE 25


LOC  OBJECT CODE     LINE SOURCE TEXT
  VALUE

00D9   3180               M  pagesel samplef
                      00823 
                      00824  POP
00DA   0013               M  moviw INDF0-- ; preserve the safety of this code under interruptible conditions. 
00DB   0021           00825  banksel ADCON0
00DC   009D           00826  movwf ADCON0
                      00827  
                      00828 
                      00829 
                      00830  
                      00831  FAR_CALL samplef,dispose
00DD   3180               M  pagesel dispose
00DE   2???               M  call dispose
00DF   3180               M  pagesel samplef
                      00832 
                      00833 
00E0   3001           00834  movlw .1
                      00835 
                      00836    
                      00837  FAR_CALL samplef ,safepush
00E1   3180               M  pagesel safepush
00E2   2???               M  call safepush
00E3   3180               M  pagesel samplef
                      00838 
                      00839 
00E4   3002           00840  movlw .2
                      00841 
                      00842    
                      00843  FAR_CALL samplef ,safepush
00E5   3180               M  pagesel safepush
00E6   2???               M  call safepush
00E7   3180               M  pagesel samplef
                      00844 
                      00845 
00E8   3000           00846  movlw .0
                      00847 
                      00848    
                      00849  FAR_CALL samplef ,safepush
00E9   3180               M  pagesel safepush
00EA   2???               M  call safepush
00EB   3180               M  pagesel samplef
                      00850 
                      00851 
00EC   3007           00852  movlw .7
                      00853 
                      00854    
                      00855  FAR_CALL samplef ,safepush
00ED   3180               M  pagesel safepush
00EE   2???               M  call safepush
00EF   3180               M  pagesel samplef
                      00856 
                      00857 
00F0   3006           00858  movlw .6
MPASM  5.37                        TARGET.ASM   3-21-2012  18:31:13         PAGE 26


LOC  OBJECT CODE     LINE SOURCE TEXT
  VALUE

                      00859 
                      00860    
                      00861  FAR_CALL samplef ,safepush
00F1   3180               M  pagesel safepush
00F2   2???               M  call safepush
00F3   3180               M  pagesel samplef
                      00862 
                      00863 
00F4   3005           00864  movlw .5
                      00865 
                      00866    
                      00867  FAR_CALL samplef ,safepush
00F5   3180               M  pagesel safepush
00F6   2???               M  call safepush
00F7   3180               M  pagesel samplef
                      00868 
                      00869 
00F8   3004           00870  movlw .4
                      00871 
                      00872    
                      00873  FAR_CALL samplef ,safepush
00F9   3180               M  pagesel safepush
00FA   2???               M  call safepush
00FB   3180               M  pagesel samplef
                      00874 
00FC   0021           00875    banksel ADCON1
00FD   081E           00876    movfw ADCON1
                      00877    
                      00878    
                      00879 
                      00880    
                      00881  HALF_FAR_CALL safepush
00FE   3180               M  pagesel safepush       
00FF   2???               M  call safepush
                      00882 
                      00883 
                      00884  
                      00885  HALF_FAR_CALL clearbit
0100   3180               M  pagesel clearbit       
0101   2???               M  call clearbit
                      00886 
                      00887 
                      00888  
                      00889  HALF_FAR_CALL setbit
0102   3180               M  pagesel setbit         
0103   2???               M  call setbit
                      00890 
                      00891 
                      00892  
                      00893  HALF_FAR_CALL setbit
0104   3180               M  pagesel setbit         
0105   2???               M  call setbit
                      00894 
MPASM  5.37                        TARGET.ASM   3-21-2012  18:31:13         PAGE 27


LOC  OBJECT CODE     LINE SOURCE TEXT
  VALUE

                      00895 
                      00896  
                      00897  HALF_FAR_CALL setbit
0106   3180               M  pagesel setbit         
0107   2???               M  call setbit
                      00898 
                      00899 
                      00900  
                      00901  HALF_FAR_CALL clearbit
0108   3180               M  pagesel clearbit       
0109   2???               M  call clearbit
                      00902 
                      00903 
                      00904  
                      00905  HALF_FAR_CALL clearbit
010A   3180               M  pagesel clearbit       
010B   2???               M  call clearbit
                      00906 
                      00907 
                      00908  
                      00909  FAR_CALL samplef,clearbit
010C   3180               M  pagesel clearbit
010D   2???               M  call clearbit
010E   3180               M  pagesel samplef
                      00910 
                      00911  POP
010F   0013               M  moviw INDF0-- ; preserve the safety of this code under interruptible conditions. 
0110   0021           00912  banksel ADCON1
0111   009E           00913  movwf ADCON1
                      00914  
                      00915 
                      00916 
0112   3000           00917  movlw .0
                      00918 
                      00919    
                      00920  FAR_CALL samplef ,safepush
0113   3180               M  pagesel safepush
0114   2???               M  call safepush
0115   3180               M  pagesel samplef
                      00921 
0116   0023           00922    banksel ANSELA
0117   080C           00923    movfw ANSELA
                      00924    
                      00925    
                      00926 
                      00927    
                      00928  HALF_FAR_CALL safepush
0118   3180               M  pagesel safepush       
0119   2???               M  call safepush
                      00929 
                      00930 
                      00931  
                      00932  FAR_CALL samplef,setbit
MPASM  5.37                        TARGET.ASM   3-21-2012  18:31:13         PAGE 28


LOC  OBJECT CODE     LINE SOURCE TEXT
  VALUE

011A   3180               M  pagesel setbit
011B   2???               M  call setbit
011C   3180               M  pagesel samplef
                      00933 
                      00934  POP
011D   0013               M  moviw INDF0-- ; preserve the safety of this code under interruptible conditions. 
011E   0023           00935  banksel ANSELA
011F   008C           00936  movwf ANSELA
                      00937  
                      00938 
                      00939 
0120   3001           00940  movlw .1
                      00941 
                      00942    
                      00943  FAR_CALL samplef ,safepush
0121   3180               M  pagesel safepush
0122   2???               M  call safepush
0123   3180               M  pagesel samplef
                      00944 
0124   0021           00945    banksel ADCON0
0125   081D           00946    movfw ADCON0
                      00947    
                      00948    
                      00949 
                      00950    
                      00951  HALF_FAR_CALL safepush
0126   3180               M  pagesel safepush       
0127   2???               M  call safepush
                      00952 
                      00953 
                      00954  
                      00955  FAR_CALL samplef,setbit
0128   3180               M  pagesel setbit
0129   2???               M  call setbit
012A   3180               M  pagesel samplef
                      00956 
                      00957  POP
012B   0013               M  moviw INDF0-- ; preserve the safety of this code under interruptible conditions. 
012C   0021           00958  banksel ADCON0
012D   009D           00959  movwf ADCON0
                      00960  
                      00961 
                      00962 
                      00963  
                      00964  FAR_CALL samplef,ourwait
012E   3180               M  pagesel ourwait
012F   2???               M  call ourwait
0130   3180               M  pagesel samplef
                      00965 
                      00966 
0131   3000           00967  movlw .0
                      00968  
                      00969 
MPASM  5.37                        TARGET.ASM   3-21-2012  18:31:13         PAGE 29


LOC  OBJECT CODE     LINE SOURCE TEXT
  VALUE

                      00970 
                      00971 
                      00972    
                      00973  FAR_CALL samplef ,safepush
0132   3180               M  pagesel safepush
0133   2???               M  call safepush
0134   3180               M  pagesel samplef
                      00974 
                      00975 
0135   3008           00976  movlw .8
                      00977  
                      00978 
                      00979 
                      00980    
                      00981  FAR_CALL samplef ,safepush
0136   3180               M  pagesel safepush
0137   2???               M  call safepush
0138   3180               M  pagesel samplef
                      00982 
                      00983 
0139   3003           00984  movlw .3
                      00985 
                      00986    
                      00987  FAR_CALL samplef ,safepush
013A   3180               M  pagesel safepush
013B   2???               M  call safepush
013C   3180               M  pagesel samplef
                      00988 
013D   0021           00989    banksel ADRESH
013E   081C           00990    movfw ADRESH
                      00991    
                      00992    
                      00993 
                      00994    
                      00995  HALF_FAR_CALL safepush
013F   3180               M  pagesel safepush       
0140   2???               M  call safepush
                      00996 
                      00997 
                      00998  
                      00999  HALF_FAR_CALL andu
0141   3180               M  pagesel andu           
0142   2???               M  call andu
                      01000 
                      01001 
                      01002  
                      01003  HALF_FAR_CALL utof
0143   3180               M  pagesel utof           
0144   2???               M  call utof
                      01004 
                      01005 
                      01006  
                      01007  FAR_CALL samplef,mulf
MPASM  5.37                        TARGET.ASM   3-21-2012  18:31:13         PAGE 30


LOC  OBJECT CODE     LINE SOURCE TEXT
  VALUE

0145   3180               M  pagesel mulf
0146   2???               M  call mulf
0147   3180               M  pagesel samplef
                      01008 
0148   0021           01009    banksel ADRESL
0149   081B           01010    movfw ADRESL
                      01011    
                      01012    
                      01013 
                      01014    
                      01015  HALF_FAR_CALL safepush
014A   3180               M  pagesel safepush       
014B   2???               M  call safepush
                      01016 
                      01017 
                      01018  
                      01019  HALF_FAR_CALL utof
014C   3180               M  pagesel utof           
014D   2???               M  call utof
                      01020 
                      01021 
                      01022  
                      01023  HALF_FAR_CALL addf
014E   3180               M  pagesel addf           
014F   2???               M  call addf
                      01024 
                      01025 
                      01026  
                      01027  FAR_CALL samplef,kpop
0150   3180               M  pagesel kpop
0151   2???               M  call kpop
0152   3180               M  pagesel samplef
                      01028  
                      01029 #ifdef HLLMULTITASK 
                      01030  movf in_isr,f ;In shared RAM, no need for BANKSEL
                      01031  btfsc STATUS,Z
                      01032  goto $+3
                      01033  movwf pbase+1 ;in_isr... the "in isr" clause comes first in all of these macros. This
                      01034  goto $+2      ; is because isr execution is preemptive, and returns only at the 
                      01035  movwf pbase   ; completion of all triggered routines. So, it can starve out the main
                      01036 #else          ; thread, and speeding up isr execution helps this problem. In most of
0153   00??           01037  movwf pbase   ; these macros, in-isr execution takes just 4 instruction cycles.
                      01038 #endif 
                      01039 
                      01040 
                      01041  POP
0154   0013               M  moviw INDF0-- ; preserve the safety of this code under interruptible conditions. 
                      01042  
                      01043  FAR_CALL samplef ,kpush
0155   3180               M  pagesel kpush
0156   2???               M  call kpush
0157   3180               M  pagesel samplef
                      01044  
MPASM  5.37                        TARGET.ASM   3-21-2012  18:31:13         PAGE 31


LOC  OBJECT CODE     LINE SOURCE TEXT
  VALUE

                      01045 
                      01046  POP
0158   0013               M  moviw INDF0-- ; preserve the safety of this code under interruptible conditions. 
                      01047  
                      01048  FAR_CALL samplef ,kpush
0159   3180               M  pagesel kpush
015A   2???               M  call kpush
015B   3180               M  pagesel samplef
                      01049  
                      01050 #ifdef HLLMULTITASK 
                      01051  movf in_isr,f ;In shared RAM, no need for BANKSEL
                      01052  btfsc STATUS,Z
                      01053  goto $+3
                      01054  movf pbase+1,w                 ;in_isr
                      01055  goto $+2
                      01056  movf pbase,w   ;not in_isr
                      01057 #else
015C   08??           01058  movf pbase,w   
                      01059 #endif  
                      01060 
                      01061  ; LOAD POINTER
                      01062 
015D   0084           01063  movwf FSR0L
                      01064  
                      01065 
                      01066  DISCARD
015E   0384               M  decf FSR0L,f 
                      01067 
                      01068 
                      01069  
                      01070  HALF_FAR_CALL kpop
015F   3180               M  pagesel kpop           
0160   2???               M  call kpop
                      01071 
                      01072 
                      01073  
                      01074  HALF_FAR_CALL safepush
0161   3180               M  pagesel safepush       
0162   2???               M  call safepush
                      01075  
                      01076 
                      01077  
                      01078  HALF_FAR_CALL kpop
0163   3180               M  pagesel kpop           
0164   2???               M  call kpop
                      01079 
                      01080 
                      01081  
                      01082  FAR_CALL samplef ,safepush
0165   3180               M  pagesel safepush
0166   2???               M  call safepush
0167   3180               M  pagesel samplef
                      01083  
MPASM  5.37                        TARGET.ASM   3-21-2012  18:31:13         PAGE 32


LOC  OBJECT CODE     LINE SOURCE TEXT
  VALUE

                      01084 
0168   0008           01085  return
                      01086  
                      01087 
                      01088 hllt4514 CODE
0000                  01089 ourwait:
                      01090 
                      01091 
0000   3002           01092  movlw .2
                      01093 
                      01094    
                      01095  FAR_CALL ourwait ,safepush
0001   3180               M  pagesel safepush
0002   2???               M  call safepush
0003   3180               M  pagesel ourwait
                      01096 
0004   0021           01097    banksel ADCON0
0005   081D           01098    movfw ADCON0
                      01099    
                      01100    
                      01101 
                      01102    
                      01103  HALF_FAR_CALL safepush
0006   3180               M  pagesel safepush       
0007   2???               M  call safepush
                      01104 
                      01105 
                      01106  
                      01107  FAR_CALL ourwait,andu
0008   3180               M  pagesel andu
0009   2???               M  call andu
000A   3180               M  pagesel ourwait
                      01108 
                      01109  POP
000B   0013               M  moviw INDF0-- ; preserve the safety of this code under interruptible conditions. 
000C   3A00           01110  xorlw .0
000D   1903           01111  btfsc STATUS,Z
000E   2???           01112  goto hlllb51J12 
                      01113  
                      01114  ;
                      01115 
                      01116 
000F   2???           01117  goto ourwait
0010                  01118 hlllb51J12:
0010                  01119 hlllb51J13:
                      01120 
0010   0008           01121  return 
                      01122 
                      01123  
0011                  01124 hllprgen2:
0011   2???           01125  goto hllprgen2
                      01126  
                      01127 
MPASM  5.37                        TARGET.ASM   3-21-2012  18:31:13         PAGE 33


LOC  OBJECT CODE     LINE SOURCE TEXT
  VALUE

                      01128 
                      01129 
                      01130 
                      01131 
                      01132  
                      01133 
                      01134  
                      01135 hlog1h CODE
0000                  01136 andu: 
                      01137  POP
0000   0013               M  moviw INDF0-- ; preserve the safety of this code under interruptible conditions. 
0001   0500           01138  andwf HLINDF,w
0002   0384           01139  decf HLFSR,f 
                      01140  PUSH
0003   0018               M  movwi ++INDF0
0004   0008           01141  return
                      01142  
                      01143 
                      01144 
                      01145 
                      01146 
                      01147 
                      01148 
                      01149 
                      01150  
                      01151  
                      01152 
                      01153  
                      01154 
                      01155 
                      01156 ansiadt udata
0000                  01157 aart00 RES .1
                      01158 #ifdef HLLMULTITASK
                      01159 #ifdef HLLGUARDaart
                      01160 aart00isr RES .1
                      01161 #endif 
                      01162 #endif 
0001                  01163 aart01 RES .1
                      01164 #ifdef HLLMULTITASK
                      01165 #ifdef HLLGUARDaart
                      01166 aart01isr RES .1
                      01167 #endif 
                      01168 #endif 
0002                  01169 aart02 RES .1
                      01170 #ifdef HLLMULTITASK
                      01171 #ifdef HLLGUARDaart
                      01172 aart02isr RES .1
                      01173 #endif 
                      01174 #endif 
                      01175 
                      01176  
                      01177 ansiara CODE
                      01178 
MPASM  5.37                        TARGET.ASM   3-21-2012  18:31:13         PAGE 34


LOC  OBJECT CODE     LINE SOURCE TEXT
  VALUE

                      01179 ansiadu udata
0000                  01180 aartpr00 RES .1
                      01181 #ifdef HLLMULTITASK
                      01182 #ifdef HLLGUARDaartpr
                      01183 aart00prisr RES .1
                      01184 #endif 
                      01185 #endif 
                      01186 
                      01187 cprntuc CODE
                      01188 
                      01189 
                      01190 
                      01191 #define margpi aartpr00
                      01192 
                      01193 
0000                  01194 printu:  
                      01195 #ifdef HLLMULTITASK
                      01196 #ifdef HLLGUARDaartpr 
                      01197  movf in_isr,f  
                      01198  btfsc STATUS,Z
                      01199  
                      01200 
                      01201 
                      01202  goto printu0
                      01203 
                      01204  POP
                      01205  banksel margpi
                      01206  movwf margpi
                      01207  PUSH
                      01208  movlw .100 
                      01209  PUSH
                      01210  
                      01211  FAR_CALL printu,divu
                      01212  POP
                      01213  addlw '0' 
                      01214  PUSH
                      01215  
                      01216  FAR_CALL printu,printch
                      01217  banksel margpi 
                      01218  movfw margpi
                      01219  PUSH
                      01220  movlw .100 
                      01221  PUSH
                      01222  
                      01223  FAR_CALL printu,modu
                      01224  movlw .10
                      01225  PUSH
                      01226  
                      01227  FAR_CALL printu,divu
                      01228  POP
                      01229  addlw '0' 
                      01230  PUSH
                      01231  
MPASM  5.37                        TARGET.ASM   3-21-2012  18:31:13         PAGE 35


LOC  OBJECT CODE     LINE SOURCE TEXT
  VALUE

                      01232  FAR_CALL printu,printch
                      01233  banksel margpi
                      01234  movfw margpi
                      01235  PUSH
                      01236  movlw .10 
                      01237  PUSH
                      01238  
                      01239  FAR_CALL printu,modu
                      01240  POP
                      01241  addlw '0' 
                      01242  PUSH
                      01243  
                      01244  FAR_CALL printu,printch  
                      01245  return
                      01246 
                      01247 
                      01248 
                      01249 #undefine margpi
                      01250 
                      01251 
                      01252 #define margpi aartpr00+1
                      01253 
                      01254 
                      01255 printu0:
                      01256 #endif
                      01257 #endif
                      01258 
                      01259  POP
0000   0013               M  moviw INDF0-- ; preserve the safety of this code under interruptible conditions. 
0001   002?           01260  banksel margpi
0002   00??           01261  movwf margpi
                      01262  PUSH
0003   0018               M  movwi ++INDF0
0004   3064           01263  movlw .100 
                      01264  PUSH
0005   0018               M  movwi ++INDF0
                      01265  
                      01266  FAR_CALL printu,divu
0006   3180               M  pagesel divu
0007   2???               M  call divu
0008   3180               M  pagesel printu
                      01267  POP
0009   0013               M  moviw INDF0-- ; preserve the safety of this code under interruptible conditions. 
000A   3E30           01268  addlw '0' 
                      01269  PUSH
000B   0018               M  movwi ++INDF0
                      01270  
                      01271  FAR_CALL printu,printch
000C   3180               M  pagesel printch
000D   2???               M  call printch
000E   3180               M  pagesel printu
000F   002?           01272  banksel margpi 
0010   08??           01273  movfw margpi
MPASM  5.37                        TARGET.ASM   3-21-2012  18:31:13         PAGE 36


LOC  OBJECT CODE     LINE SOURCE TEXT
  VALUE

                      01274  PUSH
0011   0018               M  movwi ++INDF0
0012   3064           01275  movlw .100 
                      01276  PUSH
0013   0018               M  movwi ++INDF0
                      01277  
                      01278  FAR_CALL printu,modu
0014   3180               M  pagesel modu
0015   2???               M  call modu
0016   3180               M  pagesel printu
0017   300A           01279  movlw .10
                      01280  PUSH
0018   0018               M  movwi ++INDF0
                      01281  
                      01282  FAR_CALL printu,divu
0019   3180               M  pagesel divu
001A   2???               M  call divu
001B   3180               M  pagesel printu
                      01283  POP
001C   0013               M  moviw INDF0-- ; preserve the safety of this code under interruptible conditions. 
001D   3E30           01284  addlw '0' 
                      01285  PUSH
001E   0018               M  movwi ++INDF0
                      01286  
                      01287  FAR_CALL printu,printch
001F   3180               M  pagesel printch
0020   2???               M  call printch
0021   3180               M  pagesel printu
0022   002?           01288  banksel margpi
0023   08??           01289  movfw margpi
                      01290  PUSH
0024   0018               M  movwi ++INDF0
0025   300A           01291  movlw .10 
                      01292  PUSH
0026   0018               M  movwi ++INDF0
                      01293  
                      01294  FAR_CALL printu,modu
0027   3180               M  pagesel modu
0028   2???               M  call modu
0029   3180               M  pagesel printu
                      01295  POP
002A   0013               M  moviw INDF0-- ; preserve the safety of this code under interruptible conditions. 
002B   3E30           01296  addlw '0' 
                      01297  PUSH
002C   0018               M  movwi ++INDF0
                      01298  
                      01299  FAR_CALL printu,printch  
002D   3180               M  pagesel printch
002E   2???               M  call printch
002F   3180               M  pagesel printu
0030   0008           01300  return
                      01301 
                      01302 
MPASM  5.37                        TARGET.ASM   3-21-2012  18:31:13         PAGE 37


LOC  OBJECT CODE     LINE SOURCE TEXT
  VALUE

                      01303 
                      01304 #undefine margpi
                      01305 
                      01306 
                      01307 
                      01308 
                      01309 
                      01310 
                      01311 
                      01312  
                      01313 
                      01314  
                      01315 
                      01316 
                      01317 
                      01318 
                      01319 
                      01320 
                      01321 
                      01322 
                      01323 
                      01324 
                      01325 
                      01326 
                      01327 
                      01328 
                      01329 
                      01330 
                      01331  
                      01332 ansiard CODE
                      01333 
                      01334 
                      01335 
                      01336 
                      01337 #define charx aart00
                      01338 
                      01339 
                      01340 #define ansiG aart01
                      01341 
                      01342 
0000                  01343 graphx:  
                      01344 #ifdef HLLMULTITASK
                      01345 #ifdef HLLGUARDaart 
                      01346  movf in_isr,f  
                      01347  btfsc STATUS,Z
                      01348  
                      01349 
                      01350 
                      01351  goto graphx0
                      01352 
                      01353 
                      01354 
                      01355  
MPASM  5.37                        TARGET.ASM   3-21-2012  18:31:13         PAGE 38


LOC  OBJECT CODE     LINE SOURCE TEXT
  VALUE

                      01356  movlw 0x1b
                      01357  PUSH
                      01358  
                      01359  FAR_CALL graphx,printch
                      01360  movlw '['
                      01361  PUSH
                      01362  
                      01363  HALF_FAR_CALL printch
                      01364  
                      01365  FAR_CALL graphx,printu
                      01366  movlw ';'
                      01367  PUSH
                      01368  
                      01369  HALF_FAR_CALL printch
                      01370  
                      01371  FAR_CALL graphx,printu
                      01372  movlw 'H'
                      01373  PUSH
                      01374  
                      01375  FAR_CALL graphx,printch
                      01376  
                      01377 
                      01378  POP
                      01379  banksel charx
                      01380  movwf charx
                      01381  
                      01382  xorlw .0 
                      01383  btfsc STATUS,Z
                      01384  goto allgxy
                      01385  banksel ansiG
                      01386  movwf ansiG
                      01387 lblgxy22:
                      01388  movlw 0xDB
                      01389  PUSH
                      01390  
                      01391  FAR_CALL graphx,printch
                      01392  banksel ansiG
                      01393  decfsz ansiG,f
                      01394  goto lblgxy22
                      01395  
                      01396 allgxy: 
                      01397  banksel charx
                      01398  movf charx,w
                      01399  subwf HLINDF,f
                      01400  POP
                      01401  xorlw .0 
                      01402  btfsc STATUS,Z
                      01403  goto retgxy
                      01404  banksel ansiG
                      01405  movwf ansiG
                      01406 lblgxy3:
                      01407  movlw 0xB0 
                      01408  PUSH
MPASM  5.37                        TARGET.ASM   3-21-2012  18:31:13         PAGE 39


LOC  OBJECT CODE     LINE SOURCE TEXT
  VALUE

                      01409  
                      01410  FAR_CALL graphx,printch
                      01411  banksel ansiG
                      01412  decfsz ansiG,f
                      01413  goto lblgxy3
                      01414 retgxy:
                      01415 
                      01416  
                      01417  return
                      01418 
                      01419 
                      01420 
                      01421 #undefine charx
                      01422 
                      01423 
                      01424 #undefine ansiG
                      01425 
                      01426 
                      01427 #define charx aart00+1
                      01428 
                      01429 
                      01430 #define ansiG aart01+1
                      01431 
                      01432 
                      01433 graphx0:
                      01434 #endif
                      01435 #endif
                      01436 
                      01437 
                      01438 
                      01439  
0000   301B           01440  movlw 0x1b
                      01441  PUSH
0001   0018               M  movwi ++INDF0
                      01442  
                      01443  FAR_CALL graphx,printch
0002   3180               M  pagesel printch
0003   2???               M  call printch
0004   3180               M  pagesel graphx
0005   305B           01444  movlw '['
                      01445  PUSH
0006   0018               M  movwi ++INDF0
                      01446  
                      01447  HALF_FAR_CALL printch
0007   3180               M  pagesel printch        
0008   2???               M  call printch
                      01448  
                      01449  FAR_CALL graphx,printu
0009   3180               M  pagesel printu
000A   2???               M  call printu
000B   3180               M  pagesel graphx
000C   303B           01450  movlw ';'
                      01451  PUSH
MPASM  5.37                        TARGET.ASM   3-21-2012  18:31:13         PAGE 40


LOC  OBJECT CODE     LINE SOURCE TEXT
  VALUE

000D   0018               M  movwi ++INDF0
                      01452  
                      01453  HALF_FAR_CALL printch
000E   3180               M  pagesel printch        
000F   2???               M  call printch
                      01454  
                      01455  FAR_CALL graphx,printu
0010   3180               M  pagesel printu
0011   2???               M  call printu
0012   3180               M  pagesel graphx
0013   3048           01456  movlw 'H'
                      01457  PUSH
0014   0018               M  movwi ++INDF0
                      01458  
                      01459  FAR_CALL graphx,printch
0015   3180               M  pagesel printch
0016   2???               M  call printch
0017   3180               M  pagesel graphx
                      01460  
                      01461 
                      01462  POP
0018   0013               M  moviw INDF0-- ; preserve the safety of this code under interruptible conditions. 
0019   002?           01463  banksel charx
001A   00??           01464  movwf charx
                      01465  
001B   3A00           01466  xorlw .0 
001C   1903           01467  btfsc STATUS,Z
001D   2???           01468  goto hllBAAAA
001E   002?           01469  banksel ansiG
001F   00??           01470  movwf ansiG
0020                  01471 hllAAAAA:
0020   30DB           01472  movlw 0xDB
                      01473  PUSH
0021   0018               M  movwi ++INDF0
                      01474  
                      01475  FAR_CALL graphx,printch
0022   3180               M  pagesel printch
0023   2???               M  call printch
0024   3180               M  pagesel graphx
0025   002?           01476  banksel ansiG
0026   0B??           01477  decfsz ansiG,f
0027   2???           01478  goto hllAAAAA
                      01479  
0028                  01480 hllBAAAA: 
0028   002?           01481  banksel charx
0029   08??           01482  movf charx,w
002A   0280           01483  subwf HLINDF,f
                      01484  POP
002B   0013               M  moviw INDF0-- ; preserve the safety of this code under interruptible conditions. 
002C   3A00           01485  xorlw .0 
002D   1903           01486  btfsc STATUS,Z
002E   2???           01487  goto hllDAAAA
002F   002?           01488  banksel ansiG
MPASM  5.37                        TARGET.ASM   3-21-2012  18:31:13         PAGE 41


LOC  OBJECT CODE     LINE SOURCE TEXT
  VALUE

0030   00??           01489  movwf ansiG
0031                  01490 hllCAAAA:
0031   30B0           01491  movlw 0xB0 
                      01492  PUSH
0032   0018               M  movwi ++INDF0
                      01493  
                      01494  FAR_CALL graphx,printch
0033   3180               M  pagesel printch
0034   2???               M  call printch
0035   3180               M  pagesel graphx
0036   002?           01495  banksel ansiG
0037   0B??           01496  decfsz ansiG,f
0038   2???           01497  goto hllCAAAA
0039                  01498 hllDAAAA:
                      01499 
                      01500  
0039   0008           01501  return
                      01502 
                      01503 
                      01504 
                      01505 #undefine charx
                      01506 
                      01507 
                      01508 #undefine ansiG
                      01509 
                      01510 
                      01511 
                      01512 
                      01513 
                      01514 
                      01515  
                      01516 
                      01517 
                      01518 hlog1a CODE
                      01519 
                      01520 
                      01521 
                      01522 #define margp2 hllblss00
                      01523 
                      01524 
0000                  01525 clearbit:  
                      01526 #ifdef HLLMULTITASK
                      01527 #ifdef HLLGUARDhllblss 
                      01528  movf in_isr,f  
                      01529  btfsc STATUS,Z
                      01530  
                      01531 
                      01532 
                      01533  goto clearbit0
                      01534 
                      01535  POP
                      01536  banksel margp2
                      01537  movwf margp2
MPASM  5.37                        TARGET.ASM   3-21-2012  18:31:13         PAGE 42


LOC  OBJECT CODE     LINE SOURCE TEXT
  VALUE

                      01538  POP 
                      01539  xorlw .0
                      01540  btfss STATUS,Z
                      01541  goto tff00h
                      01542  
                      01543  movfw margp2
                      01544  andlw .255-.1
                      01545  goto tff99h
                      01546 tff00h: 
                      01547  
                      01548  xorlw .1
                      01549  btfss STATUS,Z
                      01550  goto tff01h
                      01551  
                      01552  movfw margp2
                      01553  andlw .255-.2
                      01554  goto tff99h
                      01555 tff01h: 
                      01556  xorlw .1
                      01557  xorlw .2
                      01558  btfss STATUS,Z
                      01559  goto tff02h
                      01560  
                      01561  movfw margp2
                      01562  andlw .255-.4
                      01563  goto tff99h
                      01564 tff02h: 
                      01565  xorlw .2
                      01566  xorlw .3
                      01567  btfss STATUS,Z
                      01568  goto tff03h
                      01569  
                      01570  movfw margp2
                      01571  andlw .255-.8
                      01572  goto tff99h
                      01573 tff03h: 
                      01574  xorlw .3
                      01575  xorlw .4
                      01576  btfss STATUS,Z
                      01577  goto tff04h
                      01578  
                      01579  movfw margp2
                      01580  andlw .255-.16
                      01581  goto tff99h
                      01582 tff04h: 
                      01583  xorlw .4
                      01584  xorlw .5
                      01585  btfss STATUS,Z
                      01586  goto tff05h
                      01587  
                      01588  movfw margp2
                      01589  andlw .255-.32
                      01590  goto tff99h
MPASM  5.37                        TARGET.ASM   3-21-2012  18:31:13         PAGE 43


LOC  OBJECT CODE     LINE SOURCE TEXT
  VALUE

                      01591 tff05h: 
                      01592  xorlw .5
                      01593  xorlw .6
                      01594  btfss STATUS,Z
                      01595  goto tff07h
                      01596  
                      01597  movfw margp2
                      01598  andlw .255-.64
                      01599  goto tff99h
                      01600 tff07h: 
                      01601  
                      01602  movfw margp2
                      01603  andlw .255-.128
                      01604 tff99h:  
                      01605  PUSH
                      01606  return
                      01607 
                      01608 
                      01609 
                      01610 
                      01611 #undefine margp2
                      01612 
                      01613 
                      01614 #define margp2 hllblss00+1
                      01615 
                      01616 
                      01617 clearbit0:
                      01618 #endif
                      01619 #endif
                      01620 
                      01621  POP
0000   0013               M  moviw INDF0-- ; preserve the safety of this code under interruptible conditions. 
0001   002?           01622  banksel margp2
0002   00??           01623  movwf margp2
                      01624  POP 
0003   0013               M  moviw INDF0-- ; preserve the safety of this code under interruptible conditions. 
0004   3A00           01625  xorlw .0
0005   1D03           01626  btfss STATUS,Z
0006   2???           01627  goto hllEAAAA
                      01628  
0007   08??           01629  movfw margp2
0008   39FE           01630  andlw .255-.1
0009   2???           01631  goto hllLAAAA
000A                  01632 hllEAAAA: 
                      01633  
000A   3A01           01634  xorlw .1
000B   1D03           01635  btfss STATUS,Z
000C   2???           01636  goto hllFAAAA
                      01637  
000D   08??           01638  movfw margp2
000E   39FD           01639  andlw .255-.2
000F   2???           01640  goto hllLAAAA
0010                  01641 hllFAAAA: 
MPASM  5.37                        TARGET.ASM   3-21-2012  18:31:13         PAGE 44


LOC  OBJECT CODE     LINE SOURCE TEXT
  VALUE

0010   3A01           01642  xorlw .1
0011   3A02           01643  xorlw .2
0012   1D03           01644  btfss STATUS,Z
0013   2???           01645  goto hllGAAAA
                      01646  
0014   08??           01647  movfw margp2
0015   39FB           01648  andlw .255-.4
0016   2???           01649  goto hllLAAAA
0017                  01650 hllGAAAA: 
0017   3A02           01651  xorlw .2
0018   3A03           01652  xorlw .3
0019   1D03           01653  btfss STATUS,Z
001A   2???           01654  goto hllHAAAA
                      01655  
001B   08??           01656  movfw margp2
001C   39F7           01657  andlw .255-.8
001D   2???           01658  goto hllLAAAA
001E                  01659 hllHAAAA: 
001E   3A03           01660  xorlw .3
001F   3A04           01661  xorlw .4
0020   1D03           01662  btfss STATUS,Z
0021   2???           01663  goto hllIAAAA
                      01664  
0022   08??           01665  movfw margp2
0023   39EF           01666  andlw .255-.16
0024   2???           01667  goto hllLAAAA
0025                  01668 hllIAAAA: 
0025   3A04           01669  xorlw .4
0026   3A05           01670  xorlw .5
0027   1D03           01671  btfss STATUS,Z
0028   2???           01672  goto hllJAAAA
                      01673  
0029   08??           01674  movfw margp2
002A   39DF           01675  andlw .255-.32
002B   2???           01676  goto hllLAAAA
002C                  01677 hllJAAAA: 
002C   3A05           01678  xorlw .5
002D   3A06           01679  xorlw .6
002E   1D03           01680  btfss STATUS,Z
002F   2???           01681  goto hllKAAAA
                      01682  
0030   08??           01683  movfw margp2
0031   39BF           01684  andlw .255-.64
0032   2???           01685  goto hllLAAAA
0033                  01686 hllKAAAA: 
                      01687  
0033   08??           01688  movfw margp2
0034   397F           01689  andlw .255-.128
0035                  01690 hllLAAAA:  
                      01691  PUSH
0035   0018               M  movwi ++INDF0
0036   0008           01692  return
                      01693 
MPASM  5.37                        TARGET.ASM   3-21-2012  18:31:13         PAGE 45


LOC  OBJECT CODE     LINE SOURCE TEXT
  VALUE

                      01694 
                      01695 
                      01696 
                      01697 #undefine margp2
                      01698 
                      01699 
                      01700 
                      01701 
                      01702 
                      01703 
                      01704  
                      01705 
                      01706  
                      01707 ansiarb CODE
                      01708  
                      01709  
0000                  01710 cls:
                      01711  
0000   301B           01712  movlw 0x1b
                      01713  PUSH
0001   0018               M  movwi ++INDF0
                      01714  
                      01715  FAR_CALL cls,printch
0002   3180               M  pagesel printch
0003   2???               M  call printch
0004   3180               M  pagesel cls
0005   305B           01716  movlw '['
                      01717  PUSH
0006   0018               M  movwi ++INDF0
                      01718  
                      01719  FAR_CALL cls,printch
0007   3180               M  pagesel printch
0008   2???               M  call printch
0009   3180               M  pagesel cls
000A   3032           01720  movlw '2'
                      01721  PUSH
000B   0018               M  movwi ++INDF0
                      01722  
                      01723  FAR_CALL cls,printch
000C   3180               M  pagesel printch
000D   2???               M  call printch
000E   3180               M  pagesel cls
000F   304B           01724  movlw 'K'
                      01725  PUSH
0010   0018               M  movwi ++INDF0
                      01726  
                      01727  FAR_CALL cls,printch
0011   3180               M  pagesel printch
0012   2???               M  call printch
0013   3180               M  pagesel cls
                      01728 
                      01729 
0014   301B           01730  movlw 0x1b
MPASM  5.37                        TARGET.ASM   3-21-2012  18:31:13         PAGE 46


LOC  OBJECT CODE     LINE SOURCE TEXT
  VALUE

                      01731  PUSH
0015   0018               M  movwi ++INDF0
                      01732  
                      01733  FAR_CALL cls,printch
0016   3180               M  pagesel printch
0017   2???               M  call printch
0018   3180               M  pagesel cls
0019   305B           01734  movlw '['
                      01735  PUSH
001A   0018               M  movwi ++INDF0
                      01736  
                      01737  FAR_CALL cls,printch
001B   3180               M  pagesel printch
001C   2???               M  call printch
001D   3180               M  pagesel cls
001E   304A           01738  movlw 'J'
                      01739  PUSH
001F   0018               M  movwi ++INDF0
                      01740  
                      01741  FAR_CALL cls,printch
0020   3180               M  pagesel printch
0021   2???               M  call printch
0022   3180               M  pagesel cls
                      01742  
                      01743  
                      01744  
0023   301B           01745  movlw 0x1b
                      01746  PUSH
0024   0018               M  movwi ++INDF0
                      01747  
                      01748  FAR_CALL cls,printch
0025   3180               M  pagesel printch
0026   2???               M  call printch
0027   3180               M  pagesel cls
0028   305B           01749  movlw '['
                      01750  PUSH
0029   0018               M  movwi ++INDF0
                      01751  
                      01752  FAR_CALL cls,printch
002A   3180               M  pagesel printch
002B   2???               M  call printch
002C   3180               M  pagesel cls
002D   3031           01753  movlw '1'
                      01754  PUSH
002E   0018               M  movwi ++INDF0
                      01755  
                      01756  FAR_CALL cls,printch
002F   3180               M  pagesel printch
0030   2???               M  call printch
0031   3180               M  pagesel cls
0032   304A           01757  movlw 'J'
                      01758  PUSH
0033   0018               M  movwi ++INDF0
MPASM  5.37                        TARGET.ASM   3-21-2012  18:31:13         PAGE 47


LOC  OBJECT CODE     LINE SOURCE TEXT
  VALUE

                      01759  
                      01760  FAR_CALL cls,printch
0034   3180               M  pagesel printch
0035   2???               M  call printch
0036   3180               M  pagesel cls
                      01761 
                      01762 
0037   301B           01763  movlw 0x1b
                      01764  PUSH
0038   0018               M  movwi ++INDF0
                      01765  
                      01766  FAR_CALL cls,printch
0039   3180               M  pagesel printch
003A   2???               M  call printch
003B   3180               M  pagesel cls
003C   305B           01767  movlw '['
                      01768  PUSH
003D   0018               M  movwi ++INDF0
                      01769  
                      01770  FAR_CALL cls,printch
003E   3180               M  pagesel printch
003F   2???               M  call printch
0040   3180               M  pagesel cls
0041   3032           01771  movlw '2'
                      01772  PUSH
0042   0018               M  movwi ++INDF0
                      01773  
                      01774  FAR_CALL cls,printch
0043   3180               M  pagesel printch
0044   2???               M  call printch
0045   3180               M  pagesel cls
0046   304B           01775  movlw 'K'
                      01776  PUSH
0047   0018               M  movwi ++INDF0
                      01777  
                      01778  FAR_CALL cls,printch
0048   3180               M  pagesel printch
0049   2???               M  call printch
004A   3180               M  pagesel cls
                      01779 
                      01780 
004B   301B           01781  movlw 0x1b
                      01782  PUSH
004C   0018               M  movwi ++INDF0
                      01783  
                      01784  FAR_CALL cls,printch
004D   3180               M  pagesel printch
004E   2???               M  call printch
004F   3180               M  pagesel cls
0050   305B           01785  movlw '['
                      01786  PUSH
0051   0018               M  movwi ++INDF0
                      01787  
MPASM  5.37                        TARGET.ASM   3-21-2012  18:31:13         PAGE 48


LOC  OBJECT CODE     LINE SOURCE TEXT
  VALUE

                      01788  FAR_CALL cls,printch
0052   3180               M  pagesel printch
0053   2???               M  call printch
0054   3180               M  pagesel cls
0055   304A           01789  movlw 'J'
                      01790  PUSH
0056   0018               M  movwi ++INDF0
                      01791  
                      01792  FAR_CALL cls,printch
0057   3180               M  pagesel printch
0058   2???               M  call printch
0059   3180               M  pagesel cls
                      01793  
                      01794  
                      01795  
005A   301B           01796  movlw 0x1b
                      01797  PUSH
005B   0018               M  movwi ++INDF0
                      01798  
                      01799  FAR_CALL cls,printch
005C   3180               M  pagesel printch
005D   2???               M  call printch
005E   3180               M  pagesel cls
005F   305B           01800  movlw '['
                      01801  PUSH
0060   0018               M  movwi ++INDF0
                      01802  
                      01803  FAR_CALL cls,printch
0061   3180               M  pagesel printch
0062   2???               M  call printch
0063   3180               M  pagesel cls
0064   3031           01804  movlw '1'
                      01805  PUSH
0065   0018               M  movwi ++INDF0
                      01806  
                      01807  FAR_CALL cls,printch
0066   3180               M  pagesel printch
0067   2???               M  call printch
0068   3180               M  pagesel cls
0069   304A           01808  movlw 'J'
                      01809  PUSH
006A   0018               M  movwi ++INDF0
                      01810  
                      01811  FAR_CALL cls,printch
006B   3180               M  pagesel printch
006C   2???               M  call printch
006D   3180               M  pagesel cls
                      01812 
006E   0008           01813  return
                      01814 
                      01815  
                      01816 
                      01817 
MPASM  5.37                        TARGET.ASM   3-21-2012  18:31:13         PAGE 49


LOC  OBJECT CODE     LINE SOURCE TEXT
  VALUE

                      01818 
                      01819 
                      01820 
                      01821 
                      01822 
                      01823  
                      01824 
                      01825 
                      01826 
                      01827 ukrnl2 UDATA
0000                  01828 stack res HLOE_STACK_SIZE
                      01829  
                      01830 ukrnl3 UDATA 
0000                  01831 alt_stack res HLOE_STACK2_SIZE
                      01832  
                      01833 
                      01834 
                      01835 ukernl udata 
                      01836 
                      01837 
                      01838 
                      01839 
                      01840 
0000                  01841 hllblss00 res 1           
                      01842 #ifdef HLLMULTITASK
                      01843 #ifdef HLLGUARDhllblss
                      01844 hllblss00isr res 1      
                      01845 #endif
                      01846 #endif
                      01847 
0001                  01848 hllblss01 res 1    
                      01849 #ifdef HLLMULTITASK
                      01850 #ifdef HLLGUARDhllblss
                      01851 hllblss01isr res 1      
                      01852 #endif
                      01853 #endif
                      01854 
0002                  01855 hllblss02 res 1    
                      01856 #ifdef HLLMULTITASK
                      01857 #ifdef HLLGUARDhllblss
                      01858 hllblss02isr res 1      
                      01859 #endif
                      01860 #endif
                      01861   
                      01862 ukrshr udata_shr
                      01863 
                      01864 
0000                  01865 softstack0 res 1                
                      01866 #ifdef HLLMULTITASK
                      01867 softstack0isr res 1
                      01868 #endif
                      01869 
0001                  01870 softstack1 res 1                
MPASM  5.37                        TARGET.ASM   3-21-2012  18:31:13         PAGE 50


LOC  OBJECT CODE     LINE SOURCE TEXT
  VALUE

                      01871 #ifdef HLLMULTITASK
                      01872 softstack1isr res 1
                      01873 #endif
                      01874 
0002                  01875 softstack2 res 1                
                      01876 #ifdef HLLMULTITASK
                      01877 softstack2isr res 1
                      01878 #endif
                      01879 
0003                  01880 alt_fsr res 1
0004                  01881 W_Save res 1 
0005                  01882 STATUS_Save res 1
0006                  01883 FSR_Save res 1
0007                  01884 ALT_Save res 1
0008                  01885 in_isr res 1
                      01886 
                      01887 hllkrna00 CODE
                      01888 
                      01889  
                      01890 
                      01891 
                      01892 #define mterm hllblss00
                      01893 
                      01894 
0000                  01895 mul:  
                      01896 #ifdef HLLMULTITASK
                      01897 #ifdef HLLGUARDhllblss 
                      01898  movf in_isr,f  
                      01899  btfsc STATUS,Z
                      01900  
                      01901 
                      01902 
                      01903  goto mul0
                      01904 
                      01905  POP
                      01906  banksel mterm 
                      01907  movwf mterm
                      01908  clrw 
                      01909  addwf HLINDF,w 
                      01910  decf mterm,f 
                      01911  btfss STATUS,Z 
                      01912  goto $-3
                      01913  movwf HLINDF
                      01914  return
                      01915 
                      01916 
                      01917 
                      01918 #undefine mterm
                      01919 
                      01920 
                      01921 #define mterm hllblss00+1
                      01922 
                      01923 
MPASM  5.37                        TARGET.ASM   3-21-2012  18:31:13         PAGE 51


LOC  OBJECT CODE     LINE SOURCE TEXT
  VALUE

                      01924 mul0:
                      01925 #endif
                      01926 #endif
                      01927 
                      01928  POP
0000   0013               M  moviw INDF0-- ; preserve the safety of this code under interruptible conditions. 
0001   002?           01929  banksel mterm 
0002   00??           01930  movwf mterm
0003   0103           01931  clrw 
0004   0700           01932  addwf HLINDF,w 
0005   03??           01933  decf mterm,f 
0006   1D03           01934  btfss STATUS,Z 
0007   2???           01935  goto $-3
0008   0080           01936  movwf HLINDF
0009   0008           01937  return
                      01938 
                      01939 
                      01940 
                      01941 #undefine mterm
                      01942 hllkrna01 CODE
                      01943 
0000                  01944 add: 
                      01945  POP
0000   0013               M  moviw INDF0-- ; preserve the safety of this code under interruptible conditions. 
0001   0700           01946  addwf HLINDF,w
0002   0384           01947  decf HLFSR,f 
                      01948  PUSH
0003   0018               M  movwi ++INDF0
0004   0008           01949  return
                      01950  
                      01951 hllkrna02 CODE 
                      01952 
0000                  01953 negti:  
0000   0980           01954  comf HLINDF,f
0001   0A80           01955  incf HLINDF,f
0002   0008           01956  return
                      01957  
                      01958 hllkrna03 CODE 
                      01959  
0000                  01960 printch:
                      01961  POP
0000   0013               M  moviw INDF0-- ; preserve the safety of this code under interruptible conditions. 
                      01962 #ifdef HLLMULTITASK 
                      01963  
                      01964  banksel PIR1
                      01965  btfss PIR1,TXIF  
                      01966  goto $-1 
                      01967 #endif 
                      01968  
0001   0023           01969  banksel TXREG
0002   009A           01970  movwf TXREG  
                      01971  
0003   0020           01972  banksel PIR1
MPASM  5.37                        TARGET.ASM   3-21-2012  18:31:13         PAGE 52


LOC  OBJECT CODE     LINE SOURCE TEXT
  VALUE

0004   1E11           01973  btfss PIR1,TXIF  
0005   2???           01974  goto $-1  
0006   0008           01975  return  
                      01976  
                      01977 
                      01978 hllkrna04 CODE
                      01979  
                      01980 
                      01981 
                      01982 #define mterm hllblss00
                      01983 
                      01984 
                      01985 #define mdiv hllblss01
                      01986 
                      01987 
                      01988 #define mquot hllblss02
                      01989 
                      01990 
0000                  01991 modu:  
                      01992 #ifdef HLLMULTITASK
                      01993 #ifdef HLLGUARDhllblss 
                      01994  movf in_isr,f  
                      01995  btfsc STATUS,Z
                      01996  
                      01997 
                      01998 
                      01999  goto modu0
                      02000 
                      02001  banksel mquot 
                      02002  clrf mquot
                      02003  POP
                      02004  movwf mdiv
                      02005  POP
                      02006  movwf mterm
                      02007  movfw mdiv
                      02008  subwf mterm,f
                      02009  btfss STATUS,C 
                      02010  goto $+3
                      02011  incf mquot,f 
                      02012  goto $-4
                      02013  addwf mterm,w
                      02014  PUSH
                      02015  return 
                      02016 
                      02017 
                      02018 
                      02019 #undefine mterm
                      02020 
                      02021 
                      02022 #undefine mdiv
                      02023 
                      02024 
                      02025 #undefine mquot
MPASM  5.37                        TARGET.ASM   3-21-2012  18:31:13         PAGE 53


LOC  OBJECT CODE     LINE SOURCE TEXT
  VALUE

                      02026 
                      02027 
                      02028 #define mterm hllblss00+1
                      02029 
                      02030 
                      02031 #define mdiv hllblss01+1
                      02032 
                      02033 
                      02034 #define mquot hllblss02+1
                      02035 
                      02036 
                      02037 modu0:
                      02038 #endif
                      02039 #endif
                      02040 
0000   002?           02041  banksel mquot 
0001   01??           02042  clrf mquot
                      02043  POP
0002   0013               M  moviw INDF0-- ; preserve the safety of this code under interruptible conditions. 
0003   00??           02044  movwf mdiv
                      02045  POP
0004   0013               M  moviw INDF0-- ; preserve the safety of this code under interruptible conditions. 
0005   00??           02046  movwf mterm
0006   08??           02047  movfw mdiv
0007   02??           02048  subwf mterm,f
0008   1C03           02049  btfss STATUS,C 
0009   2???           02050  goto $+3
000A   0A??           02051  incf mquot,f 
000B   2???           02052  goto $-4
000C   07??           02053  addwf mterm,w
                      02054  PUSH
000D   0018               M  movwi ++INDF0
000E   0008           02055  return 
                      02056 
                      02057 
                      02058 
                      02059 #undefine mterm
                      02060 
                      02061 
                      02062 #undefine mdiv
                      02063 
                      02064 
                      02065 #undefine mquot
                      02066 hllkrna05 CODE
                      02067 
                      02068 
                      02069 
                      02070 #define mterm hllblss00
                      02071 
                      02072 
                      02073 #define mdiv hllblss01
                      02074 
                      02075 
MPASM  5.37                        TARGET.ASM   3-21-2012  18:31:13         PAGE 54


LOC  OBJECT CODE     LINE SOURCE TEXT
  VALUE

                      02076 #define mquot hllblss02
                      02077 
                      02078 
0000                  02079 divu:  
                      02080 #ifdef HLLMULTITASK
                      02081 #ifdef HLLGUARDhllblss 
                      02082  movf in_isr,f  
                      02083  btfsc STATUS,Z
                      02084  
                      02085 
                      02086 
                      02087  goto divu0
                      02088 
                      02089  banksel mquot 
                      02090  clrf mquot
                      02091  POP
                      02092  movwf mdiv
                      02093  POP
                      02094  movwf mterm
                      02095  movfw mdiv
                      02096  subwf mterm,f
                      02097  btfss STATUS,C 
                      02098  goto $+3
                      02099  incf mquot,f 
                      02100  goto $-4
                      02101  movfw mquot
                      02102  PUSH
                      02103  return 
                      02104 
                      02105 
                      02106 
                      02107 #undefine mterm
                      02108 
                      02109 
                      02110 #undefine mdiv
                      02111 
                      02112 
                      02113 #undefine mquot
                      02114 
                      02115 
                      02116 #define mterm hllblss00+1
                      02117 
                      02118 
                      02119 #define mdiv hllblss01+1
                      02120 
                      02121 
                      02122 #define mquot hllblss02+1
                      02123 
                      02124 
                      02125 divu0:
                      02126 #endif
                      02127 #endif
                      02128 
MPASM  5.37                        TARGET.ASM   3-21-2012  18:31:13         PAGE 55


LOC  OBJECT CODE     LINE SOURCE TEXT
  VALUE

0000   002?           02129  banksel mquot 
0001   01??           02130  clrf mquot
                      02131  POP
0002   0013               M  moviw INDF0-- ; preserve the safety of this code under interruptible conditions. 
0003   00??           02132  movwf mdiv
                      02133  POP
0004   0013               M  moviw INDF0-- ; preserve the safety of this code under interruptible conditions. 
0005   00??           02134  movwf mterm
0006   08??           02135  movfw mdiv
0007   02??           02136  subwf mterm,f
0008   1C03           02137  btfss STATUS,C 
0009   2???           02138  goto $+3
000A   0A??           02139  incf mquot,f 
000B   2???           02140  goto $-4
000C   08??           02141  movfw mquot
                      02142  PUSH
000D   0018               M  movwi ++INDF0
000E   0008           02143  return 
                      02144 
                      02145 
                      02146 
                      02147 #undefine mterm
                      02148 
                      02149 
                      02150 #undefine mdiv
                      02151 
                      02152 
                      02153 #undefine mquot
                      02154 hllkrna06 CODE
                      02155 
                      02156  
                      02157  
                      02158  
0000                  02159 getch:
0000   0020           02160  banksel PIR1
0001                  02161 geth2: 
0001   1E91           02162  btfss PIR1,RCIF
0002   2???           02163  goto geth2
0003   0023           02164  banksel RCREG
0004   0819           02165  movf RCREG,w
                      02166  PUSH 
0005   0018               M  movwi ++INDF0
0006   0008           02167  return
                      02168  
                      02169 hllkrna07 CODE 
                      02170  
0000                  02171 eq: 
                      02172  POP 
0000   0013               M  moviw INDF0-- ; preserve the safety of this code under interruptible conditions. 
0001   0600           02173  xorwf HLINDF,w
0002   3001           02174  movlw .1 
0003   1D03           02175  btfss STATUS,Z
0004   3000           02176  movlw .0 
MPASM  5.37                        TARGET.ASM   3-21-2012  18:31:13         PAGE 56


LOC  OBJECT CODE     LINE SOURCE TEXT
  VALUE

0005   0384           02177  decf HLFSR,f 
                      02178  PUSH 
0006   0018               M  movwi ++INDF0
0007   0008           02179  return
                      02180  
                      02181  
                      02182  
                      02183 
                      02184 #define sstack0 softstack0 
                      02185 #define sstack1 softstack1 
                      02186 #define sstack2 softstack2 
                      02187 
                      02188 hllparmcore macro 
                      02189  movwf sstack2
                      02190  movfw HLFSR 
                      02191            
                      02192                    
                      02193  movwf sstack0
                      02194  movfw HLINDF
                      02195  
                      02196  subwf sstack2,w
                      02197  movwf HLFSR 
                      02198  movfw HLINDF 
                      02199  
                      02200  movwf sstack1
                      02201  
                      02202  movfw sstack0
                      02203  movwf HLFSR 
                      02204  clrf sstack0
                      02205  movfw sstack1 
                      02206  movwf HLINDF
                      02207  
                      02208  movfw sstack2
                      02209  pagesel kpush
                      02210  goto kpush 
                      02211  endm
                      02212 
                      02213  
                      02214 hllkrna08 CODE  
0000                  02215 parm:
                      02216  KPOP 
0000   0017               M  moviw INDF1--
                      02217  
                      02218 #ifdef HLLMULTITASK 
                      02219  movf in_isr,f 
                      02220  btfss STATUS,Z
                      02221  goto parm4
                      02222  hllparmcore
                      02223 #undefine sstack0 
                      02224 #undefine sstack1
                      02225 #undefine sstack2 
                      02226 #define sstack0 softstack0+1
                      02227 #define sstack1 softstack1+1
MPASM  5.37                        TARGET.ASM   3-21-2012  18:31:13         PAGE 57


LOC  OBJECT CODE     LINE SOURCE TEXT
  VALUE

                      02228 #define sstack2 softstack2+1
                      02229 parm4:
                      02230 #endif 
                      02231  hllparmcore
0001   00??               M  movwf sstack2
0002   0804               M  movfw HLFSR 
                          M            
                          M                    
0003   00??               M  movwf sstack0
0004   0800               M  movfw HLINDF
                          M  
0005   02??               M  subwf sstack2,w
0006   0084               M  movwf HLFSR 
0007   0800               M  movfw HLINDF 
                          M  
0008   00??               M  movwf sstack1
                          M  
0009   08??               M  movfw sstack0
000A   0084               M  movwf HLFSR 
000B   01??               M  clrf sstack0
000C   08??               M  movfw sstack1 
000D   0080               M  movwf HLINDF
                          M  
000E   08??               M  movfw sstack2
000F   3180               M  pagesel kpush
0010   2???               M  goto kpush 
                      02232 #undefine sstack0 
                      02233 #undefine sstack1
                      02234 #undefine sstack2 
                      02235  
                      02236 hllkrna09 CODE  
0000                  02237 kpop: 
                      02238  KPOP
0000   0017               M  moviw INDF1--
0001   0008           02239  return 
                      02240  
                      02241 hllkrna10 CODE   
0000                  02242 kpush: 
                      02243  KPUSH
0000   001C               M  movwi ++INDF1
0001   0008           02244  return
                      02245 
                      02246 hllkrna11 CODE   
0000                  02247 dispose:
                      02248  DISCARD
0000   0384               M  decf FSR0L,f 
0001   0008           02249  return 
                      02250  
                      02251  
                      02252 
                      02253 
                      02254 
                      02255 
MPASM  5.37                        TARGET.ASM   3-21-2012  18:31:13         PAGE 58


LOC  OBJECT CODE     LINE SOURCE TEXT
  VALUE

                      02256 
                      02257 
                      02258  
                      02259  
                      02260 
                      02261  
                      02262 hlog1d CODE
                      02263 
0000                  02264 oru: 
                      02265  POP
0000   0013               M  moviw INDF0-- ; preserve the safety of this code under interruptible conditions. 
0001   0400           02266  iorwf HLINDF,w
0002   0384           02267  decf HLFSR,f 
                      02268  PUSH
0003   0018               M  movwi ++INDF0
0004   0008           02269  return
                      02270 
                      02271  
                      02272 
                      02273 
                      02274 
                      02275 
                      02276 
                      02277 
                      02278 
                      02279 
                      02280 hllkrn444 CODE    
0000                  02281 safepush: 
                      02282  PUSH
0000   0018               M  movwi ++INDF0
                      02283  
                      02284  
                      02285  
0001   0804           02286  movf HLFSR,w
0002   3C??           02287  sublw stack  
0003   1903           02288  btfsc STATUS,Z
0004   2???           02289  goto kspox5 
0005   1803           02290  btfsc STATUS,C 
0006   2???           02291  goto sperr11 
0007                  02292 kspox5:
                      02293   
                      02294 
0007   0804           02295  movf HLFSR,w
0008   3E01           02296  addlw .1
0009   3C??           02297  sublw (stack+HLOE_STACK_SIZE)  
000A   1C03           02298  btfss STATUS,C
000B   2???           02299  goto sperr11
000C   0800           02300  movf HLINDF,w
000D   0008           02301  return
000E                  02302 sperr11:
000E   138B           02303  BCF INTCON,GIE 
                      02304  DISCARD 
000F   0384               M  decf FSR0L,f 
MPASM  5.37                        TARGET.ASM   3-21-2012  18:31:13         PAGE 59


LOC  OBJECT CODE     LINE SOURCE TEXT
  VALUE

0010                  02305 dmm445:
0010   3021           02306  movlw '!' 
                      02307  PUSH
0011   0018               M  movwi ++INDF0
                      02308  
                      02309  FAR_CALL safepush,printch
0012   3180               M  pagesel printch
0013   2???               M  call printch
0014   3180               M  pagesel safepush
0015   2???           02310  goto dmm445
                      02311  
                      02312  
                      02313 
                      02314 
                      02315 
                      02316 
                      02317 
                      02318  
                      02319  
                      02320 
                      02321  
                      02322 hlog1b CODE
                      02323 
                      02324 
                      02325 #define margp2 hllblss00
                      02326 
                      02327 
0000                  02328 setbit:  
                      02329 #ifdef HLLMULTITASK
                      02330 #ifdef HLLGUARDhllblss 
                      02331  movf in_isr,f  
                      02332  btfsc STATUS,Z
                      02333  
                      02334 
                      02335 
                      02336  goto setbit0
                      02337 
                      02338  POP
                      02339  banksel margp2
                      02340  movwf  margp2
                      02341  POP
                      02342  xorlw .0
                      02343  btfss STATUS,Z
                      02344  goto tcf00h
                      02345  
                      02346  movfw  margp2
                      02347  iorlw .1
                      02348  goto tcf99h
                      02349 tcf00h: 
                      02350  
                      02351  xorlw .1
                      02352  btfss STATUS,Z
                      02353  goto tcf01h
MPASM  5.37                        TARGET.ASM   3-21-2012  18:31:13         PAGE 60


LOC  OBJECT CODE     LINE SOURCE TEXT
  VALUE

                      02354  
                      02355  movfw  margp2
                      02356  iorlw .2
                      02357  goto tcf99h
                      02358 tcf01h: 
                      02359  xorlw .1
                      02360  xorlw .2
                      02361  btfss STATUS,Z
                      02362  goto tcf02h
                      02363  
                      02364  movfw margp2
                      02365  iorlw .4
                      02366  goto tcf99h
                      02367 tcf02h: 
                      02368  xorlw .2
                      02369  xorlw .3
                      02370  btfss STATUS,Z
                      02371  goto tcf03h
                      02372  
                      02373  movfw margp2
                      02374  iorlw .8
                      02375  goto tcf99h
                      02376 tcf03h: 
                      02377  xorlw .3
                      02378  xorlw .4
                      02379  btfss STATUS,Z
                      02380  goto tcf04h
                      02381  
                      02382  movfw margp2
                      02383  iorlw .16
                      02384  goto tcf99h
                      02385 tcf04h: 
                      02386  xorlw .4
                      02387  xorlw .5
                      02388  btfss STATUS,Z
                      02389  goto tcf05h
                      02390  
                      02391  movfw margp2
                      02392  iorlw .32
                      02393  goto tcf99h
                      02394 tcf05h: 
                      02395  xorlw .5
                      02396  xorlw .6
                      02397  btfss STATUS,Z
                      02398  goto tcf07h
                      02399  
                      02400  movfw margp2
                      02401  iorlw .64
                      02402  goto tcf99h
                      02403 tcf07h: 
                      02404  
                      02405  movfw margp2
                      02406  iorlw .128 
MPASM  5.37                        TARGET.ASM   3-21-2012  18:31:13         PAGE 61


LOC  OBJECT CODE     LINE SOURCE TEXT
  VALUE

                      02407 tcf99h:  
                      02408  PUSH 
                      02409  return
                      02410 
                      02411 
                      02412 
                      02413 
                      02414 #undefine margp2
                      02415 
                      02416 
                      02417 #define margp2 hllblss00+1
                      02418 
                      02419 
                      02420 setbit0:
                      02421 #endif
                      02422 #endif
                      02423 
                      02424  POP
0000   0013               M  moviw INDF0-- ; preserve the safety of this code under interruptible conditions. 
0001   002?           02425  banksel margp2
0002   00??           02426  movwf  margp2
                      02427  POP
0003   0013               M  moviw INDF0-- ; preserve the safety of this code under interruptible conditions. 
0004   3A00           02428  xorlw .0
0005   1D03           02429  btfss STATUS,Z
0006   2???           02430  goto hllMAAAA
                      02431  
0007   08??           02432  movfw  margp2
0008   3801           02433  iorlw .1
0009   2???           02434  goto hllTAAAA
000A                  02435 hllMAAAA: 
                      02436  
000A   3A01           02437  xorlw .1
000B   1D03           02438  btfss STATUS,Z
000C   2???           02439  goto hllNAAAA
                      02440  
000D   08??           02441  movfw  margp2
000E   3802           02442  iorlw .2
000F   2???           02443  goto hllTAAAA
0010                  02444 hllNAAAA: 
0010   3A01           02445  xorlw .1
0011   3A02           02446  xorlw .2
0012   1D03           02447  btfss STATUS,Z
0013   2???           02448  goto hllOAAAA
                      02449  
0014   08??           02450  movfw margp2
0015   3804           02451  iorlw .4
0016   2???           02452  goto hllTAAAA
0017                  02453 hllOAAAA: 
0017   3A02           02454  xorlw .2
0018   3A03           02455  xorlw .3
0019   1D03           02456  btfss STATUS,Z
001A   2???           02457  goto hllPAAAA
MPASM  5.37                        TARGET.ASM   3-21-2012  18:31:13         PAGE 62


LOC  OBJECT CODE     LINE SOURCE TEXT
  VALUE

                      02458  
001B   08??           02459  movfw margp2
001C   3808           02460  iorlw .8
001D   2???           02461  goto hllTAAAA
001E                  02462 hllPAAAA: 
001E   3A03           02463  xorlw .3
001F   3A04           02464  xorlw .4
0020   1D03           02465  btfss STATUS,Z
0021   2???           02466  goto hllQAAAA
                      02467  
0022   08??           02468  movfw margp2
0023   3810           02469  iorlw .16
0024   2???           02470  goto hllTAAAA
0025                  02471 hllQAAAA: 
0025   3A04           02472  xorlw .4
0026   3A05           02473  xorlw .5
0027   1D03           02474  btfss STATUS,Z
0028   2???           02475  goto hllRAAAA
                      02476  
0029   08??           02477  movfw margp2
002A   3820           02478  iorlw .32
002B   2???           02479  goto hllTAAAA
002C                  02480 hllRAAAA: 
002C   3A05           02481  xorlw .5
002D   3A06           02482  xorlw .6
002E   1D03           02483  btfss STATUS,Z
002F   2???           02484  goto hllSAAAA
                      02485  
0030   08??           02486  movfw margp2
0031   3840           02487  iorlw .64
0032   2???           02488  goto hllTAAAA
0033                  02489 hllSAAAA: 
                      02490  
0033   08??           02491  movfw margp2
0034   3880           02492  iorlw .128 
0035                  02493 hllTAAAA:  
                      02494  PUSH 
0035   0018               M  movwi ++INDF0
0036   0008           02495  return
                      02496 
                      02497 
                      02498 
                      02499 
                      02500 #undefine margp2
                      02501 
                      02502 
                      02503 
                      02504 
                      02505 
                      02506 
                      02507 sfpu UDATA
                      02508  
                      02509  
MPASM  5.37                        TARGET.ASM   3-21-2012  18:31:13         PAGE 63


LOC  OBJECT CODE     LINE SOURCE TEXT
  VALUE

                      02510  
                      02511  
0000                  02512 sfploc00 res .1
0001                  02513 sfpaux00 res .1
                      02514 
                      02515 #ifdef HLLMULTITASK   
                      02516 #ifdef HLLGUARDsfploc
                      02517 sfploc00isr res .1
                      02518 sfpaux00isr res .1
                      02519 #endif
                      02520 #endif
                      02521 
0002                  02522 sfploc01 res .1
0003                  02523 sfpaux01 res .1
                      02524 
                      02525 #ifdef HLLMULTITASK
                      02526 #ifdef HLLGUARDsfploc
                      02527 sfploc01isr res .1
                      02528 sfpaux01isr res .1
                      02529 #endif
                      02530 #endif
                      02531 
                      02532 
0004                  02533 sfploc02 res .1
0005                  02534 sfpaux02 res .1
                      02535 
                      02536 #ifdef HLLMULTITASK
                      02537 #ifdef HLLGUARDsfploc
                      02538 sfploc02isr res .1
                      02539 sfpaux02isr res .1
                      02540 #endif
                      02541 #endif
                      02542 
                      02543 
0006                  02544 sfploc03 res .1
0007                  02545 sfpaux03 res .1
                      02546 
                      02547 #ifdef HLLMULTITASK
                      02548 #ifdef HLLGUARDsfploc
                      02549 sfploc03isr res .1
                      02550 sfpaux03isr res .1
                      02551 #endif
                      02552 #endif
                      02553 
                      02554 
0008                  02555 sfploc04 res .1
                      02556 
                      02557 #ifdef HLLMULTITASK
                      02558 #ifdef HLLGUARDsfploc
                      02559 sfploc04isr res .1
                      02560 #endif
                      02561 #endif
                      02562 
MPASM  5.37                        TARGET.ASM   3-21-2012  18:31:13         PAGE 64


LOC  OBJECT CODE     LINE SOURCE TEXT
  VALUE

                      02563 
0009                  02564 sfploc05 res .1
                      02565 
                      02566 #ifdef HLLMULTITASK
                      02567 #ifdef HLLGUARDsfploc
                      02568 sfploc05isr res .1
                      02569 #endif
                      02570 #endif
                      02571 
                      02572 
000A                  02573 sfploc06 res .1
                      02574 
                      02575 #ifdef HLLMULTITASK
                      02576 #ifdef HLLGUARDsfploc
                      02577 sfploc06isr res .1
                      02578 #endif
                      02579 #endif
                      02580 
                      02581 
000B                  02582 sfploc07 res .1
                      02583 
                      02584 #ifdef HLLMULTITASK
                      02585 #ifdef HLLGUARDsfploc
                      02586 sfploc07isr res .1
                      02587 #endif
                      02588 #endif
                      02589 
                      02590 
000C                  02591 sfploc08 res .1
                      02592 
                      02593 #ifdef HLLMULTITASK
                      02594 #ifdef HLLGUARDsfploc
                      02595 sfploc08isr res .1
                      02596 #endif
                      02597 #endif
                      02598 
                      02599 
000D                  02600 sfploc09 res .1
                      02601 
                      02602 #ifdef HLLMULTITASK
                      02603 #ifdef HLLGUARDsfploc
                      02604 sfploc09isr res .1
                      02605 #endif
                      02606 #endif
                      02607 
                      02608 
000E                  02609 sfploc10 res .1
                      02610 
                      02611 #ifdef HLLMULTITASK
                      02612 #ifdef HLLGUARDsfploc
                      02613 sfploc10isr res .1
                      02614 #endif
                      02615 #endif
MPASM  5.37                        TARGET.ASM   3-21-2012  18:31:13         PAGE 65


LOC  OBJECT CODE     LINE SOURCE TEXT
  VALUE

                      02616 
                      02617 
000F                  02618 sfploc11 res .1
                      02619 
                      02620 #ifdef HLLMULTITASK
                      02621 #ifdef HLLGUARDsfploc
                      02622 sfploc11isr res .1
                      02623 #endif
                      02624 #endif
                      02625 
                      02626 
0010                  02627 sfploc12 res .1
                      02628 
                      02629 #ifdef HLLMULTITASK
                      02630 #ifdef HLLGUARDsfploc
                      02631 sfploc12isr res .1
                      02632 #endif
                      02633 #endif
                      02634 
                      02635 
0011                  02636 sfploc13 res .1
                      02637 
                      02638 #ifdef HLLMULTITASK
                      02639 #ifdef HLLGUARDsfploc
                      02640 sfploc13isr res .1
                      02641 #endif
                      02642 #endif
                      02643 
                      02644 
0012                  02645 sfploc14 res .1
                      02646 
                      02647 #ifdef HLLMULTITASK
                      02648 #ifdef HLLGUARDsfploc
                      02649 sfploc14isr res .1
                      02650 #endif
                      02651 #endif
                      02652 
                      02653 
0013                  02654 sfploc15 res .1
                      02655 
                      02656 #ifdef HLLMULTITASK
                      02657 #ifdef HLLGUARDsfploc
                      02658 sfploc15isr res .1
                      02659 #endif
                      02660 #endif
                      02661 
                      02662 
0014                  02663 sfploc16 res .1
                      02664 
                      02665 #ifdef HLLMULTITASK
                      02666 #ifdef HLLGUARDsfploc
                      02667 sfploc16isr res .1
                      02668 #endif
MPASM  5.37                        TARGET.ASM   3-21-2012  18:31:13         PAGE 66


LOC  OBJECT CODE     LINE SOURCE TEXT
  VALUE

                      02669 #endif
                      02670 
                      02671 
0015                  02672 sfploc17 res .1 
                      02673 
                      02674 #ifdef HLLMULTITASK
                      02675 #ifdef HLLGUARDsfploc
                      02676 sfploc17isr res .1
                      02677 #endif
                      02678 #endif
                      02679 
                      02680 
                      02681  
                      02682 
                      02683 
                      02684 
                      02685 
                      02686 
                      02687 
                      02688 
                      02689 
                      02690  
                      02691  
                      02692 
                      02693 sfp_add CODE
                      02694 
                      02695 
                      02696 
                      02697 
                      02698 #define mout_hi sfploc00
                      02699 
                      02700 
                      02701 #define big_c sfploc01
                      02702 
                      02703 
                      02704 #define min2_lower sfploc02
                      02705 
                      02706 
                      02707 #define minres sfploc03
                      02708 
                      02709 
                      02710 #define fulmin2H sfploc04
                      02711 
                      02712 
                      02713 #define fulminH sfploc05
                      02714 
                      02715 
                      02716 #define min_lower sfploc06
                      02717 
                      02718 
                      02719 #define rev sfploc07
                      02720 
                      02721 
MPASM  5.37                        TARGET.ASM   3-21-2012  18:31:13         PAGE 67


LOC  OBJECT CODE     LINE SOURCE TEXT
  VALUE

                      02722 #define fulmin2 sfploc08
                      02723 
                      02724 
                      02725 #define fulmin sfploc09
                      02726 
                      02727 
                      02728 #define multiplier sfploc10
                      02729 
                      02730 
                      02731 #define mout sfploc11
                      02732 
                      02733 
                      02734 #define util sfploc12
                      02735 
                      02736 
                      02737 #define neg sfploc13
                      02738 
                      02739 
                      02740 #define ein2 sfploc14
                      02741 
                      02742 
                      02743 #define min2 sfploc15
                      02744 
                      02745 
                      02746 #define ein1 sfploc16
                      02747 
                      02748 
                      02749 #define min sfploc17
                      02750 
                      02751 
0000                  02752 addf:  
                      02753 #ifdef HLLMULTITASK
                      02754 #ifdef HLLGUARDsfploc 
                      02755  movf in_isr,f  
                      02756  btfsc STATUS,Z
                      02757  
                      02758 
                      02759 
                      02760  goto addf0
                      02761 
                      02762 
                      02763  
                      02764  
                      02765  
                      02766  
                      02767  
                      02768  
                      02769  
                      02770  
                      02771  POP
                      02772  banksel min
                      02773  movwf ein2 
                      02774  POP
MPASM  5.37                        TARGET.ASM   3-21-2012  18:31:13         PAGE 68


LOC  OBJECT CODE     LINE SOURCE TEXT
  VALUE

                      02775  banksel min
                      02776  movwf min2 
                      02777 
                      02778  POP
                      02779  banksel min
                      02780  movwf ein1 
                      02781 
                      02782  POP
                      02783  banksel min
                      02784  movwf min 
                      02785  
                      02786  
                      02787  
                      02788  
                      02789  bcf minres,0 
                      02790  
                      02791  
                      02792  
                      02793  clrf mout 
                      02794  
                      02795  
                      02796  
                      02797  
                      02798  
                      02799  clrf neg
                      02800  btfsc min,7
                      02801  bsf neg,0
                      02802  
                      02803  
                      02804  
                      02805  btfsc min2,7
                      02806  bsf neg,1
                      02807  
                      02808 
                      02809 
                      02810 
                      02811  btfsc ein2,7  
                      02812  goto yzpt44
                      02813  
                      02814  btfss ein1,7
                      02815  goto yzpt65
                      02816  
                      02817  goto ein_lt_ein2
                      02818 yzpt65: 
                      02819  
                      02820  movfw ein1
                      02821  subwf ein2,w    
                      02822  btfss STATUS,C 
                      02823  goto ein_lt_ein1  
                      02824 lz_ein15:
                      02825  goto ein_lt_ein2  
                      02826 yzpt44:   
                      02827  
MPASM  5.37                        TARGET.ASM   3-21-2012  18:31:13         PAGE 69


LOC  OBJECT CODE     LINE SOURCE TEXT
  VALUE

                      02828  
                      02829  btfsc ein1,7
                      02830  goto yzpt65  
                      02831 ein_lt_ein1:  
                      02832  
                      02833  
                      02834 
                      02835 
                      02836  movf ein2,w
                      02837  xorwf ein1,f
                      02838 
                      02839  movf ein1,w
                      02840  xorwf ein2,f
                      02841 
                      02842  movf ein2,w
                      02843  xorwf ein1,f
                      02844 
                      02845 
                      02846  movf min2,w
                      02847  xorwf min,f
                      02848 
                      02849  movf min,w
                      02850  xorwf min2,f
                      02851 
                      02852  movf min2,w
                      02853  xorwf min,f
                      02854  
                      02855  
                      02856  
                      02857  bsf rev,0 
                      02858  
                      02859  
                      02860  
                      02861  goto ein_lt_ein2_done 
                      02862 ein_lt_ein2: 
                      02863  
                      02864  
                      02865  
                      02866  clrf rev 
                      02867 ein_lt_ein2_done: 
                      02868  
                      02869  
                      02870  
                      02871  
                      02872  movfw min 
                      02873  andlw .127 
                      02874  movwf min 
                      02875  
                      02876  
                      02877  
                      02878  movfw min2 
                      02879  andlw .127 
                      02880  movwf min2 
MPASM  5.37                        TARGET.ASM   3-21-2012  18:31:13         PAGE 70


LOC  OBJECT CODE     LINE SOURCE TEXT
  VALUE

                      02881  
                      02882  
                      02883  
                      02884  clrf fulminH 
                      02885  movfw min 
                      02886  addlw .128 
                      02887  btfsc STATUS,C 
                      02888  incf fulminH,f 
                      02889  
                      02890  
                      02891  movwf fulmin 
                      02892  
                      02893  
                      02894  
                      02895  clrf fulmin2H 
                      02896  movfw min2 
                      02897  addlw .128 
                      02898  btfsc STATUS,C 
                      02899  incf fulmin2H,f 
                      02900  
                      02901  movwf fulmin2 
                      02902  
                      02903         
                      02904         
                      02905         
                      02906         
                      02907         
                      02908 
                      02909 
                      02910  clrf min_lower
                      02911 
                      02912  clrf min2_lower
                      02913  
                      02914 whi77:
                      02915 
                      02916 
                      02917  movfw ein1 
                      02918  xorwf ein2,w 
                      02919  btfsc STATUS,Z 
                      02920  goto eein2outw  
                      02921  
                      02922 
                      02923 
                      02924  bcf STATUS,C
                      02925  rrf min_lower,f
                      02926 
                      02927 
                      02928 
                      02929  bcf STATUS,C
                      02930  rrf fulmin,f
                      02931 
                      02932 
                      02933  btfss STATUS,C
MPASM  5.37                        TARGET.ASM   3-21-2012  18:31:13         PAGE 71


LOC  OBJECT CODE     LINE SOURCE TEXT
  VALUE

                      02934  goto nocar001
                      02935  
                      02936 
                      02937  bsf min_lower,7
                      02938 nocar001:
                      02939 
                      02940 
                      02941 
                      02942 
                      02943  incf ein1,f
                      02944 
                      02945 
                      02946  goto whi77
                      02947  
                      02948 
                      02949 eein2outw:      
                      02950 
                      02951  
                      02952  
                      02953  
                      02954  
                      02955  
                      02956  btfss rev,0 
                      02957  goto if_2_done 
                      02958 
                      02959 
                      02960 
                      02961  movf fulmin2,w
                      02962  xorwf fulmin,f
                      02963 
                      02964  movf fulmin,w
                      02965  xorwf fulmin2,f
                      02966 
                      02967  movf fulmin2,w
                      02968  xorwf fulmin,f 
                      02969  
                      02970  
                      02971  movfw min_lower 
                      02972  movwf min2_lower 
                      02973  
                      02974  clrf min_lower
                      02975  
                      02976  
                      02977  
                      02978  
                      02979  
                      02980 if_2_done: 
                      02981 
                      02982  banksel min_lower
                      02983 
                      02984  
                      02985  
                      02986 
MPASM  5.37                        TARGET.ASM   3-21-2012  18:31:13         PAGE 72


LOC  OBJECT CODE     LINE SOURCE TEXT
  VALUE

                      02987 nrev0:  
                      02988 
                      02989  btfss neg,0
                      02990  goto nextspeci0
                      02991  
                      02992 
                      02993  btfss neg,1
                      02994  goto nextspeci0
                      02995 
                      02996 
                      02997 
                      02998 
                      02999  bsf minres,0
                      03000 
                      03001  goto nextspeci2
                      03002 
                      03003  
                      03004  
                      03005  
                      03006  
                      03007 nextspeci0:
                      03008  
                      03009 
                      03010  btfss neg,0
                      03011  goto nextspeci1 
                      03012 
                      03013  
                      03014 rrrout0:
                      03015 
                      03016         
                      03017         
                      03018         
                      03019  movfw fulmin 
                      03020  subwf fulmin2,w 
                      03021  movwf mout 
                      03022  
                      03023  
                      03024  btfsc STATUS,C
                      03025  goto nc11rr            
                      03026                 
                      03027         
                      03028  bsf minres,0   
                      03029         
                      03030         
                      03031  goto rrrout1   
                      03032         
                      03033 nc11rr:
                      03034 
                      03035         
                      03036  movf mout,f
                      03037  btfsc STATUS,Z
                      03038  goto specidone0        
                      03039 mouty:
MPASM  5.37                        TARGET.ASM   3-21-2012  18:31:13         PAGE 73


LOC  OBJECT CODE     LINE SOURCE TEXT
  VALUE

                      03040 
                      03041         
                      03042  btfsc mout,7   
                      03043  goto nn91   
                      03044         
                      03045         
                      03046     
                      03047  bcf STATUS,C
                      03048  rlf mout,f
                      03049         
                      03050         
                      03051  btfss min_lower,7      
                      03052  goto yym43   
                      03053 
                      03054  
                      03055  decf mout,f    
                      03056 
                      03057         
                      03058  movlw .255
                      03059  xorwf mout,w
                      03060  btfss STATUS,Z
                      03061  goto yym43     
                      03062         
                      03063      
                      03064  bsf minres,0
                      03065  
                      03066          
                      03067  goto rrrout1
                      03068          
                      03069 
                      03070 yym43:
                      03071 
                      03072    
                      03073  bcf STATUS,C
                      03074  rlf min_lower,f 
                      03075 
                      03076         
                      03077  decf ein1,f    
                      03078 
                      03079         
                      03080  goto mouty
                      03081 
                      03082 nn91:
                      03083         
                      03084  btfss min_lower,7      
                      03085  goto trup5   
                      03086                 
                      03087         
                      03088  decf mout,f
                      03089 
                      03090         
                      03091  movlw .255
                      03092  xorwf mout,w
MPASM  5.37                        TARGET.ASM   3-21-2012  18:31:13         PAGE 74


LOC  OBJECT CODE     LINE SOURCE TEXT
  VALUE

                      03093  btfss STATUS,Z
                      03094  goto fltu54    
                      03095                 
                      03096      
                      03097  bsf minres,0    
                      03098          
                      03099          
                      03100  goto rrrout1    
                      03101          
                      03102          
                      03103 fltu54:
                      03104         
                      03105  movlw .127
                      03106  xorwf mout,w
                      03107  btfss STATUS,Z
                      03108  goto trup5     
                      03109         
                      03110         
                      03111         
                      03112         
                      03113  bcf STATUS,C
                      03114  rlf mout,f
                      03115 
                      03116         
                      03117  decf ein1,f    
                      03118         
                      03119         
                      03120  btfsc min_lower,6
                      03121  goto trup5 
                      03122         
                      03123         
                      03124  incf mout,f    
                      03125         
                      03126 trup5:
                      03127         
                      03128  goto specidone0
                      03129 nextspeci1:
                      03130  
                      03131 
                      03132         
                      03133  btfss neg,1
                      03134  goto nextspeci2 
                      03135  
                      03136         
                      03137 rrrout1:
                      03138 
                      03139         
                      03140  movfw fulmin2
                      03141  subwf fulmin,w 
                      03142  movwf mout 
                      03143 
                      03144  
                      03145  btfsc STATUS,C
MPASM  5.37                        TARGET.ASM   3-21-2012  18:31:13         PAGE 75


LOC  OBJECT CODE     LINE SOURCE TEXT
  VALUE

                      03146  goto rmxd3             
                      03147         
                      03148         
                      03149         
                      03150         
                      03151  bsf minres,0
                      03152         
                      03153         
                      03154  goto rrrout0   
                      03155 
                      03156 rmxd3:
                      03157 
                      03158         
                      03159  movf mout,f 
                      03160  btfsc STATUS,Z 
                      03161  goto specidone0 
                      03162         
                      03163 moutx:
                      03164 
                      03165         
                      03166  btfsc mout,7
                      03167  goto nn91b
                      03168  
                      03169         
                      03170         
                      03171     
                      03172  bcf STATUS,C
                      03173  rlf mout,f 
                      03174         
                      03175         
                      03176  btfss min2_lower,7
                      03177  goto spyr5
                      03178 
                      03179         
                      03180         
                      03181  decf mout,f    
                      03182         
                      03183         
                      03184  movlw .255
                      03185  xorwf mout,w
                      03186  btfss STATUS,Z
                      03187  goto spyr5     
                      03188         
                      03189 
                      03190  bsf minres,0
                      03191         
                      03192 
                      03193  goto rrrout0
                      03194         
                      03195 spyr5:
                      03196 
                      03197  
                      03198  bcf STATUS,C
MPASM  5.37                        TARGET.ASM   3-21-2012  18:31:13         PAGE 76


LOC  OBJECT CODE     LINE SOURCE TEXT
  VALUE

                      03199  rlf min2_lower,f
                      03200  
                      03201 
                      03202  decf ein1,f
                      03203    
                      03204         
                      03205  goto moutx     
                      03206 nn91b:
                      03207 
                      03208         
                      03209  btfss min2_lower,7
                      03210  goto cxaa
                      03211 
                      03212         
                      03213  decf mout,f    
                      03214         
                      03215         
                      03216  movlw .255
                      03217  xorwf mout,w
                      03218  btfss STATUS,Z
                      03219  goto iwrtt     
                      03220                 
                      03221         
                      03222  bsf minres,0
                      03223  
                      03224         
                      03225  goto rrrout0
                      03226 iwrtt:
                      03227 
                      03228 
                      03229         
                      03230  movlw .127
                      03231  xorwf mout,w
                      03232  btfss STATUS,Z
                      03233  goto cxaa      
                      03234                 
                      03235         
                      03236         
                      03237         
                      03238  bcf STATUS,C
                      03239  rlf mout,f 
                      03240 
                      03241         
                      03242  decf ein1,f    
                      03243 
                      03244         
                      03245  btfsc min2_lower,6
                      03246  goto cxaa 
                      03247  
                      03248         
                      03249         
                      03250  incf mout,f    
                      03251         
MPASM  5.37                        TARGET.ASM   3-21-2012  18:31:13         PAGE 77


LOC  OBJECT CODE     LINE SOURCE TEXT
  VALUE

                      03252 cxaa:
                      03253 
                      03254         
                      03255  goto specidone0
                      03256 
                      03257 tpc0lea:
                      03258          
                      03259  movfw fulmin
                      03260  subwf fulmin2,w 
                      03261  movwf mout 
                      03262          
                      03263          
                      03264          
                      03265      
                      03266  bsf minres,0    
                      03267         
                      03268  goto specidone0
                      03269 
                      03270         
                      03271 nextspeci2:
                      03272 
                      03273 
                      03274  
                      03275 
                      03276         
                      03277  clrf mout_hi
                      03278         
                      03279         
                      03280         
                      03281  movf fulmin,w
                      03282  addwf fulmin2,w
                      03283  movwf mout
                      03284         
                      03285         
                      03286 
                      03287         
                      03288  btfss STATUS,C 
                      03289  goto cxab                      
                      03290         
                      03291         
                      03292  incf mout_hi,f 
                      03293         
                      03294 cxab:
                      03295 
                      03296 
                      03297 
                      03298         
                      03299  movf min_lower,w
                      03300  addwf min2_lower,w
                      03301  btfsc STATUS,C
                      03302  goto bihhg   
                      03303  
                      03304 
MPASM  5.37                        TARGET.ASM   3-21-2012  18:31:13         PAGE 78


LOC  OBJECT CODE     LINE SOURCE TEXT
  VALUE

                      03305         
                      03306         
                      03307  andlw .128     
                      03308  btfss STATUS,Z
                      03309  goto bihhg       
                      03310         
                      03311         
                      03312  goto bihh0     
                      03313         
                      03314 bihhg:
                      03315 
                      03316 
                      03317         
                      03318  incf mout,f    
                      03319         
                      03320         
                      03321  movf mout,f
                      03322  btfss STATUS,Z
                      03323  goto bihh0 
                      03324 
                      03325         
                      03326  incf mout_hi,f
                      03327 
                      03328 bihh0:
                      03329         
                      03330  movf mout_hi,f
                      03331  btfsc STATUS,Z
                      03332  goto specidone0 
                      03333 
                      03334         
                      03335         
                      03336         
                      03337         
                      03338  clrf big_c
                      03339  bcf STATUS,C
                      03340  rrf fulmin,f
                      03341  btfsc STATUS,C
                      03342  bsf big_c,0
                      03343         
                      03344         
                      03345  bcf STATUS,C
                      03346  rrf min_lower,f
                      03347 
                      03348         
                      03349         
                      03350  btfss big_c,0
                      03351  goto ddnyy
                      03352         
                      03353         
                      03354         
                      03355  bsf min_lower,7        
                      03356         
                      03357 ddnyy:
MPASM  5.37                        TARGET.ASM   3-21-2012  18:31:13         PAGE 79


LOC  OBJECT CODE     LINE SOURCE TEXT
  VALUE

                      03358 
                      03359         
                      03360         
                      03361  clrf big_c
                      03362  bcf STATUS,C
                      03363  rrf fulmin2,f
                      03364  btfsc STATUS,C
                      03365  bsf big_c,0
                      03366         
                      03367         
                      03368         
                      03369         
                      03370  bcf STATUS,C
                      03371  rrf min2_lower,f
                      03372         
                      03373         
                      03374         
                      03375  btfss big_c,0
                      03376  goto ddnzz
                      03377 
                      03378         
                      03379         
                      03380         
                      03381  bsf min_lower,7                
                      03382         
                      03383 ddnzz:
                      03384 
                      03385         
                      03386  incf ein1,f    
                      03387         
                      03388         
                      03389  goto nextspeci2
                      03390 
                      03391 
                      03392 specidone0:
                      03393 
                      03394  movfw mout 
                      03395  
                      03396  
                      03397  btfss STATUS,Z 
                      03398  goto nomoutzeer 
                      03399  
                      03400  
                      03401  
                      03402  movlw .0 
                      03403 
                      03404  PUSH
                      03405  
                      03406  
                      03407  
                      03408  movlw 0x80 
                      03409  PUSH
                      03410  
MPASM  5.37                        TARGET.ASM   3-21-2012  18:31:13         PAGE 80


LOC  OBJECT CODE     LINE SOURCE TEXT
  VALUE

                      03411  
                      03412  
                      03413  goto re455tu
                      03414  
                      03415  
                      03416  
                      03417 nomoutzeer: 
                      03418  
                      03419  
                      03420  
                      03421  
                      03422  movfw mout
                      03423  addlw -.128 
                      03424  movwf mout 
                      03425 
                      03426  
                      03427  
                      03428  
                      03429  btfsc minres,0 
                      03430  bsf mout,7
                      03431  
                      03432  movfw mout 
                      03433  PUSH
                      03434  
                      03435  
                      03436  
                      03437  banksel min
                      03438  movfw ein1 
                      03439 
                      03440  PUSH
                      03441  
                      03442 re455tu:
                      03443  
                      03444  return 
                      03445 
                      03446  
                      03447 
                      03448 
                      03449 #undefine mout_hi
                      03450 
                      03451 
                      03452 #undefine big_c
                      03453 
                      03454 
                      03455 #undefine min2_lower
                      03456 
                      03457 
                      03458 #undefine minres
                      03459 
                      03460 
                      03461 #undefine fulmin2H
                      03462 
                      03463 
MPASM  5.37                        TARGET.ASM   3-21-2012  18:31:13         PAGE 81


LOC  OBJECT CODE     LINE SOURCE TEXT
  VALUE

                      03464 #undefine fulminH
                      03465 
                      03466 
                      03467 #undefine min_lower
                      03468 
                      03469 
                      03470 #undefine rev
                      03471 
                      03472 
                      03473 #undefine fulmin2
                      03474 
                      03475 
                      03476 #undefine fulmin
                      03477 
                      03478 
                      03479 #undefine multiplier
                      03480 
                      03481 
                      03482 #undefine mout
                      03483 
                      03484 
                      03485 #undefine util
                      03486 
                      03487 
                      03488 #undefine neg
                      03489 
                      03490 
                      03491 #undefine ein2
                      03492 
                      03493 
                      03494 #undefine min2
                      03495 
                      03496 
                      03497 #undefine ein1
                      03498 
                      03499 
                      03500 #undefine min
                      03501 
                      03502 
                      03503 #define mout_hi sfploc00+1
                      03504 
                      03505 
                      03506 #define big_c sfploc01+1
                      03507 
                      03508 
                      03509 #define min2_lower sfploc02+1
                      03510 
                      03511 
                      03512 #define minres sfploc03+1
                      03513 
                      03514 
                      03515 #define fulmin2H sfploc04+1
                      03516 
MPASM  5.37                        TARGET.ASM   3-21-2012  18:31:13         PAGE 82


LOC  OBJECT CODE     LINE SOURCE TEXT
  VALUE

                      03517 
                      03518 #define fulminH sfploc05+1
                      03519 
                      03520 
                      03521 #define min_lower sfploc06+1
                      03522 
                      03523 
                      03524 #define rev sfploc07+1
                      03525 
                      03526 
                      03527 #define fulmin2 sfploc08+1
                      03528 
                      03529 
                      03530 #define fulmin sfploc09+1
                      03531 
                      03532 
                      03533 #define multiplier sfploc10+1
                      03534 
                      03535 
                      03536 #define mout sfploc11+1
                      03537 
                      03538 
                      03539 #define util sfploc12+1
                      03540 
                      03541 
                      03542 #define neg sfploc13+1
                      03543 
                      03544 
                      03545 #define ein2 sfploc14+1
                      03546 
                      03547 
                      03548 #define min2 sfploc15+1
                      03549 
                      03550 
                      03551 #define ein1 sfploc16+1
                      03552 
                      03553 
                      03554 #define min sfploc17+1
                      03555 
                      03556 
                      03557 addf0:
                      03558 #endif
                      03559 #endif
                      03560 
                      03561 
                      03562  
                      03563  
                      03564  
                      03565  
                      03566  
                      03567  
                      03568  
                      03569  
MPASM  5.37                        TARGET.ASM   3-21-2012  18:31:13         PAGE 83


LOC  OBJECT CODE     LINE SOURCE TEXT
  VALUE

                      03570  POP
0000   0013               M  moviw INDF0-- ; preserve the safety of this code under interruptible conditions. 
0001   002?           03571  banksel min
0002   00??           03572  movwf ein2 
                      03573  POP
0003   0013               M  moviw INDF0-- ; preserve the safety of this code under interruptible conditions. 
0004   002?           03574  banksel min
0005   00??           03575  movwf min2 
                      03576 
                      03577  POP
0006   0013               M  moviw INDF0-- ; preserve the safety of this code under interruptible conditions. 
0007   002?           03578  banksel min
0008   00??           03579  movwf ein1 
                      03580 
                      03581  POP
0009   0013               M  moviw INDF0-- ; preserve the safety of this code under interruptible conditions. 
000A   002?           03582  banksel min
000B   00??           03583  movwf min 
                      03584  
                      03585  
                      03586  
                      03587  
000C   1000           03588  bcf minres,0 
                      03589  
                      03590  
                      03591  
000D   01??           03592  clrf mout 
                      03593  
                      03594  
                      03595  
                      03596  
                      03597  
000E   01??           03598  clrf neg
000F   1B80           03599  btfsc min,7
0010   1400           03600  bsf neg,0
                      03601  
                      03602  
                      03603  
0011   1B80           03604  btfsc min2,7
0012   1480           03605  bsf neg,1
                      03606  
                      03607 
                      03608 
                      03609 
0013   1B80           03610  btfsc ein2,7  
0014   2???           03611  goto hllWAAAA
                      03612  
0015   1F80           03613  btfss ein1,7
0016   2???           03614  goto hllUAAAA
                      03615  
0017   2???           03616  goto hllYAAAA
0018                  03617 hllUAAAA: 
                      03618  
MPASM  5.37                        TARGET.ASM   3-21-2012  18:31:13         PAGE 84


LOC  OBJECT CODE     LINE SOURCE TEXT
  VALUE

0018   08??           03619  movfw ein1
0019   02??           03620  subwf ein2,w    
001A   1C03           03621  btfss STATUS,C 
001B   2???           03622  goto hllXAAAA  
001C                  03623 hllVAAAA:
001C   2???           03624  goto hllYAAAA  
001D                  03625 hllWAAAA:   
                      03626  
                      03627  
001D   1B80           03628  btfsc ein1,7
001E   2???           03629  goto hllUAAAA  
001F                  03630 hllXAAAA:  
                      03631  
                      03632  
                      03633 
                      03634 
001F   08??           03635  movf ein2,w
0020   06??           03636  xorwf ein1,f
                      03637 
0021   08??           03638  movf ein1,w
0022   06??           03639  xorwf ein2,f
                      03640 
0023   08??           03641  movf ein2,w
0024   06??           03642  xorwf ein1,f
                      03643 
                      03644 
0025   08??           03645  movf min2,w
0026   06??           03646  xorwf min,f
                      03647 
0027   08??           03648  movf min,w
0028   06??           03649  xorwf min2,f
                      03650 
0029   08??           03651  movf min2,w
002A   06??           03652  xorwf min,f
                      03653  
                      03654  
                      03655  
002B   1400           03656  bsf rev,0 
                      03657  
                      03658  
                      03659  
002C   2???           03660  goto hllYAAAA_done 
002D                  03661 hllYAAAA: 
                      03662  
                      03663  
                      03664  
002D   01??           03665  clrf rev 
002E                  03666 hllYAAAA_done: 
                      03667  
                      03668  
                      03669  
                      03670  
002E   08??           03671  movfw min 
MPASM  5.37                        TARGET.ASM   3-21-2012  18:31:13         PAGE 85


LOC  OBJECT CODE     LINE SOURCE TEXT
  VALUE

002F   397F           03672  andlw .127 
0030   00??           03673  movwf min 
                      03674  
                      03675  
                      03676  
0031   08??           03677  movfw min2 
0032   397F           03678  andlw .127 
0033   00??           03679  movwf min2 
                      03680  
                      03681  
                      03682  
0034   01??           03683  clrf fulminH 
0035   08??           03684  movfw min 
0036   3E80           03685  addlw .128 
0037   1803           03686  btfsc STATUS,C 
0038   0A??           03687  incf fulminH,f 
                      03688  
                      03689  
0039   00??           03690  movwf fulmin 
                      03691  
                      03692  
                      03693  
003A   01??           03694  clrf fulmin2H 
003B   08??           03695  movfw min2 
003C   3E80           03696  addlw .128 
003D   1803           03697  btfsc STATUS,C 
003E   0A??           03698  incf fulmin2H,f 
                      03699  
003F   00??           03700  movwf fulmin2 
                      03701  
                      03702         
                      03703         
                      03704         
                      03705         
                      03706         
                      03707 
                      03708 
0040   01??           03709  clrf min_lower
                      03710 
0041   01??           03711  clrf min2_lower
                      03712  
0042                  03713 hllABAAA:
                      03714 
                      03715 
0042   08??           03716  movfw ein1 
0043   06??           03717  xorwf ein2,w 
0044   1903           03718  btfsc STATUS,Z 
0045   2???           03719  goto hllCBAAA  
                      03720  
                      03721 
                      03722 
0046   1003           03723  bcf STATUS,C
0047   0C??           03724  rrf min_lower,f
MPASM  5.37                        TARGET.ASM   3-21-2012  18:31:13         PAGE 86


LOC  OBJECT CODE     LINE SOURCE TEXT
  VALUE

                      03725 
                      03726 
                      03727 
0048   1003           03728  bcf STATUS,C
0049   0C??           03729  rrf fulmin,f
                      03730 
                      03731 
004A   1C03           03732  btfss STATUS,C
004B   2???           03733  goto hllBBAAA
                      03734  
                      03735 
004C   1780           03736  bsf min_lower,7
004D                  03737 hllBBAAA:
                      03738 
                      03739 
                      03740 
                      03741 
004D   0A??           03742  incf ein1,f
                      03743 
                      03744 
004E   2???           03745  goto hllABAAA
                      03746  
                      03747 
004F                  03748 hllCBAAA:       
                      03749 
                      03750  
                      03751  
                      03752  
                      03753  
                      03754  
004F   1C00           03755  btfss rev,0 
0050   2???           03756  goto hllDBAAA 
                      03757 
                      03758 
                      03759 
0051   08??           03760  movf fulmin2,w
0052   06??           03761  xorwf fulmin,f
                      03762 
0053   08??           03763  movf fulmin,w
0054   06??           03764  xorwf fulmin2,f
                      03765 
0055   08??           03766  movf fulmin2,w
0056   06??           03767  xorwf fulmin,f 
                      03768  
                      03769  
0057   08??           03770  movfw min_lower 
0058   00??           03771  movwf min2_lower 
                      03772  
0059   01??           03773  clrf min_lower
                      03774  
                      03775  
                      03776  
                      03777  
MPASM  5.37                        TARGET.ASM   3-21-2012  18:31:13         PAGE 87


LOC  OBJECT CODE     LINE SOURCE TEXT
  VALUE

                      03778  
005A                  03779 hllDBAAA: 
                      03780 
005A   002?           03781  banksel min_lower
                      03782 
                      03783  
                      03784  
                      03785 
005B                  03786 hllEBAAA:       
                      03787 
005B   1C00           03788  btfss neg,0
005C   2???           03789  goto hllFBAAA
                      03790  
                      03791 
005D   1C80           03792  btfss neg,1
005E   2???           03793  goto hllFBAAA
                      03794 
                      03795 
                      03796 
                      03797 
005F   1400           03798  bsf minres,0
                      03799 
0060   2???           03800  goto hllWBAAA
                      03801 
                      03802  
                      03803  
                      03804  
                      03805  
0061                  03806 hllFBAAA:
                      03807  
                      03808 
0061   1C00           03809  btfss neg,0
0062   2???           03810  goto hllNBAAA 
                      03811 
                      03812  
0063                  03813 hllGBAAA:
                      03814 
                      03815         
                      03816         
                      03817         
0063   08??           03818  movfw fulmin 
0064   02??           03819  subwf fulmin2,w 
0065   00??           03820  movwf mout 
                      03821  
                      03822  
0066   1803           03823  btfsc STATUS,C
0067   2???           03824  goto hllHBAAA          
                      03825                 
                      03826         
0068   1400           03827  bsf minres,0   
                      03828         
                      03829         
0069   2???           03830  goto hllOBAAA  
MPASM  5.37                        TARGET.ASM   3-21-2012  18:31:13         PAGE 88


LOC  OBJECT CODE     LINE SOURCE TEXT
  VALUE

                      03831         
006A                  03832 hllHBAAA:
                      03833 
                      03834         
006A   08??           03835  movf mout,f
006B   1903           03836  btfsc STATUS,Z
006C   2???           03837  goto hllCCAAA  
006D                  03838 hllIBAAA:
                      03839 
                      03840         
006D   1B80           03841  btfsc mout,7   
006E   2???           03842  goto hllKBAAA   
                      03843         
                      03844         
                      03845     
006F   1003           03846  bcf STATUS,C
0070   0D??           03847  rlf mout,f
                      03848         
                      03849         
0071   1F80           03850  btfss min_lower,7      
0072   2???           03851  goto hllJBAAA   
                      03852 
                      03853  
0073   03??           03854  decf mout,f    
                      03855 
                      03856         
0074   30FF           03857  movlw .255
0075   06??           03858  xorwf mout,w
0076   1D03           03859  btfss STATUS,Z
0077   2???           03860  goto hllJBAAA  
                      03861         
                      03862      
0078   1400           03863  bsf minres,0
                      03864  
                      03865          
0079   2???           03866  goto hllOBAAA
                      03867          
                      03868 
007A                  03869 hllJBAAA:
                      03870 
                      03871    
007A   1003           03872  bcf STATUS,C
007B   0D??           03873  rlf min_lower,f 
                      03874 
                      03875         
007C   03??           03876  decf ein1,f    
                      03877 
                      03878         
007D   2???           03879  goto hllIBAAA
                      03880 
007E                  03881 hllKBAAA:
                      03882         
007E   1F80           03883  btfss min_lower,7      
MPASM  5.37                        TARGET.ASM   3-21-2012  18:31:13         PAGE 89


LOC  OBJECT CODE     LINE SOURCE TEXT
  VALUE

007F   2???           03884  goto hllMBAAA   
                      03885                 
                      03886         
0080   03??           03887  decf mout,f
                      03888 
                      03889         
0081   30FF           03890  movlw .255
0082   06??           03891  xorwf mout,w
0083   1D03           03892  btfss STATUS,Z
0084   2???           03893  goto hllLBAAA  
                      03894                 
                      03895      
0085   1400           03896  bsf minres,0    
                      03897          
                      03898          
0086   2???           03899  goto hllOBAAA   
                      03900          
                      03901          
0087                  03902 hllLBAAA:
                      03903         
0087   307F           03904  movlw .127
0088   06??           03905  xorwf mout,w
0089   1D03           03906  btfss STATUS,Z
008A   2???           03907  goto hllMBAAA  
                      03908         
                      03909         
                      03910         
                      03911         
008B   1003           03912  bcf STATUS,C
008C   0D??           03913  rlf mout,f
                      03914 
                      03915         
008D   03??           03916  decf ein1,f    
                      03917         
                      03918         
008E   1B00           03919  btfsc min_lower,6
008F   2???           03920  goto hllMBAAA 
                      03921         
                      03922         
0090   0A??           03923  incf mout,f    
                      03924         
0091                  03925 hllMBAAA:
                      03926         
0091   2???           03927  goto hllCCAAA
0092                  03928 hllNBAAA:
                      03929  
                      03930 
                      03931         
0092   1C80           03932  btfss neg,1
0093   2???           03933  goto hllWBAAA 
                      03934  
                      03935         
0094                  03936 hllOBAAA:
MPASM  5.37                        TARGET.ASM   3-21-2012  18:31:13         PAGE 90


LOC  OBJECT CODE     LINE SOURCE TEXT
  VALUE

                      03937 
                      03938         
0094   08??           03939  movfw fulmin2
0095   02??           03940  subwf fulmin,w 
0096   00??           03941  movwf mout 
                      03942 
                      03943  
0097   1803           03944  btfsc STATUS,C
0098   2???           03945  goto hllPBAAA          
                      03946         
                      03947         
                      03948         
                      03949         
0099   1400           03950  bsf minres,0
                      03951         
                      03952         
009A   2???           03953  goto hllGBAAA  
                      03954 
009B                  03955 hllPBAAA:
                      03956 
                      03957         
009B   08??           03958  movf mout,f 
009C   1903           03959  btfsc STATUS,Z 
009D   2???           03960  goto hllCCAAA 
                      03961         
009E                  03962 hllQBAAA:
                      03963 
                      03964         
009E   1B80           03965  btfsc mout,7
009F   2???           03966  goto hllKBAAAb
                      03967  
                      03968         
                      03969         
                      03970     
00A0   1003           03971  bcf STATUS,C
00A1   0D??           03972  rlf mout,f 
                      03973         
                      03974         
00A2   1F80           03975  btfss min2_lower,7
00A3   2???           03976  goto hllRBAAA
                      03977 
                      03978         
                      03979         
00A4   03??           03980  decf mout,f    
                      03981         
                      03982         
00A5   30FF           03983  movlw .255
00A6   06??           03984  xorwf mout,w
00A7   1D03           03985  btfss STATUS,Z
00A8   2???           03986  goto hllRBAAA  
                      03987         
                      03988 
00A9   1400           03989  bsf minres,0
MPASM  5.37                        TARGET.ASM   3-21-2012  18:31:13         PAGE 91


LOC  OBJECT CODE     LINE SOURCE TEXT
  VALUE

                      03990         
                      03991 
00AA   2???           03992  goto hllGBAAA
                      03993         
00AB                  03994 hllRBAAA:
                      03995 
                      03996  
00AB   1003           03997  bcf STATUS,C
00AC   0D??           03998  rlf min2_lower,f
                      03999  
                      04000 
00AD   03??           04001  decf ein1,f
                      04002    
                      04003         
00AE   2???           04004  goto hllQBAAA  
00AF                  04005 hllKBAAAb:
                      04006 
                      04007         
00AF   1F80           04008  btfss min2_lower,7
00B0   2???           04009  goto hllUBAAA
                      04010 
                      04011         
00B1   03??           04012  decf mout,f    
                      04013         
                      04014         
00B2   30FF           04015  movlw .255
00B3   06??           04016  xorwf mout,w
00B4   1D03           04017  btfss STATUS,Z
00B5   2???           04018  goto hllTBAAA  
                      04019                 
                      04020         
00B6   1400           04021  bsf minres,0
                      04022  
                      04023         
00B7   2???           04024  goto hllGBAAA
00B8                  04025 hllTBAAA:
                      04026 
                      04027 
                      04028         
00B8   307F           04029  movlw .127
00B9   06??           04030  xorwf mout,w
00BA   1D03           04031  btfss STATUS,Z
00BB   2???           04032  goto hllUBAAA  
                      04033                 
                      04034         
                      04035         
                      04036         
00BC   1003           04037  bcf STATUS,C
00BD   0D??           04038  rlf mout,f 
                      04039 
                      04040         
00BE   03??           04041  decf ein1,f    
                      04042 
MPASM  5.37                        TARGET.ASM   3-21-2012  18:31:13         PAGE 92


LOC  OBJECT CODE     LINE SOURCE TEXT
  VALUE

                      04043         
00BF   1B00           04044  btfsc min2_lower,6
00C0   2???           04045  goto hllUBAAA 
                      04046  
                      04047         
                      04048         
00C1   0A??           04049  incf mout,f    
                      04050         
00C2                  04051 hllUBAAA:
                      04052 
                      04053         
00C2   2???           04054  goto hllCCAAA
                      04055 
00C3                  04056 hllVBAAA:
                      04057          
00C3   08??           04058  movfw fulmin
00C4   02??           04059  subwf fulmin2,w 
00C5   00??           04060  movwf mout 
                      04061          
                      04062          
                      04063          
                      04064      
00C6   1400           04065  bsf minres,0    
                      04066         
00C7   2???           04067  goto hllCCAAA
                      04068 
                      04069         
00C8                  04070 hllWBAAA:
                      04071 
                      04072 
                      04073  
                      04074 
                      04075         
00C8   01??           04076  clrf mout_hi
                      04077         
                      04078         
                      04079         
00C9   08??           04080  movf fulmin,w
00CA   07??           04081  addwf fulmin2,w
00CB   00??           04082  movwf mout
                      04083         
                      04084         
                      04085 
                      04086         
00CC   1C03           04087  btfss STATUS,C 
00CD   2???           04088  goto hllXBAAA                  
                      04089         
                      04090         
00CE   0A??           04091  incf mout_hi,f 
                      04092         
00CF                  04093 hllXBAAA:
                      04094 
                      04095 
MPASM  5.37                        TARGET.ASM   3-21-2012  18:31:13         PAGE 93


LOC  OBJECT CODE     LINE SOURCE TEXT
  VALUE

                      04096 
                      04097         
00CF   08??           04098  movf min_lower,w
00D0   07??           04099  addwf min2_lower,w
00D1   1803           04100  btfsc STATUS,C
00D2   2???           04101  goto hllYBAAA   
                      04102  
                      04103 
                      04104         
                      04105         
00D3   3980           04106  andlw .128     
00D4   1D03           04107  btfss STATUS,Z
00D5   2???           04108  goto hllYBAAA    
                      04109         
                      04110         
00D6   2???           04111  goto hllZBAAA  
                      04112         
00D7                  04113 hllYBAAA:
                      04114 
                      04115 
                      04116         
00D7   0A??           04117  incf mout,f    
                      04118         
                      04119         
00D8   08??           04120  movf mout,f
00D9   1D03           04121  btfss STATUS,Z
00DA   2???           04122  goto hllZBAAA 
                      04123 
                      04124         
00DB   0A??           04125  incf mout_hi,f
                      04126 
00DC                  04127 hllZBAAA:
                      04128         
00DC   08??           04129  movf mout_hi,f
00DD   1903           04130  btfsc STATUS,Z
00DE   2???           04131  goto hllCCAAA 
                      04132 
                      04133         
                      04134         
                      04135         
                      04136         
00DF   01??           04137  clrf big_c
00E0   1003           04138  bcf STATUS,C
00E1   0C??           04139  rrf fulmin,f
00E2   1803           04140  btfsc STATUS,C
00E3   1400           04141  bsf big_c,0
                      04142         
                      04143         
00E4   1003           04144  bcf STATUS,C
00E5   0C??           04145  rrf min_lower,f
                      04146 
                      04147         
                      04148         
MPASM  5.37                        TARGET.ASM   3-21-2012  18:31:13         PAGE 94


LOC  OBJECT CODE     LINE SOURCE TEXT
  VALUE

00E6   1C00           04149  btfss big_c,0
00E7   2???           04150  goto hllACAAA
                      04151         
                      04152         
                      04153         
00E8   1780           04154  bsf min_lower,7        
                      04155         
00E9                  04156 hllACAAA:
                      04157 
                      04158         
                      04159         
00E9   01??           04160  clrf big_c
00EA   1003           04161  bcf STATUS,C
00EB   0C??           04162  rrf fulmin2,f
00EC   1803           04163  btfsc STATUS,C
00ED   1400           04164  bsf big_c,0
                      04165         
                      04166         
                      04167         
                      04168         
00EE   1003           04169  bcf STATUS,C
00EF   0C??           04170  rrf min2_lower,f
                      04171         
                      04172         
                      04173         
00F0   1C00           04174  btfss big_c,0
00F1   2???           04175  goto hllBCAAA
                      04176 
                      04177         
                      04178         
                      04179         
00F2   1780           04180  bsf min_lower,7                
                      04181         
00F3                  04182 hllBCAAA:
                      04183 
                      04184         
00F3   0A??           04185  incf ein1,f    
                      04186         
                      04187         
00F4   2???           04188  goto hllWBAAA
                      04189 
                      04190 
00F5                  04191 hllCCAAA:
                      04192 
00F5   08??           04193  movfw mout 
                      04194  
                      04195  
00F6   1D03           04196  btfss STATUS,Z 
00F7   2???           04197  goto hllDCAAA 
                      04198  
                      04199  
                      04200  
00F8   3000           04201  movlw .0 
MPASM  5.37                        TARGET.ASM   3-21-2012  18:31:13         PAGE 95


LOC  OBJECT CODE     LINE SOURCE TEXT
  VALUE

                      04202 
                      04203  PUSH
00F9   0018               M  movwi ++INDF0
                      04204  
                      04205  
                      04206  
00FA   3080           04207  movlw 0x80 
                      04208  PUSH
00FB   0018               M  movwi ++INDF0
                      04209  
                      04210  
                      04211  
00FC   2???           04212  goto hllECAAA
                      04213  
                      04214  
                      04215  
00FD                  04216 hllDCAAA: 
                      04217  
                      04218  
                      04219  
                      04220  
00FD   08??           04221  movfw mout
00FE   3E80           04222  addlw -.128 
00FF   00??           04223  movwf mout 
                      04224 
                      04225  
                      04226  
                      04227  
0100   1800           04228  btfsc minres,0 
0101   1780           04229  bsf mout,7
                      04230  
0102   08??           04231  movfw mout 
                      04232  PUSH
0103   0018               M  movwi ++INDF0
                      04233  
                      04234  
                      04235  
0104   002?           04236  banksel min
0105   08??           04237  movfw ein1 
                      04238 
                      04239  PUSH
0106   0018               M  movwi ++INDF0
                      04240  
0107                  04241 hllECAAA:
                      04242  
0107   0008           04243  return 
                      04244 
                      04245  
                      04246 
                      04247 
                      04248 #undefine mout_hi
                      04249 
                      04250 
MPASM  5.37                        TARGET.ASM   3-21-2012  18:31:13         PAGE 96


LOC  OBJECT CODE     LINE SOURCE TEXT
  VALUE

                      04251 #undefine big_c
                      04252 
                      04253 
                      04254 #undefine min2_lower
                      04255 
                      04256 
                      04257 #undefine minres
                      04258 
                      04259 
                      04260 #undefine fulmin2H
                      04261 
                      04262 
                      04263 #undefine fulminH
                      04264 
                      04265 
                      04266 #undefine min_lower
                      04267 
                      04268 
                      04269 #undefine rev
                      04270 
                      04271 
                      04272 #undefine fulmin2
                      04273 
                      04274 
                      04275 #undefine fulmin
                      04276 
                      04277 
                      04278 #undefine multiplier
                      04279 
                      04280 
                      04281 #undefine mout
                      04282 
                      04283 
                      04284 #undefine util
                      04285 
                      04286 
                      04287 #undefine neg
                      04288 
                      04289 
                      04290 #undefine ein2
                      04291 
                      04292 
                      04293 #undefine min2
                      04294 
                      04295 
                      04296 #undefine ein1
                      04297 
                      04298 
                      04299 #undefine min
                      04300 
                      04301 
                      04302 
                      04303 
MPASM  5.37                        TARGET.ASM   3-21-2012  18:31:13         PAGE 97


LOC  OBJECT CODE     LINE SOURCE TEXT
  VALUE

                      04304 
                      04305 
                      04306 
                      04307 
                      04308 
                      04309 
                      04310 
                      04311   
                      04312  
                      04313 
                      04314 sfp_div CODE 
                      04315 
                      04316 
                      04317 #define rounded sfploc00
                      04318 
                      04319 
                      04320 #define big_c sfploc01
                      04321 
                      04322 
                      04323 #define a_hi_msb sfploc02
                      04324 
                      04325 
                      04326 #define loop_count sfploc03
                      04327 
                      04328 
                      04329 #define run_total sfploc04
                      04330 
                      04331 
                      04332 #define min2_lower sfploc05
                      04333 
                      04334 
                      04335 #define subtrahend sfploc06
                      04336 
                      04337 
                      04338 #define quotient_lo sfploc07
                      04339 
                      04340 
                      04341 #define term sfploc08
                      04342 
                      04343 
                      04344 #define exam sfploc09
                      04345 
                      04346 
                      04347 #define multiplier sfploc10
                      04348 
                      04349 
                      04350 #define mout sfploc11
                      04351 
                      04352 
                      04353 #define util sfploc12
                      04354 
                      04355 
                      04356 #define neg sfploc13
MPASM  5.37                        TARGET.ASM   3-21-2012  18:31:13         PAGE 98


LOC  OBJECT CODE     LINE SOURCE TEXT
  VALUE

                      04357 
                      04358 
                      04359 #define ein2 sfploc14
                      04360 
                      04361 
                      04362 #define min2 sfploc15
                      04363 
                      04364 
                      04365 #define ein sfploc16
                      04366 
                      04367 
                      04368 #define min sfploc17
                      04369 
                      04370 
0000                  04371 divf:  
                      04372 #ifdef HLLMULTITASK
                      04373 #ifdef HLLGUARDsfploc 
                      04374  movf in_isr,f  
                      04375  btfsc STATUS,Z
                      04376  
                      04377 
                      04378 
                      04379  goto divf0
                      04380 
                      04381 
                      04382 
                      04383 
                      04384 
                      04385 
                      04386 
                      04387 
                      04388 
                      04389 
                      04390 
                      04391 
                      04392 
                      04393 
                      04394 
                      04395  POP
                      04396 
                      04397  banksel min
                      04398  movwf ein2 
                      04399  clrf neg 
                      04400 
                      04401 
                      04402  POP
                      04403 
                      04404  banksel min
                      04405  movwf min2 
                      04406 
                      04407 
                      04408  btfsc min2,7
                      04409  bsf neg,1
MPASM  5.37                        TARGET.ASM   3-21-2012  18:31:13         PAGE 99


LOC  OBJECT CODE     LINE SOURCE TEXT
  VALUE

                      04410  bcf min2,7 
                      04411 
                      04412  POP
                      04413 
                      04414  banksel min
                      04415  movwf ein 
                      04416 
                      04417  POP
                      04418 
                      04419  banksel min
                      04420  movwf min 
                      04421  btfsc min,7
                      04422  bsf neg,0 
                      04423  bcf min,7 
                      04424  movfw ein 
                      04425  movwf util 
                      04426  movfw ein2 
                      04427  subwf util,f 
                      04428 
                      04429  clrf exam 
                      04430 
                      04431  
                      04432  movfw min 
                      04433  addlw .128 
                      04434  movwf min 
                      04435 
                      04436  movfw min2 
                      04437  addlw .128 
                      04438  movwf min2 
                      04439 
                      04440  
                      04441  
                      04442 
                      04443  
                      04444  movwf term 
                      04445 
                      04446 
                      04447 
                      04448 
                      04449  clrf quotient_lo
                      04450 
                      04451 
                      04452  clrf subtrahend
                      04453 
                      04454 
                      04455  clrf min2_lower
                      04456 
                      04457 
                      04458  clrf run_total
                      04459 
                      04460 
                      04461  clrf loop_count
                      04462 
MPASM  5.37                        TARGET.ASM   3-21-2012  18:31:13         PAGE 100


LOC  OBJECT CODE     LINE SOURCE TEXT
  VALUE

                      04463 f4tp:
                      04464 
                      04465  movf loop_count,w
                      04466  xorlw .16
                      04467  btfsc STATUS,Z
                      04468  goto f4dn
                      04469 
                      04470 
                      04471  movf min,w
                      04472  andlw .128
                      04473  movwf a_hi_msb
                      04474  
                      04475 
                      04476  bcf STATUS,C
                      04477  rlf min2_lower,f
                      04478 
                      04479 
                      04480 
                      04481  bcf STATUS,C
                      04482  rlf run_total,f
                      04483 
                      04484 
                      04485  btfss STATUS,C
                      04486  goto que4
                      04487 
                      04488 
                      04489  incf min2_lower,f
                      04490 
                      04491 que4:
                      04492 
                      04493 
                      04494  bcf STATUS,C
                      04495  rlf min,f 
                      04496 
                      04497 
                      04498 
                      04499  bcf STATUS,C
                      04500  rlf quotient_lo,f
                      04501 
                      04502 
                      04503  btfsc STATUS,C
                      04504 
                      04505 
                      04506 
                      04507  incf min,f
                      04508 
                      04509 
                      04510  movf a_hi_msb,f
                      04511  btfsc STATUS,Z
                      04512  goto nry4
                      04513 
                      04514 
                      04515  incf run_total,f
MPASM  5.37                        TARGET.ASM   3-21-2012  18:31:13         PAGE 101


LOC  OBJECT CODE     LINE SOURCE TEXT
  VALUE

                      04516 
                      04517 
                      04518  btfsc STATUS,Z
                      04519  incf min2_lower,f
                      04520 
                      04521 nry4:
                      04522 
                      04523 
                      04524  clrf big_c 
                      04525  movfw min2
                      04526  subwf run_total,w 
                      04527  btfss STATUS,C 
                      04528  bsf big_c,0 
                      04529 
                      04530 
                      04531  movf subtrahend,w
                      04532  subwf min2_lower,f 
                      04533 
                      04534 
                      04535  movf min2,w
                      04536  subwf run_total,f
                      04537 
                      04538 
                      04539  btfsc big_c,0 
                      04540  decf min2_lower,f
                      04541 
                      04542 
                      04543  btfss min2_lower,7
                      04544  goto ga4g0
                      04545 
                      04546 
                      04547 
                      04548  movf min2,w
                      04549  addwf run_total,w
                      04550  clrf big_c
                      04551  btfsc STATUS,C
                      04552  bsf big_c,0
                      04553 
                      04554 
                      04555  movf subtrahend,w
                      04556  addwf min2_lower,f
                      04557 
                      04558 
                      04559  movf min2,w
                      04560  addwf run_total,f
                      04561 
                      04562 
                      04563 
                      04564  btfsc big_c,0 
                      04565  incf min2_lower,f
                      04566 
                      04567 
                      04568 
MPASM  5.37                        TARGET.ASM   3-21-2012  18:31:13         PAGE 102


LOC  OBJECT CODE     LINE SOURCE TEXT
  VALUE

                      04569  movlw .254
                      04570  andwf quotient_lo,f
                      04571 
                      04572 
                      04573  goto ga5g0
                      04574 ga4g0:
                      04575 
                      04576 
                      04577  movlw .1
                      04578  iorwf quotient_lo,f
                      04579 ga5g0:
                      04580 
                      04581 
                      04582 
                      04583  incf loop_count,f
                      04584 
                      04585 
                      04586  goto f4tp
                      04587 
                      04588 f4dn:
                      04589 
                      04590 
                      04591  movf quotient_lo,w
                      04592  movwf mout
                      04593 
                      04594 
                      04595  clrf multiplier
                      04596  btfsc min,0
                      04597  bsf multiplier,0
                      04598 
                      04599  
                      04600  bcf STATUS,C
                      04601  rrf term,f
                      04602 
                      04603  clrf rounded
                      04604  movfw run_total
                      04605  subwf term,w    
                      04606  btfsc STATUS,C 
                      04607  goto fr9rh   
                      04608  incf mout,f 
                      04609  bsf rounded,0 
                      04610  
                      04611 fr9rh:
                      04612  
                      04613 
                      04614 
                      04615  movf multiplier,f
                      04616  btfsc STATUS,Z
                      04617  goto notmult0
                      04618  
                      04619 
                      04620 
                      04621 
MPASM  5.37                        TARGET.ASM   3-21-2012  18:31:13         PAGE 103


LOC  OBJECT CODE     LINE SOURCE TEXT
  VALUE

                      04622 
                      04623  
                      04624  btfss mout,0
                      04625  goto prpg1
                      04626 
                      04627  
                      04628  btfsc rounded,0
                      04629  goto prpg1
                      04630  
                      04631  
                      04632 
                      04633  bcf STATUS,C
                      04634  rrf mout,f
                      04635 
                      04636 
                      04637  incf mout,f
                      04638 
                      04639 
                      04640  goto prpgm
                      04641 
                      04642 prpg1:
                      04643 
                      04644 
                      04645  bcf STATUS,C 
                      04646  rrf mout,f
                      04647 
                      04648 prpgm:
                      04649 
                      04650 
                      04651  bsf mout,7
                      04652 
                      04653  goto notmult1
                      04654 notmult0:
                      04655  decf util,f 
                      04656 notmult1:
                      04657  movfw mout 
                      04658 
                      04659 retrydvif1: 
                      04660 
                      04661   addlw -.128 
                      04662   movwf exam 
                      04663   btfss exam,7 
                      04664   goto nodivfcarr2 
                      04665   addlw .128    
                      04666 
                      04667  
                      04668  decf util,f 
                      04669  bcf STATUS,C 
                      04670  
                      04671  
                      04672  
                      04673  rlf mout,f 
                      04674  movfw mout 
MPASM  5.37                        TARGET.ASM   3-21-2012  18:31:13         PAGE 104


LOC  OBJECT CODE     LINE SOURCE TEXT
  VALUE

                      04675  goto retrydvif1 
                      04676 
                      04677 nodivfcarr2: 
                      04678 
                      04679 
                      04680  movwf mout
                      04681 
                      04682 
                      04683 
                      04684  
                      04685  
                      04686  btfsc neg,0
                      04687  goto ita33nq 
                      04688  btfss neg,1
                      04689  goto div_sames 
                      04690  goto div_dif5 
                      04691 ita33nq: 
                      04692  btfsc neg,1
                      04693  goto div_sames 
                      04694 
                      04695 div_dif5: 
                      04696 
                      04697  
                      04698  
                      04699  
                      04700  
                      04701  movfw mout 
                      04702  iorlw .128 
                      04703  movwf mout 
                      04704  
                      04705 
                      04706 div_sames: 
                      04707  movfw mout 
                      04708  PUSH
                      04709  banksel min
                      04710  movfw util 
                      04711  PUSH
                      04712  
                      04713  return 
                      04714 
                      04715  
                      04716  
                      04717 
                      04718 
                      04719 #undefine rounded
                      04720 
                      04721 
                      04722 #undefine big_c
                      04723 
                      04724 
                      04725 #undefine a_hi_msb
                      04726 
                      04727 
MPASM  5.37                        TARGET.ASM   3-21-2012  18:31:13         PAGE 105


LOC  OBJECT CODE     LINE SOURCE TEXT
  VALUE

                      04728 #undefine loop_count
                      04729 
                      04730 
                      04731 #undefine run_total
                      04732 
                      04733 
                      04734 #undefine min2_lower
                      04735 
                      04736 
                      04737 #undefine subtrahend
                      04738 
                      04739 
                      04740 #undefine quotient_lo
                      04741 
                      04742 
                      04743 #undefine term
                      04744 
                      04745 
                      04746 #undefine exam
                      04747 
                      04748 
                      04749 #undefine multiplier
                      04750 
                      04751 
                      04752 #undefine mout
                      04753 
                      04754 
                      04755 #undefine util
                      04756 
                      04757 
                      04758 #undefine neg
                      04759 
                      04760 
                      04761 #undefine ein2
                      04762 
                      04763 
                      04764 #undefine min2
                      04765 
                      04766 
                      04767 #undefine ein
                      04768 
                      04769 
                      04770 #undefine min
                      04771 
                      04772 
                      04773 #define rounded sfploc00+1
                      04774 
                      04775 
                      04776 #define big_c sfploc01+1
                      04777 
                      04778 
                      04779 #define a_hi_msb sfploc02+1
                      04780 
MPASM  5.37                        TARGET.ASM   3-21-2012  18:31:13         PAGE 106


LOC  OBJECT CODE     LINE SOURCE TEXT
  VALUE

                      04781 
                      04782 #define loop_count sfploc03+1
                      04783 
                      04784 
                      04785 #define run_total sfploc04+1
                      04786 
                      04787 
                      04788 #define min2_lower sfploc05+1
                      04789 
                      04790 
                      04791 #define subtrahend sfploc06+1
                      04792 
                      04793 
                      04794 #define quotient_lo sfploc07+1
                      04795 
                      04796 
                      04797 #define term sfploc08+1
                      04798 
                      04799 
                      04800 #define exam sfploc09+1
                      04801 
                      04802 
                      04803 #define multiplier sfploc10+1
                      04804 
                      04805 
                      04806 #define mout sfploc11+1
                      04807 
                      04808 
                      04809 #define util sfploc12+1
                      04810 
                      04811 
                      04812 #define neg sfploc13+1
                      04813 
                      04814 
                      04815 #define ein2 sfploc14+1
                      04816 
                      04817 
                      04818 #define min2 sfploc15+1
                      04819 
                      04820 
                      04821 #define ein sfploc16+1
                      04822 
                      04823 
                      04824 #define min sfploc17+1
                      04825 
                      04826 
                      04827 divf0:
                      04828 #endif
                      04829 #endif
                      04830 
                      04831 
                      04832 
                      04833 
MPASM  5.37                        TARGET.ASM   3-21-2012  18:31:13         PAGE 107


LOC  OBJECT CODE     LINE SOURCE TEXT
  VALUE

                      04834 
                      04835 
                      04836 
                      04837 
                      04838 
                      04839 
                      04840 
                      04841 
                      04842 
                      04843 
                      04844 
                      04845  POP
0000   0013               M  moviw INDF0-- ; preserve the safety of this code under interruptible conditions. 
                      04846 
0001   002?           04847  banksel min
0002   00??           04848  movwf ein2 
0003   01??           04849  clrf neg 
                      04850 
                      04851 
                      04852  POP
0004   0013               M  moviw INDF0-- ; preserve the safety of this code under interruptible conditions. 
                      04853 
0005   002?           04854  banksel min
0006   00??           04855  movwf min2 
                      04856 
                      04857 
0007   1B80           04858  btfsc min2,7
0008   1480           04859  bsf neg,1
0009   1380           04860  bcf min2,7 
                      04861 
                      04862  POP
000A   0013               M  moviw INDF0-- ; preserve the safety of this code under interruptible conditions. 
                      04863 
000B   002?           04864  banksel min
000C   00??           04865  movwf ein 
                      04866 
                      04867  POP
000D   0013               M  moviw INDF0-- ; preserve the safety of this code under interruptible conditions. 
                      04868 
000E   002?           04869  banksel min
000F   00??           04870  movwf min 
0010   1B80           04871  btfsc min,7
0011   1400           04872  bsf neg,0 
0012   1380           04873  bcf min,7 
0013   08??           04874  movfw ein 
0014   00??           04875  movwf util 
0015   08??           04876  movfw ein2 
0016   02??           04877  subwf util,f 
                      04878 
0017   01??           04879  clrf exam 
                      04880 
                      04881  
0018   08??           04882  movfw min 
MPASM  5.37                        TARGET.ASM   3-21-2012  18:31:13         PAGE 108


LOC  OBJECT CODE     LINE SOURCE TEXT
  VALUE

0019   3E80           04883  addlw .128 
001A   00??           04884  movwf min 
                      04885 
001B   08??           04886  movfw min2 
001C   3E80           04887  addlw .128 
001D   00??           04888  movwf min2 
                      04889 
                      04890  
                      04891  
                      04892 
                      04893  
001E   00??           04894  movwf term 
                      04895 
                      04896 
                      04897 
                      04898 
001F   01??           04899  clrf quotient_lo
                      04900 
                      04901 
0020   01??           04902  clrf subtrahend
                      04903 
                      04904 
0021   01??           04905  clrf min2_lower
                      04906 
                      04907 
0022   01??           04908  clrf run_total
                      04909 
                      04910 
0023   01??           04911  clrf loop_count
                      04912 
0024                  04913 hllFCAAA:
                      04914 
0024   08??           04915  movf loop_count,w
0025   3A10           04916  xorlw .16
0026   1903           04917  btfsc STATUS,Z
0027   2???           04918  goto hllKCAAA
                      04919 
                      04920 
0028   08??           04921  movf min,w
0029   3980           04922  andlw .128
002A   00??           04923  movwf a_hi_msb
                      04924  
                      04925 
002B   1003           04926  bcf STATUS,C
002C   0D??           04927  rlf min2_lower,f
                      04928 
                      04929 
                      04930 
002D   1003           04931  bcf STATUS,C
002E   0D??           04932  rlf run_total,f
                      04933 
                      04934 
002F   1C03           04935  btfss STATUS,C
MPASM  5.37                        TARGET.ASM   3-21-2012  18:31:13         PAGE 109


LOC  OBJECT CODE     LINE SOURCE TEXT
  VALUE

0030   2???           04936  goto hllGCAAA
                      04937 
                      04938 
0031   0A??           04939  incf min2_lower,f
                      04940 
0032                  04941 hllGCAAA:
                      04942 
                      04943 
0032   1003           04944  bcf STATUS,C
0033   0D??           04945  rlf min,f 
                      04946 
                      04947 
                      04948 
0034   1003           04949  bcf STATUS,C
0035   0D??           04950  rlf quotient_lo,f
                      04951 
                      04952 
0036   1803           04953  btfsc STATUS,C
                      04954 
                      04955 
                      04956 
0037   0A??           04957  incf min,f
                      04958 
                      04959 
0038   08??           04960  movf a_hi_msb,f
0039   1903           04961  btfsc STATUS,Z
003A   2???           04962  goto hllHCAAA
                      04963 
                      04964 
003B   0A??           04965  incf run_total,f
                      04966 
                      04967 
003C   1903           04968  btfsc STATUS,Z
003D   0A??           04969  incf min2_lower,f
                      04970 
003E                  04971 hllHCAAA:
                      04972 
                      04973 
003E   01??           04974  clrf big_c 
003F   08??           04975  movfw min2
0040   02??           04976  subwf run_total,w 
0041   1C03           04977  btfss STATUS,C 
0042   1400           04978  bsf big_c,0 
                      04979 
                      04980 
0043   08??           04981  movf subtrahend,w
0044   02??           04982  subwf min2_lower,f 
                      04983 
                      04984 
0045   08??           04985  movf min2,w
0046   02??           04986  subwf run_total,f
                      04987 
                      04988 
MPASM  5.37                        TARGET.ASM   3-21-2012  18:31:13         PAGE 110


LOC  OBJECT CODE     LINE SOURCE TEXT
  VALUE

0047   1800           04989  btfsc big_c,0 
0048   03??           04990  decf min2_lower,f
                      04991 
                      04992 
0049   1F80           04993  btfss min2_lower,7
004A   2???           04994  goto hllICAAA
                      04995 
                      04996 
                      04997 
004B   08??           04998  movf min2,w
004C   07??           04999  addwf run_total,w
004D   01??           05000  clrf big_c
004E   1803           05001  btfsc STATUS,C
004F   1400           05002  bsf big_c,0
                      05003 
                      05004 
0050   08??           05005  movf subtrahend,w
0051   07??           05006  addwf min2_lower,f
                      05007 
                      05008 
0052   08??           05009  movf min2,w
0053   07??           05010  addwf run_total,f
                      05011 
                      05012 
                      05013 
0054   1800           05014  btfsc big_c,0 
0055   0A??           05015  incf min2_lower,f
                      05016 
                      05017 
                      05018 
0056   30FE           05019  movlw .254
0057   05??           05020  andwf quotient_lo,f
                      05021 
                      05022 
0058   2???           05023  goto hllJCAAA
0059                  05024 hllICAAA:
                      05025 
                      05026 
0059   3001           05027  movlw .1
005A   04??           05028  iorwf quotient_lo,f
005B                  05029 hllJCAAA:
                      05030 
                      05031 
                      05032 
005B   0A??           05033  incf loop_count,f
                      05034 
                      05035 
005C   2???           05036  goto hllFCAAA
                      05037 
005D                  05038 hllKCAAA:
                      05039 
                      05040 
005D   08??           05041  movf quotient_lo,w
MPASM  5.37                        TARGET.ASM   3-21-2012  18:31:13         PAGE 111


LOC  OBJECT CODE     LINE SOURCE TEXT
  VALUE

005E   00??           05042  movwf mout
                      05043 
                      05044 
005F   01??           05045  clrf multiplier
0060   1800           05046  btfsc min,0
0061   1400           05047  bsf multiplier,0
                      05048 
                      05049  
0062   1003           05050  bcf STATUS,C
0063   0C??           05051  rrf term,f
                      05052 
0064   01??           05053  clrf rounded
0065   08??           05054  movfw run_total
0066   02??           05055  subwf term,w    
0067   1803           05056  btfsc STATUS,C 
0068   2???           05057  goto hllLCAAA   
0069   0A??           05058  incf mout,f 
006A   1400           05059  bsf rounded,0 
                      05060  
006B                  05061 hllLCAAA:
                      05062  
                      05063 
                      05064 
006B   08??           05065  movf multiplier,f
006C   1903           05066  btfsc STATUS,Z
006D   2???           05067  goto hllOCAAA
                      05068  
                      05069 
                      05070 
                      05071 
                      05072 
                      05073  
006E   1C00           05074  btfss mout,0
006F   2???           05075  goto hllMCAAA
                      05076 
                      05077  
0070   1800           05078  btfsc rounded,0
0071   2???           05079  goto hllMCAAA
                      05080  
                      05081  
                      05082 
0072   1003           05083  bcf STATUS,C
0073   0C??           05084  rrf mout,f
                      05085 
                      05086 
0074   0A??           05087  incf mout,f
                      05088 
                      05089 
0075   2???           05090  goto hllNCAAA
                      05091 
0076                  05092 hllMCAAA:
                      05093 
                      05094 
MPASM  5.37                        TARGET.ASM   3-21-2012  18:31:13         PAGE 112


LOC  OBJECT CODE     LINE SOURCE TEXT
  VALUE

0076   1003           05095  bcf STATUS,C 
0077   0C??           05096  rrf mout,f
                      05097 
0078                  05098 hllNCAAA:
                      05099 
                      05100 
0078   1780           05101  bsf mout,7
                      05102 
0079   2???           05103  goto hllPCAAA
007A                  05104 hllOCAAA:
007A   03??           05105  decf util,f 
007B                  05106 hllPCAAA:
007B   08??           05107  movfw mout 
                      05108 
007C                  05109 hllQCAAA: 
                      05110 
007C   3E80           05111   addlw -.128 
007D   00??           05112   movwf exam 
007E   1F80           05113   btfss exam,7 
007F   2???           05114   goto hllRCAAA 
0080   3E80           05115   addlw .128    
                      05116 
                      05117  
0081   03??           05118  decf util,f 
0082   1003           05119  bcf STATUS,C 
                      05120  
                      05121  
                      05122  
0083   0D??           05123  rlf mout,f 
0084   08??           05124  movfw mout 
0085   2???           05125  goto hllQCAAA 
                      05126 
0086                  05127 hllRCAAA: 
                      05128 
                      05129 
0086   00??           05130  movwf mout
                      05131 
                      05132 
                      05133 
                      05134  
                      05135  
0087   1800           05136  btfsc neg,0
0088   2???           05137  goto hllSCAAA 
0089   1C80           05138  btfss neg,1
008A   2???           05139  goto hllUCAAA 
008B   2???           05140  goto hllTCAAA 
008C                  05141 hllSCAAA: 
008C   1880           05142  btfsc neg,1
008D   2???           05143  goto hllUCAAA 
                      05144 
008E                  05145 hllTCAAA: 
                      05146 
                      05147  
MPASM  5.37                        TARGET.ASM   3-21-2012  18:31:13         PAGE 113


LOC  OBJECT CODE     LINE SOURCE TEXT
  VALUE

                      05148  
                      05149  
                      05150  
008E   08??           05151  movfw mout 
008F   3880           05152  iorlw .128 
0090   00??           05153  movwf mout 
                      05154  
                      05155 
0091                  05156 hllUCAAA: 
0091   08??           05157  movfw mout 
                      05158  PUSH
0092   0018               M  movwi ++INDF0
0093   002?           05159  banksel min
0094   08??           05160  movfw util 
                      05161  PUSH
0095   0018               M  movwi ++INDF0
                      05162  
0096   0008           05163  return 
                      05164 
                      05165  
                      05166  
                      05167 
                      05168 
                      05169 #undefine rounded
                      05170 
                      05171 
                      05172 #undefine big_c
                      05173 
                      05174 
                      05175 #undefine a_hi_msb
                      05176 
                      05177 
                      05178 #undefine loop_count
                      05179 
                      05180 
                      05181 #undefine run_total
                      05182 
                      05183 
                      05184 #undefine min2_lower
                      05185 
                      05186 
                      05187 #undefine subtrahend
                      05188 
                      05189 
                      05190 #undefine quotient_lo
                      05191 
                      05192 
                      05193 #undefine term
                      05194 
                      05195 
                      05196 #undefine exam
                      05197 
                      05198 
MPASM  5.37                        TARGET.ASM   3-21-2012  18:31:13         PAGE 114


LOC  OBJECT CODE     LINE SOURCE TEXT
  VALUE

                      05199 #undefine multiplier
                      05200 
                      05201 
                      05202 #undefine mout
                      05203 
                      05204 
                      05205 #undefine util
                      05206 
                      05207 
                      05208 #undefine neg
                      05209 
                      05210 
                      05211 #undefine ein2
                      05212 
                      05213 
                      05214 #undefine min2
                      05215 
                      05216 
                      05217 #undefine ein
                      05218 
                      05219 
                      05220 #undefine min
                      05221 
                      05222 
                      05223 
                      05224 
                      05225 
                      05226 
                      05227 
                      05228  
                      05229 
                      05230 
                      05231 sfp_tou CODE 
                      05232 
                      05233 
                      05234 
                      05235 #define util sfploc00
                      05236 
                      05237 
                      05238 #define divisor sfploc01
                      05239 
                      05240 
                      05241 #define karg2 sfploc02
                      05242 
                      05243 
                      05244 #define karg1 sfploc03
                      05245 
                      05246 
0000                  05247 ftou:  
                      05248 #ifdef HLLMULTITASK
                      05249 #ifdef HLLGUARDsfploc 
                      05250  movf in_isr,f  
                      05251  btfsc STATUS,Z
MPASM  5.37                        TARGET.ASM   3-21-2012  18:31:13         PAGE 115


LOC  OBJECT CODE     LINE SOURCE TEXT
  VALUE

                      05252  
                      05253 
                      05254 
                      05255  goto ftou0
                      05256 
                      05257 
                      05258 
                      05259 
                      05260 
                      05261 
                      05262  POP
                      05263  banksel karg2
                      05264  movwf karg2 
                      05265  clrf karg1 
                      05266  
                      05267  
                      05268  
                      05269  
                      05270  btfss karg2,7
                      05271  goto re55zek
                      05272  POP
                      05273  goto re55zer 
                      05274 re55zek:
                      05275  
                      05276  POP
                      05277  addlw .128
                      05278  banksel karg1
                      05279  movwf karg1 
                      05280  
                      05281  movfw karg2
                      05282  sublw .7
                      05283  
                      05284  movwf divisor 
                      05285 
                      05286  movlw high FPRollTbl3 
                      05287  movwf PCLATH 
                      05288  movlw low FPRollTbl3
                      05289  addwf divisor,w 
                      05290  btfsc STATUS,C 
                      05291  incf PCLATH,f 
                      05292  movwf PCL 
                      05293 
                      05294 
                      05295 FPRollTbl3:
                      05296  goto shift0
                      05297  goto shift1
                      05298  goto shift2 
                      05299  goto shift3
                      05300  goto shift4
                      05301  goto shift5
                      05302  goto shift6
                      05303  goto shift7
                      05304  
MPASM  5.37                        TARGET.ASM   3-21-2012  18:31:13         PAGE 116


LOC  OBJECT CODE     LINE SOURCE TEXT
  VALUE

                      05305 shift7:
                      05306  bcf STATUS,C 
                      05307  rrf karg1,f
                      05308  rrf util,f
                      05309 shift6:
                      05310  bcf STATUS,C 
                      05311  rrf karg1,f
                      05312  rrf util,f
                      05313 shift5:
                      05314  bcf STATUS,C 
                      05315  rrf karg1,f
                      05316  rrf util,f
                      05317 shift4:
                      05318  bcf STATUS,C 
                      05319  rrf karg1,f
                      05320  rrf util,f
                      05321 shift3:
                      05322  bcf STATUS,C 
                      05323  rrf karg1,f
                      05324  rrf util,f
                      05325 shift2:
                      05326  bcf STATUS,C 
                      05327  rrf karg1,f
                      05328  rrf util,f
                      05329 shift1:
                      05330  bcf STATUS,C 
                      05331  rrf karg1,f
                      05332  rrf util,f
                      05333 shift0:
                      05334 
                      05335 re55zer:
                      05336  banksel karg1
                      05337  movfw karg1 
                      05338  PUSH
                      05339  
                      05340  
                      05341  return
                      05342 
                      05343 
                      05344 
                      05345 
                      05346 #undefine util
                      05347 
                      05348 
                      05349 #undefine divisor
                      05350 
                      05351 
                      05352 #undefine karg2
                      05353 
                      05354 
                      05355 #undefine karg1
                      05356 
                      05357 
MPASM  5.37                        TARGET.ASM   3-21-2012  18:31:13         PAGE 117


LOC  OBJECT CODE     LINE SOURCE TEXT
  VALUE

                      05358 #define util sfploc00+1
                      05359 
                      05360 
                      05361 #define divisor sfploc01+1
                      05362 
                      05363 
                      05364 #define karg2 sfploc02+1
                      05365 
                      05366 
                      05367 #define karg1 sfploc03+1
                      05368 
                      05369 
                      05370 ftou0:
                      05371 #endif
                      05372 #endif
                      05373 
                      05374 
                      05375 
                      05376 
                      05377 
                      05378 
                      05379  POP
0000   0013               M  moviw INDF0-- ; preserve the safety of this code under interruptible conditions. 
0001   002?           05380  banksel karg2
0002   00??           05381  movwf karg2 
0003   01??           05382  clrf karg1 
                      05383  
                      05384  
                      05385  
                      05386  
0004   1F80           05387  btfss karg2,7
0005   2???           05388  goto hllVCAAA
                      05389  POP
0006   0013               M  moviw INDF0-- ; preserve the safety of this code under interruptible conditions. 
0007   2???           05390  goto hllFDAAA 
0008                  05391 hllVCAAA:
                      05392  
                      05393  POP
0008   0013               M  moviw INDF0-- ; preserve the safety of this code under interruptible conditions. 
0009   3E80           05394  addlw .128
000A   002?           05395  banksel karg1
000B   00??           05396  movwf karg1 
                      05397  
000C   08??           05398  movfw karg2
000D   3C07           05399  sublw .7
                      05400  
000E   00??           05401  movwf divisor 
                      05402 
000F   30??           05403  movlw high hllWCAAA 
0010   008A           05404  movwf PCLATH 
0011   30??           05405  movlw low hllWCAAA
0012   07??           05406  addwf divisor,w 
0013   1803           05407  btfsc STATUS,C 
MPASM  5.37                        TARGET.ASM   3-21-2012  18:31:13         PAGE 118


LOC  OBJECT CODE     LINE SOURCE TEXT
  VALUE

0014   0A8A           05408  incf PCLATH,f 
0015   0082           05409  movwf PCL 
                      05410 
                      05411 
0016                  05412 hllWCAAA:
0016   2???           05413  goto hllEDAAA
0017   2???           05414  goto hllDDAAA
0018   2???           05415  goto hllCDAAA 
0019   2???           05416  goto hllBDAAA
001A   2???           05417  goto hllADAAA
001B   2???           05418  goto hllZCAAA
001C   2???           05419  goto hllYCAAA
001D   2???           05420  goto hllXCAAA
                      05421  
001E                  05422 hllXCAAA:
001E   1003           05423  bcf STATUS,C 
001F   0C??           05424  rrf karg1,f
0020   0C??           05425  rrf util,f
0021                  05426 hllYCAAA:
0021   1003           05427  bcf STATUS,C 
0022   0C??           05428  rrf karg1,f
0023   0C??           05429  rrf util,f
0024                  05430 hllZCAAA:
0024   1003           05431  bcf STATUS,C 
0025   0C??           05432  rrf karg1,f
0026   0C??           05433  rrf util,f
0027                  05434 hllADAAA:
0027   1003           05435  bcf STATUS,C 
0028   0C??           05436  rrf karg1,f
0029   0C??           05437  rrf util,f
002A                  05438 hllBDAAA:
002A   1003           05439  bcf STATUS,C 
002B   0C??           05440  rrf karg1,f
002C   0C??           05441  rrf util,f
002D                  05442 hllCDAAA:
002D   1003           05443  bcf STATUS,C 
002E   0C??           05444  rrf karg1,f
002F   0C??           05445  rrf util,f
0030                  05446 hllDDAAA:
0030   1003           05447  bcf STATUS,C 
0031   0C??           05448  rrf karg1,f
0032   0C??           05449  rrf util,f
0033                  05450 hllEDAAA:
                      05451 
0033                  05452 hllFDAAA:
0033   002?           05453  banksel karg1
0034   08??           05454  movfw karg1 
                      05455  PUSH
0035   0018               M  movwi ++INDF0
                      05456  
                      05457  
0036   0008           05458  return
                      05459 
MPASM  5.37                        TARGET.ASM   3-21-2012  18:31:13         PAGE 119


LOC  OBJECT CODE     LINE SOURCE TEXT
  VALUE

                      05460 
                      05461 
                      05462 
                      05463 #undefine util
                      05464 
                      05465 
                      05466 #undefine divisor
                      05467 
                      05468 
                      05469 #undefine karg2
                      05470 
                      05471 
                      05472 #undefine karg1
                      05473 
                      05474 
                      05475 
                      05476 
                      05477 
                      05478 
                      05479 
                      05480 
                      05481  
                      05482  
                      05483 
                      05484 sfp_mul CODE
                      05485 
                      05486 
                      05487 
                      05488 
                      05489 #define savelsb sfploc00
                      05490 
                      05491 
                      05492 #define iterator sfploc01
                      05493 
                      05494 
                      05495 #define hi_byte sfploc02
                      05496 
                      05497 
                      05498 #define make_mout sfploc03
                      05499 
                      05500 
                      05501 #define factor2 sfploc04
                      05502 
                      05503 
                      05504 #define factor1 sfploc05
                      05505 
                      05506 
                      05507 #define mulhi sfploc06
                      05508 
                      05509 
                      05510 #define mout sfploc07
                      05511 
                      05512 
MPASM  5.37                        TARGET.ASM   3-21-2012  18:31:13         PAGE 120


LOC  OBJECT CODE     LINE SOURCE TEXT
  VALUE

                      05513 #define util sfploc08
                      05514 
                      05515 
                      05516 #define neg sfploc09
                      05517 
                      05518 
                      05519 #define ein2 sfploc10
                      05520 
                      05521 
                      05522 #define min2 sfploc11
                      05523 
                      05524 
                      05525 #define ein sfploc12
                      05526 
                      05527 
                      05528 #define min sfploc13
                      05529 
                      05530 
0000                  05531 mulf:  
                      05532 #ifdef HLLMULTITASK
                      05533 #ifdef HLLGUARDsfploc 
                      05534  movf in_isr,f  
                      05535  btfsc STATUS,Z
                      05536  
                      05537 
                      05538 
                      05539  goto mulf0
                      05540 
                      05541 
                      05542  
                      05543  POP
                      05544 
                      05545  
                      05546  banksel ein2
                      05547  movwf ein2 
                      05548  xorlw .128 
                      05549  btfss STATUS,Z
                      05550  goto mulf_zokr1
                      05551  movlw .127     
                      05552  
                      05553  andwf HLINDF,w 
                      05554  
                      05555  btfsc STATUS,Z
                      05556  goto mulf_zeer1
                      05557  
                      05558 mulf_zokr1: 
                      05559 
                      05560  
                      05561  
                      05562  clrf neg 
                      05563  
                      05564  
                      05565  
MPASM  5.37                        TARGET.ASM   3-21-2012  18:31:13         PAGE 121


LOC  OBJECT CODE     LINE SOURCE TEXT
  VALUE

                      05566  POP
                      05567 
                      05568  
                      05569  banksel min2
                      05570  movwf min2 
                      05571  btfsc min2,7
                      05572  bsf neg,1      
                      05573 
                      05574  
                      05575  bcf min2,7 
                      05576 
                      05577  POP
                      05578 
                      05579  banksel ein
                      05580  movwf ein
                      05581  xorlw .128 
                      05582  btfss STATUS,Z
                      05583  goto mulf_zokr2
                      05584  movlw .127
                      05585 
                      05586  andwf HLINDF,w 
                      05587  btfsc STATUS,Z
                      05588  goto mulf_zeer2
                      05589 mulf_zokr2:
                      05590 
                      05591  POP
                      05592 
                      05593  
                      05594  banksel min
                      05595  movwf min 
                      05596  btfsc min,7
                      05597  bsf neg,0
                      05598 
                      05599  
                      05600  bcf min,7 
                      05601  
                      05602  
                      05603  
                      05604  movfw ein 
                      05605 
                      05606  
                      05607  movwf util 
                      05608 
                      05609  
                      05610  movfw ein2 
                      05611 
                      05612  
                      05613  addwf util,f 
                      05614  
                      05615  
                      05616  movfw min 
                      05617 
                      05618  
MPASM  5.37                        TARGET.ASM   3-21-2012  18:31:13         PAGE 122


LOC  OBJECT CODE     LINE SOURCE TEXT
  VALUE

                      05619  addlw .128 
                      05620 
                      05621  
                      05622  PUSH
                      05623  banksel min2
                      05624  movfw min2 
                      05625  addlw .128 
                      05626 
                      05627  PUSH
                      05628  goto kmul16 
                      05629 
                      05630 bmul16:
                      05631 
                      05632  
                      05633  POP
                      05634 
                      05635 
                      05636  banksel mout
                      05637  movwf mout 
                      05638 
                      05639  
                      05640  btfss mout,7 
                      05641  goto no_mulf_carry 
                      05642 
                      05643  
                      05644  POP
                      05645 
                      05646  
                      05647  banksel util
                      05648  incf util,f 
                      05649 
                      05650 
                      05651  
                      05652  andlw .128 
                      05653  btfss STATUS,Z
                      05654  incf mout,f
                      05655 
                      05656  goto mulf_if1_done 
                      05657 
                      05658 
                      05659 no_mulf_carry: 
                      05660 
                      05661  
                      05662  
                      05663  
                      05664  
                      05665  
                      05666 
                      05667  
                      05668  bcf STATUS,C 
                      05669 
                      05670  
                      05671  POP
MPASM  5.37                        TARGET.ASM   3-21-2012  18:31:13         PAGE 123


LOC  OBJECT CODE     LINE SOURCE TEXT
  VALUE

                      05672 
                      05673  banksel savelsb
                      05674  movwf savelsb
                      05675  
                      05676  
                      05677  andlw .128 
                      05678  btfss STATUS,Z 
                      05679  bsf STATUS,C 
                      05680 
                      05681  
                      05682  
                      05683  banksel mout
                      05684  rlf mout,f 
                      05685 
                      05686  
                      05687  
                      05688  
                      05689  movf savelsb,w
                      05690 
                      05691  banksel mout
                      05692  andlw .64
                      05693  btfss STATUS,Z
                      05694  incf mout,f
                      05695  
                      05696 
                      05697 
                      05698 mulf_if1_done: 
                      05699 
                      05700  
                      05701  movfw mout 
                      05702 
                      05703  
                      05704  addlw -.128 
                      05705 
                      05706  
                      05707  movwf mout 
                      05708 
                      05709  
                      05710  btfsc neg,0
                      05711  goto ita22nq 
                      05712  btfss neg,1
                      05713  goto mul_sames 
                      05714  goto mul_dif5 
                      05715 ita22nq: 
                      05716  btfsc neg,1
                      05717  goto mul_sames 
                      05718 
                      05719 mul_dif5: 
                      05720 
                      05721  
                      05722  movfw mout 
                      05723 
                      05724  
MPASM  5.37                        TARGET.ASM   3-21-2012  18:31:13         PAGE 124


LOC  OBJECT CODE     LINE SOURCE TEXT
  VALUE

                      05725  iorlw .128 
                      05726 
                      05727  
                      05728  movwf mout 
                      05729 
                      05730 
                      05731 mul_sames: 
                      05732 
                      05733  
                      05734  movfw mout 
                      05735 
                      05736  
                      05737  PUSH
                      05738 
                      05739  
                      05740  banksel util
                      05741  movfw util 
                      05742  PUSH
                      05743  
                      05744  goto reto9k 
                      05745 
                      05746 mulf_zeer1: 
                      05747 
                      05748  POP
                      05749  POP
                      05750 
                      05751 
                      05752 mulf_zeer2:
                      05753  POP
                      05754 
                      05755  
                      05756  movlw .128
                      05757  PUSH
                      05758  PUSH
                      05759 
                      05760  
                      05761  
                      05762 reto9k:
                      05763  
                      05764  return
                      05765  
                      05766  
                      05767  
                      05768  
                      05769 kmul16: 
                      05770 
                      05771  POP
                      05772  banksel factor1
                      05773  movwf factor1
                      05774 
                      05775  POP
                      05776  banksel factor2
                      05777  movwf factor2
MPASM  5.37                        TARGET.ASM   3-21-2012  18:31:13         PAGE 125


LOC  OBJECT CODE     LINE SOURCE TEXT
  VALUE

                      05778 
                      05779 
                      05780  
                      05781  clrf hi_byte
                      05782  
                      05783  clrf make_mout
                      05784  
                      05785  clrf iterator
                      05786 
                      05787 bptz2:
                      05788 
                      05789  
                      05790  btfss factor1,0
                      05791  goto nyyu11
                      05792 
                      05793  
                      05794  
                      05795  movfw factor2
                      05796  addwf make_mout,f
                      05797 
                      05798  
                      05799  btfsc STATUS,C
                      05800  incf hi_byte,f
                      05801 
                      05802 
                      05803 nyyu11:
                      05804  
                      05805  
                      05806  bcf STATUS,C
                      05807  rrf factor1,f
                      05808  
                      05809  
                      05810  
                      05811  bcf STATUS,C
                      05812  rrf hi_byte,f
                      05813 
                      05814  
                      05815  
                      05816  
                      05817  
                      05818  
                      05819  rrf make_mout,f
                      05820 
                      05821 
                      05822  
                      05823  
                      05824  
                      05825  
                      05826  
                      05827  
                      05828  
                      05829  
                      05830  
MPASM  5.37                        TARGET.ASM   3-21-2012  18:31:13         PAGE 126


LOC  OBJECT CODE     LINE SOURCE TEXT
  VALUE

                      05831  
                      05832  
                      05833  
                      05834  btfsc STATUS,C
                      05835  bsf factor1,7 
                      05836 
                      05837 
                      05838  incf iterator,f
                      05839 
                      05840 
                      05841  movlw .8
                      05842  xorwf iterator,w
                      05843  btfss STATUS,Z
                      05844  goto bptz2
                      05845 
                      05846  
                      05847  movfw factor1 
                      05848  PUSH
                      05849 
                      05850  
                      05851  banksel make_mout
                      05852  movfw make_mout
                      05853  PUSH
                      05854 
                      05855  goto bmul16 
                      05856 
                      05857 
                      05858 
                      05859 
                      05860 
                      05861 #undefine savelsb
                      05862 
                      05863 
                      05864 #undefine iterator
                      05865 
                      05866 
                      05867 #undefine hi_byte
                      05868 
                      05869 
                      05870 #undefine make_mout
                      05871 
                      05872 
                      05873 #undefine factor2
                      05874 
                      05875 
                      05876 #undefine factor1
                      05877 
                      05878 
                      05879 #undefine mulhi
                      05880 
                      05881 
                      05882 #undefine mout
                      05883 
MPASM  5.37                        TARGET.ASM   3-21-2012  18:31:13         PAGE 127


LOC  OBJECT CODE     LINE SOURCE TEXT
  VALUE

                      05884 
                      05885 #undefine util
                      05886 
                      05887 
                      05888 #undefine neg
                      05889 
                      05890 
                      05891 #undefine ein2
                      05892 
                      05893 
                      05894 #undefine min2
                      05895 
                      05896 
                      05897 #undefine ein
                      05898 
                      05899 
                      05900 #undefine min
                      05901 
                      05902 
                      05903 #define savelsb sfploc00+1
                      05904 
                      05905 
                      05906 #define iterator sfploc01+1
                      05907 
                      05908 
                      05909 #define hi_byte sfploc02+1
                      05910 
                      05911 
                      05912 #define make_mout sfploc03+1
                      05913 
                      05914 
                      05915 #define factor2 sfploc04+1
                      05916 
                      05917 
                      05918 #define factor1 sfploc05+1
                      05919 
                      05920 
                      05921 #define mulhi sfploc06+1
                      05922 
                      05923 
                      05924 #define mout sfploc07+1
                      05925 
                      05926 
                      05927 #define util sfploc08+1
                      05928 
                      05929 
                      05930 #define neg sfploc09+1
                      05931 
                      05932 
                      05933 #define ein2 sfploc10+1
                      05934 
                      05935 
                      05936 #define min2 sfploc11+1
MPASM  5.37                        TARGET.ASM   3-21-2012  18:31:13         PAGE 128


LOC  OBJECT CODE     LINE SOURCE TEXT
  VALUE

                      05937 
                      05938 
                      05939 #define ein sfploc12+1
                      05940 
                      05941 
                      05942 #define min sfploc13+1
                      05943 
                      05944 
                      05945 mulf0:
                      05946 #endif
                      05947 #endif
                      05948 
                      05949 
                      05950  
                      05951  POP
0000   0013               M  moviw INDF0-- ; preserve the safety of this code under interruptible conditions. 
                      05952 
                      05953  
0001   002?           05954  banksel ein2
0002   00??           05955  movwf ein2 
0003   3A80           05956  xorlw .128 
0004   1D03           05957  btfss STATUS,Z
0005   2???           05958  goto hllGDAAA
0006   307F           05959  movlw .127     
                      05960  
0007   0500           05961  andwf HLINDF,w 
                      05962  
0008   1903           05963  btfsc STATUS,Z
0009   2???           05964  goto hllODAAA
                      05965  
000A                  05966 hllGDAAA: 
                      05967 
                      05968  
                      05969  
000A   01??           05970  clrf neg 
                      05971  
                      05972  
                      05973  
                      05974  POP
000B   0013               M  moviw INDF0-- ; preserve the safety of this code under interruptible conditions. 
                      05975 
                      05976  
000C   002?           05977  banksel min2
000D   00??           05978  movwf min2 
000E   1B80           05979  btfsc min2,7
000F   1480           05980  bsf neg,1      
                      05981 
                      05982  
0010   1380           05983  bcf min2,7 
                      05984 
                      05985  POP
0011   0013               M  moviw INDF0-- ; preserve the safety of this code under interruptible conditions. 
                      05986 
MPASM  5.37                        TARGET.ASM   3-21-2012  18:31:13         PAGE 129


LOC  OBJECT CODE     LINE SOURCE TEXT
  VALUE

0012   002?           05987  banksel ein
0013   00??           05988  movwf ein
0014   3A80           05989  xorlw .128 
0015   1D03           05990  btfss STATUS,Z
0016   2???           05991  goto hllHDAAA
0017   307F           05992  movlw .127
                      05993 
0018   0500           05994  andwf HLINDF,w 
0019   1903           05995  btfsc STATUS,Z
001A   2???           05996  goto hllPDAAA
001B                  05997 hllHDAAA:
                      05998 
                      05999  POP
001B   0013               M  moviw INDF0-- ; preserve the safety of this code under interruptible conditions. 
                      06000 
                      06001  
001C   002?           06002  banksel min
001D   00??           06003  movwf min 
001E   1B80           06004  btfsc min,7
001F   1400           06005  bsf neg,0
                      06006 
                      06007  
0020   1380           06008  bcf min,7 
                      06009  
                      06010  
                      06011  
0021   08??           06012  movfw ein 
                      06013 
                      06014  
0022   00??           06015  movwf util 
                      06016 
                      06017  
0023   08??           06018  movfw ein2 
                      06019 
                      06020  
0024   07??           06021  addwf util,f 
                      06022  
                      06023  
0025   08??           06024  movfw min 
                      06025 
                      06026  
0026   3E80           06027  addlw .128 
                      06028 
                      06029  
                      06030  PUSH
0027   0018               M  movwi ++INDF0
0028   002?           06031  banksel min2
0029   08??           06032  movfw min2 
002A   3E80           06033  addlw .128 
                      06034 
                      06035  PUSH
002B   0018               M  movwi ++INDF0
002C   2???           06036  goto hllRDAAA 
MPASM  5.37                        TARGET.ASM   3-21-2012  18:31:13         PAGE 130


LOC  OBJECT CODE     LINE SOURCE TEXT
  VALUE

                      06037 
002D                  06038 hllIDAAA:
                      06039 
                      06040  
                      06041  POP
002D   0013               M  moviw INDF0-- ; preserve the safety of this code under interruptible conditions. 
                      06042 
                      06043 
002E   002?           06044  banksel mout
002F   00??           06045  movwf mout 
                      06046 
                      06047  
0030   1F80           06048  btfss mout,7 
0031   2???           06049  goto hllJDAAA 
                      06050 
                      06051  
                      06052  POP
0032   0013               M  moviw INDF0-- ; preserve the safety of this code under interruptible conditions. 
                      06053 
                      06054  
0033   002?           06055  banksel util
0034   0A??           06056  incf util,f 
                      06057 
                      06058 
                      06059  
0035   3980           06060  andlw .128 
0036   1D03           06061  btfss STATUS,Z
0037   0A??           06062  incf mout,f
                      06063 
0038   2???           06064  goto hllKDAAA 
                      06065 
                      06066 
0039                  06067 hllJDAAA: 
                      06068 
                      06069  
                      06070  
                      06071  
                      06072  
                      06073  
                      06074 
                      06075  
0039   1003           06076  bcf STATUS,C 
                      06077 
                      06078  
                      06079  POP
003A   0013               M  moviw INDF0-- ; preserve the safety of this code under interruptible conditions. 
                      06080 
003B   002?           06081  banksel savelsb
003C   00??           06082  movwf savelsb
                      06083  
                      06084  
003D   3980           06085  andlw .128 
003E   1D03           06086  btfss STATUS,Z 
MPASM  5.37                        TARGET.ASM   3-21-2012  18:31:13         PAGE 131


LOC  OBJECT CODE     LINE SOURCE TEXT
  VALUE

003F   1403           06087  bsf STATUS,C 
                      06088 
                      06089  
                      06090  
0040   002?           06091  banksel mout
0041   0D??           06092  rlf mout,f 
                      06093 
                      06094  
                      06095  
                      06096  
0042   08??           06097  movf savelsb,w
                      06098 
0043   002?           06099  banksel mout
0044   3940           06100  andlw .64
0045   1D03           06101  btfss STATUS,Z
0046   0A??           06102  incf mout,f
                      06103  
                      06104 
                      06105 
0047                  06106 hllKDAAA: 
                      06107 
                      06108  
0047   08??           06109  movfw mout 
                      06110 
                      06111  
0048   3E80           06112  addlw -.128 
                      06113 
                      06114  
0049   00??           06115  movwf mout 
                      06116 
                      06117  
004A   1800           06118  btfsc neg,0
004B   2???           06119  goto hllLDAAA 
004C   1C80           06120  btfss neg,1
004D   2???           06121  goto hllNDAAA 
004E   2???           06122  goto hllMDAAA 
004F                  06123 hllLDAAA: 
004F   1880           06124  btfsc neg,1
0050   2???           06125  goto hllNDAAA 
                      06126 
0051                  06127 hllMDAAA: 
                      06128 
                      06129  
0051   08??           06130  movfw mout 
                      06131 
                      06132  
0052   3880           06133  iorlw .128 
                      06134 
                      06135  
0053   00??           06136  movwf mout 
                      06137 
                      06138 
0054                  06139 hllNDAAA: 
MPASM  5.37                        TARGET.ASM   3-21-2012  18:31:13         PAGE 132


LOC  OBJECT CODE     LINE SOURCE TEXT
  VALUE

                      06140 
                      06141  
0054   08??           06142  movfw mout 
                      06143 
                      06144  
                      06145  PUSH
0055   0018               M  movwi ++INDF0
                      06146 
                      06147  
0056   002?           06148  banksel util
0057   08??           06149  movfw util 
                      06150  PUSH
0058   0018               M  movwi ++INDF0
                      06151  
0059   2???           06152  goto hllQDAAA 
                      06153 
005A                  06154 hllODAAA: 
                      06155 
                      06156  POP
005A   0013               M  moviw INDF0-- ; preserve the safety of this code under interruptible conditions. 
                      06157  POP
005B   0013               M  moviw INDF0-- ; preserve the safety of this code under interruptible conditions. 
                      06158 
                      06159 
005C                  06160 hllPDAAA:
                      06161  POP
005C   0013               M  moviw INDF0-- ; preserve the safety of this code under interruptible conditions. 
                      06162 
                      06163  
005D   3080           06164  movlw .128
                      06165  PUSH
005E   0018               M  movwi ++INDF0
                      06166  PUSH
005F   0018               M  movwi ++INDF0
                      06167 
                      06168  
                      06169  
0060                  06170 hllQDAAA:
                      06171  
0060   0008           06172  return
                      06173  
                      06174  
                      06175  
                      06176  
0061                  06177 hllRDAAA: 
                      06178 
                      06179  POP
0061   0013               M  moviw INDF0-- ; preserve the safety of this code under interruptible conditions. 
0062   002?           06180  banksel factor1
0063   00??           06181  movwf factor1
                      06182 
                      06183  POP
0064   0013               M  moviw INDF0-- ; preserve the safety of this code under interruptible conditions. 
MPASM  5.37                        TARGET.ASM   3-21-2012  18:31:13         PAGE 133


LOC  OBJECT CODE     LINE SOURCE TEXT
  VALUE

0065   002?           06184  banksel factor2
0066   00??           06185  movwf factor2
                      06186 
                      06187 
                      06188  
0067   01??           06189  clrf hi_byte
                      06190  
0068   01??           06191  clrf make_mout
                      06192  
0069   01??           06193  clrf iterator
                      06194 
006A                  06195 hllSDAAA:
                      06196 
                      06197  
006A   1C00           06198  btfss factor1,0
006B   2???           06199  goto hllTDAAA
                      06200 
                      06201  
                      06202  
006C   08??           06203  movfw factor2
006D   07??           06204  addwf make_mout,f
                      06205 
                      06206  
006E   1803           06207  btfsc STATUS,C
006F   0A??           06208  incf hi_byte,f
                      06209 
                      06210 
0070                  06211 hllTDAAA:
                      06212  
                      06213  
0070   1003           06214  bcf STATUS,C
0071   0C??           06215  rrf factor1,f
                      06216  
                      06217  
                      06218  
0072   1003           06219  bcf STATUS,C
0073   0C??           06220  rrf hi_byte,f
                      06221 
                      06222  
                      06223  
                      06224  
                      06225  
                      06226  
0074   0C??           06227  rrf make_mout,f
                      06228 
                      06229 
                      06230  
                      06231  
                      06232  
                      06233  
                      06234  
                      06235  
                      06236  
MPASM  5.37                        TARGET.ASM   3-21-2012  18:31:13         PAGE 134


LOC  OBJECT CODE     LINE SOURCE TEXT
  VALUE

                      06237  
                      06238  
                      06239  
                      06240  
                      06241  
0075   1803           06242  btfsc STATUS,C
0076   1780           06243  bsf factor1,7 
                      06244 
                      06245 
0077   0A??           06246  incf iterator,f
                      06247 
                      06248 
0078   3008           06249  movlw .8
0079   06??           06250  xorwf iterator,w
007A   1D03           06251  btfss STATUS,Z
007B   2???           06252  goto hllSDAAA
                      06253 
                      06254  
007C   08??           06255  movfw factor1 
                      06256  PUSH
007D   0018               M  movwi ++INDF0
                      06257 
                      06258  
007E   002?           06259  banksel make_mout
007F   08??           06260  movfw make_mout
                      06261  PUSH
0080   0018               M  movwi ++INDF0
                      06262 
0081   2???           06263  goto hllIDAAA 
                      06264 
                      06265 
                      06266 
                      06267 
                      06268 
                      06269 #undefine savelsb
                      06270 
                      06271 
                      06272 #undefine iterator
                      06273 
                      06274 
                      06275 #undefine hi_byte
                      06276 
                      06277 
                      06278 #undefine make_mout
                      06279 
                      06280 
                      06281 #undefine factor2
                      06282 
                      06283 
                      06284 #undefine factor1
                      06285 
                      06286 
                      06287 #undefine mulhi
MPASM  5.37                        TARGET.ASM   3-21-2012  18:31:13         PAGE 135


LOC  OBJECT CODE     LINE SOURCE TEXT
  VALUE

                      06288 
                      06289 
                      06290 #undefine mout
                      06291 
                      06292 
                      06293 #undefine util
                      06294 
                      06295 
                      06296 #undefine neg
                      06297 
                      06298 
                      06299 #undefine ein2
                      06300 
                      06301 
                      06302 #undefine min2
                      06303 
                      06304 
                      06305 #undefine ein
                      06306 
                      06307 
                      06308 #undefine min
                      06309 
                      06310 
                      06311 
                      06312 
                      06313 
                      06314 
                      06315 
                      06316  
                      06317 
                      06318 
                      06319 
                      06320 sfp_uto CODE 
                      06321 
                      06322 
                      06323 
                      06324 #define arg1 sfploc00
                      06325 
                      06326 
0000                  06327 utof:  
                      06328 #ifdef HLLMULTITASK
                      06329 #ifdef HLLGUARDsfploc 
                      06330  movf in_isr,f  
                      06331  btfsc STATUS,Z
                      06332  
                      06333 
                      06334 
                      06335  goto utof0
                      06336 
                      06337  
                      06338  POP
                      06339  banksel arg1 
                      06340  movwf arg1
MPASM  5.37                        TARGET.ASM   3-21-2012  18:31:13         PAGE 136


LOC  OBJECT CODE     LINE SOURCE TEXT
  VALUE

                      06341 
                      06342  btfss arg1,7
                      06343  goto mbww0 
                      06344  
                      06345  
                      06346  
                      06347 
                      06348  bcf arg1,7 
                      06349  movfw arg1 
                      06350  
                      06351  PUSH
                      06352 
                      06353 
                      06354  movlw .7
                      06355  PUSH
                      06356  
                      06357  goto ret101
                      06358 
                      06359 mbww0: 
                      06360  btfss arg1,6
                      06361  goto mbww1 
                      06362 
                      06363 
                      06364  
                      06365  
                      06366 
                      06367  
                      06368  
                      06369  
                      06370 
                      06371  banksel arg1
                      06372  bcf arg1,6 
                      06373  bcf STATUS,C 
                      06374  rlf arg1,f
                      06375  movfw arg1
                      06376  PUSH
                      06377 
                      06378  movlw .6
                      06379  PUSH
                      06380  
                      06381  goto ret101
                      06382 mbww1: 
                      06383 
                      06384  btfss arg1,5
                      06385  goto mbww2
                      06386 
                      06387  banksel arg1
                      06388  bcf arg1,5 
                      06389  bcf STATUS,C 
                      06390  rlf arg1,f
                      06391  rlf arg1,f
                      06392  movfw arg1
                      06393  PUSH
MPASM  5.37                        TARGET.ASM   3-21-2012  18:31:13         PAGE 137


LOC  OBJECT CODE     LINE SOURCE TEXT
  VALUE

                      06394 
                      06395  movlw .5
                      06396  PUSH
                      06397  
                      06398  goto ret101
                      06399 mbww2: 
                      06400 
                      06401  btfss arg1,4
                      06402  goto mbww3
                      06403 
                      06404 
                      06405  banksel arg1
                      06406  bcf arg1,4 
                      06407  bcf STATUS,C 
                      06408  rlf arg1,f
                      06409  rlf arg1,f
                      06410  rlf arg1,f
                      06411  movfw arg1
                      06412  PUSH
                      06413 
                      06414  movlw .4
                      06415  PUSH
                      06416  
                      06417  goto ret101
                      06418 mbww3: 
                      06419 
                      06420  btfss arg1,3
                      06421  goto mbww4
                      06422 
                      06423  banksel arg1
                      06424  bcf arg1,3 
                      06425  bcf STATUS,C 
                      06426  rlf arg1,f
                      06427  rlf arg1,f
                      06428  rlf arg1,f
                      06429  rlf arg1,f
                      06430  movfw arg1
                      06431  PUSH
                      06432 
                      06433  movlw .3
                      06434  PUSH
                      06435  
                      06436  goto ret101
                      06437 
                      06438 mbww4: 
                      06439 
                      06440  btfss arg1,2
                      06441  goto mbww5
                      06442 
                      06443 
                      06444  banksel arg1
                      06445  bcf arg1,2 
                      06446  bcf STATUS,C 
MPASM  5.37                        TARGET.ASM   3-21-2012  18:31:13         PAGE 138


LOC  OBJECT CODE     LINE SOURCE TEXT
  VALUE

                      06447  rlf arg1,f
                      06448  rlf arg1,f
                      06449  rlf arg1,f
                      06450  rlf arg1,f
                      06451  rlf arg1,f
                      06452  movfw arg1
                      06453  PUSH
                      06454 
                      06455 
                      06456  movlw .2
                      06457  PUSH
                      06458  
                      06459  goto ret101
                      06460 
                      06461 mbww5: 
                      06462 
                      06463  btfss arg1,1
                      06464  goto mbww6
                      06465 
                      06466  banksel arg1
                      06467  bcf arg1,1 
                      06468  bcf STATUS,C 
                      06469  rlf arg1,f
                      06470  rlf arg1,f
                      06471  rlf arg1,f
                      06472  rlf arg1,f
                      06473  rlf arg1,f
                      06474  rlf arg1,f
                      06475  movfw arg1
                      06476  PUSH
                      06477 
                      06478  movlw .1
                      06479  PUSH
                      06480 
                      06481  goto ret101
                      06482 mbww6: 
                      06483  btfss arg1,0
                      06484  goto tis00
                      06485  movlw .0
                      06486  PUSH
                      06487 
                      06488  movlw .0
                      06489  PUSH
                      06490  
                      06491  goto ret101
                      06492 tis00:
                      06493  movlw .0
                      06494  PUSH
                      06495 
                      06496  movlw -.128
                      06497  PUSH
                      06498  
                      06499 ret101:
MPASM  5.37                        TARGET.ASM   3-21-2012  18:31:13         PAGE 139


LOC  OBJECT CODE     LINE SOURCE TEXT
  VALUE

                      06500  
                      06501  return
                      06502 
                      06503 
                      06504 
                      06505 
                      06506 #undefine arg1
                      06507 
                      06508 
                      06509 #define arg1 sfploc00+1
                      06510 
                      06511 
                      06512 utof0:
                      06513 #endif
                      06514 #endif
                      06515 
                      06516  
                      06517  POP
0000   0013               M  moviw INDF0-- ; preserve the safety of this code under interruptible conditions. 
0001   002?           06518  banksel arg1 
0002   00??           06519  movwf arg1
                      06520 
0003   1F80           06521  btfss arg1,7
0004   2???           06522  goto hllWDAAA 
                      06523  
                      06524  
                      06525  
                      06526 
0005   1380           06527  bcf arg1,7 
0006   08??           06528  movfw arg1 
                      06529  
                      06530  PUSH
0007   0018               M  movwi ++INDF0
                      06531 
                      06532 
0008   3007           06533  movlw .7
                      06534  PUSH
0009   0018               M  movwi ++INDF0
                      06535  
000A   2???           06536  goto hllEEAAA
                      06537 
000B                  06538 hllWDAAA: 
000B   1F00           06539  btfss arg1,6
000C   2???           06540  goto hllXDAAA 
                      06541 
                      06542 
                      06543  
                      06544  
                      06545 
                      06546  
                      06547  
                      06548  
                      06549 
MPASM  5.37                        TARGET.ASM   3-21-2012  18:31:13         PAGE 140


LOC  OBJECT CODE     LINE SOURCE TEXT
  VALUE

000D   002?           06550  banksel arg1
000E   1300           06551  bcf arg1,6 
000F   1003           06552  bcf STATUS,C 
0010   0D??           06553  rlf arg1,f
0011   08??           06554  movfw arg1
                      06555  PUSH
0012   0018               M  movwi ++INDF0
                      06556 
0013   3006           06557  movlw .6
                      06558  PUSH
0014   0018               M  movwi ++INDF0
                      06559  
0015   2???           06560  goto hllEEAAA
0016                  06561 hllXDAAA: 
                      06562 
0016   1E80           06563  btfss arg1,5
0017   2???           06564  goto hllYDAAA
                      06565 
0018   002?           06566  banksel arg1
0019   1280           06567  bcf arg1,5 
001A   1003           06568  bcf STATUS,C 
001B   0D??           06569  rlf arg1,f
001C   0D??           06570  rlf arg1,f
001D   08??           06571  movfw arg1
                      06572  PUSH
001E   0018               M  movwi ++INDF0
                      06573 
001F   3005           06574  movlw .5
                      06575  PUSH
0020   0018               M  movwi ++INDF0
                      06576  
0021   2???           06577  goto hllEEAAA
0022                  06578 hllYDAAA: 
                      06579 
0022   1E00           06580  btfss arg1,4
0023   2???           06581  goto hllZDAAA
                      06582 
                      06583 
0024   002?           06584  banksel arg1
0025   1200           06585  bcf arg1,4 
0026   1003           06586  bcf STATUS,C 
0027   0D??           06587  rlf arg1,f
0028   0D??           06588  rlf arg1,f
0029   0D??           06589  rlf arg1,f
002A   08??           06590  movfw arg1
                      06591  PUSH
002B   0018               M  movwi ++INDF0
                      06592 
002C   3004           06593  movlw .4
                      06594  PUSH
002D   0018               M  movwi ++INDF0
                      06595  
002E   2???           06596  goto hllEEAAA
MPASM  5.37                        TARGET.ASM   3-21-2012  18:31:13         PAGE 141


LOC  OBJECT CODE     LINE SOURCE TEXT
  VALUE

002F                  06597 hllZDAAA: 
                      06598 
002F   1D80           06599  btfss arg1,3
0030   2???           06600  goto hllAEAAA
                      06601 
0031   002?           06602  banksel arg1
0032   1180           06603  bcf arg1,3 
0033   1003           06604  bcf STATUS,C 
0034   0D??           06605  rlf arg1,f
0035   0D??           06606  rlf arg1,f
0036   0D??           06607  rlf arg1,f
0037   0D??           06608  rlf arg1,f
0038   08??           06609  movfw arg1
                      06610  PUSH
0039   0018               M  movwi ++INDF0
                      06611 
003A   3003           06612  movlw .3
                      06613  PUSH
003B   0018               M  movwi ++INDF0
                      06614  
003C   2???           06615  goto hllEEAAA
                      06616 
003D                  06617 hllAEAAA: 
                      06618 
003D   1D00           06619  btfss arg1,2
003E   2???           06620  goto hllBEAAA
                      06621 
                      06622 
003F   002?           06623  banksel arg1
0040   1100           06624  bcf arg1,2 
0041   1003           06625  bcf STATUS,C 
0042   0D??           06626  rlf arg1,f
0043   0D??           06627  rlf arg1,f
0044   0D??           06628  rlf arg1,f
0045   0D??           06629  rlf arg1,f
0046   0D??           06630  rlf arg1,f
0047   08??           06631  movfw arg1
                      06632  PUSH
0048   0018               M  movwi ++INDF0
                      06633 
                      06634 
0049   3002           06635  movlw .2
                      06636  PUSH
004A   0018               M  movwi ++INDF0
                      06637  
004B   2???           06638  goto hllEEAAA
                      06639 
004C                  06640 hllBEAAA: 
                      06641 
004C   1C80           06642  btfss arg1,1
004D   2???           06643  goto hllCEAAA
                      06644 
004E   002?           06645  banksel arg1
MPASM  5.37                        TARGET.ASM   3-21-2012  18:31:13         PAGE 142


LOC  OBJECT CODE     LINE SOURCE TEXT
  VALUE

004F   1080           06646  bcf arg1,1 
0050   1003           06647  bcf STATUS,C 
0051   0D??           06648  rlf arg1,f
0052   0D??           06649  rlf arg1,f
0053   0D??           06650  rlf arg1,f
0054   0D??           06651  rlf arg1,f
0055   0D??           06652  rlf arg1,f
0056   0D??           06653  rlf arg1,f
0057   08??           06654  movfw arg1
                      06655  PUSH
0058   0018               M  movwi ++INDF0
                      06656 
0059   3001           06657  movlw .1
                      06658  PUSH
005A   0018               M  movwi ++INDF0
                      06659 
005B   2???           06660  goto hllEEAAA
005C                  06661 hllCEAAA: 
005C   1C00           06662  btfss arg1,0
005D   2???           06663  goto hllDEAAA
005E   3000           06664  movlw .0
                      06665  PUSH
005F   0018               M  movwi ++INDF0
                      06666 
0060   3000           06667  movlw .0
                      06668  PUSH
0061   0018               M  movwi ++INDF0
                      06669  
0062   2???           06670  goto hllEEAAA
0063                  06671 hllDEAAA:
0063   3000           06672  movlw .0
                      06673  PUSH
0064   0018               M  movwi ++INDF0
                      06674 
0065   3080           06675  movlw -.128
                      06676  PUSH
0066   0018               M  movwi ++INDF0
                      06677  
0067                  06678 hllEEAAA:
                      06679  
0067   0008           06680  return
                      06681 
                      06682 
                      06683 
                      06684 
                      06685 #undefine arg1
                      06686 
C9A4 FFFF             06687  end
MPASM  5.37                        TARGET.ASM   3-21-2012  18:31:13         PAGE 143


SYMBOL TABLE
  LABEL                             VALUE 

ABDEN                             00000000
ABDOVF                            00000007
ACKDT                             00000005
ACKEN                             00000004
ACKSTAT                           00000006
ACKTIM                            00000007
ADCON0                            0000009D
ADCON1                            0000009E
ADCS0                             00000004
ADCS1                             00000005
ADCS2                             00000006
ADDEN                             00000003
ADFM                              00000007
ADFVR0                            00000000
ADFVR1                            00000001
ADGO                              00000001
ADIE                              00000006
ADIF                              00000006
ADNREF                            00000002
ADON                              00000000
ADPREF0                           00000000
ADPREF1                           00000001
ADRES                             0000009B
ADRESH                            0000009C
ADRESL                            0000009B
AHEN                              00000001
ALT_Save                          00000007
ANSA0                             00000000
ANSA1                             00000001
ANSA2                             00000002
ANSA3                             00000003
ANSA4                             00000004
ANSB1                             00000001
ANSB2                             00000002
ANSB3                             00000003
ANSB4                             00000004
ANSB5                             00000005
ANSB6                             00000006
ANSB7                             00000007
ANSELA                            0000018C
ANSELB                            0000018D
APFCON0                           0000011D
APFCON1                           0000011E
BAUDCON                           0000019F
BCL1IE                            00000003
BCL1IF                            00000003
BCL2IE                            00000001
BCL2IF                            00000001
BF                                00000000
BOEN                              00000004
BORCON                            00000116
BORRDY                            00000000
BRG16                             00000003
MPASM  5.37                        TARGET.ASM   3-21-2012  18:31:13         PAGE 144


SYMBOL TABLE
  LABEL                             VALUE 

BRGH                              00000002
BSR                               00000008
BSR0                              00000000
BSR1                              00000001
BSR2                              00000002
BSR3                              00000003
BSR4                              00000004
BSR_SHAD                          00000FE6
C                                 00000000
C1HYS                             00000001
C1IE                              00000005
C1IF                              00000005
C1INTN                            00000006
C1INTP                            00000007
C1NCH0                            00000000
C1NCH1                            00000001
C1OE                              00000005
C1ON                              00000007
C1OUT                             00000006
C1PCH0                            00000004
C1PCH1                            00000005
C1POL                             00000004
C1SP                              00000002
C1SYNC                            00000000
C1TSEL0                           00000000
C1TSEL1                           00000001
C2HYS                             00000001
C2IE                              00000006
C2IF                              00000006
C2INTN                            00000006
C2INTP                            00000007
C2NCH0                            00000000
C2NCH1                            00000001
C2OE                              00000005
C2ON                              00000007
C2OUT                             00000006
C2PCH0                            00000004
C2PCH1                            00000005
C2POL                             00000004
C2SP                              00000002
C2SYNC                            00000000
C2TSEL0                           00000002
C2TSEL1                           00000003
C3TSEL0                           00000004
C3TSEL1                           00000005
C4TSEL0                           00000006
C4TSEL1                           00000007
CCP1AS                            00000295
CCP1AS0                           00000004
CCP1AS1                           00000005
CCP1AS2                           00000006
CCP1ASE                           00000007
CCP1CON                           00000293
MPASM  5.37                        TARGET.ASM   3-21-2012  18:31:13         PAGE 145


SYMBOL TABLE
  LABEL                             VALUE 

CCP1IE                            00000002
CCP1IF                            00000002
CCP1M0                            00000000
CCP1M1                            00000001
CCP1M2                            00000002
CCP1M3                            00000003
CCP1SEL                           00000000
CCP2AS                            0000029C
CCP2AS0                           00000004
CCP2AS1                           00000005
CCP2AS2                           00000006
CCP2ASE                           00000007
CCP2CON                           0000029A
CCP2IE                            00000000
CCP2IF                            00000000
CCP2M0                            00000000
CCP2M1                            00000001
CCP2M2                            00000002
CCP2M3                            00000003
CCP2SEL                           00000003
CCP3CON                           00000313
CCP3IE                            00000004
CCP3IF                            00000004
CCP3M0                            00000000
CCP3M1                            00000001
CCP3M2                            00000002
CCP3M3                            00000003
CCP4CON                           0000031A
CCP4IE                            00000005
CCP4IF                            00000005
CCP4M0                            00000000
CCP4M1                            00000001
CCP4M2                            00000002
CCP4M3                            00000003
CCPR1H                            00000292
CCPR1L                            00000291
CCPR2H                            00000299
CCPR2L                            00000298
CCPR3H                            00000312
CCPR3L                            00000311
CCPR4H                            00000319
CCPR4L                            00000318
CCPTMRS                           0000029E
CCPTMRS0                          0000029E
CDAFVR0                           00000002
CDAFVR1                           00000003
CFGS                              00000006
CHS0                              00000002
CHS1                              00000003
CHS2                              00000004
CHS3                              00000005
CHS4                              00000006
CKE                               00000006
MPASM  5.37                        TARGET.ASM   3-21-2012  18:31:13         PAGE 146


SYMBOL TABLE
  LABEL                             VALUE 

CKP                               00000004
CLKRCON                           0000039A
CLKRDC0                           00000003
CLKRDC1                           00000004
CLKRDIV0                          00000000
CLKRDIV1                          00000001
CLKRDIV2                          00000002
CLKREN                            00000007
CLKROE                            00000006
CLKRSLR                           00000005
CM1CON0                           00000111
CM1CON1                           00000112
CM2CON0                           00000113
CM2CON1                           00000114
CMOUT                             00000115
COPY                              
CPSCH0                            00000000
CPSCH1                            00000001
CPSCH2                            00000002
CPSCH3                            00000003
CPSCON0                           0000001E
CPSCON1                           0000001F
CPSON                             00000007
CPSOUT                            00000001
CPSRNG0                           00000002
CPSRNG1                           00000003
CREN                              00000004
CSRC                              00000007
C_SHAD                            00000000
DACCON0                           00000118
DACCON1                           00000119
DACEN                             00000007
DACLPS                            00000006
DACNSS                            00000000
DACOE                             00000005
DACPSS0                           00000002
DACPSS1                           00000003
DACR0                             00000000
DACR1                             00000001
DACR2                             00000002
DACR3                             00000003
DACR4                             00000004
DC                                00000001
DC1B0                             00000004
DC1B1                             00000005
DC2B0                             00000004
DC2B1                             00000005
DC3B0                             00000004
DC3B1                             00000005
DC4B0                             00000004
DC4B1                             00000005
DC_SHAD                           00000001
DHEN                              00000000
MPASM  5.37                        TARGET.ASM   3-21-2012  18:31:13         PAGE 147


SYMBOL TABLE
  LABEL                             VALUE 

DISCARD                           
D_NOT_A                           00000005
ECCP1AS                           00000295
ECCP2AS                           0000029C
EEADR                             00000191
EEADRH                            00000192
EEADRL                            00000191
EECON1                            00000195
EECON2                            00000196
EEDAT                             00000193
EEDATH                            00000194
EEDATL                            00000193
EEIE                              00000004
EEIF                              00000004
EEPGD                             00000007
F                                 00000001
FAR_CALL                          
FERR                              00000002
FREE                              00000004
FSR0                              00000004
FSR0H                             00000005
FSR0H_SHAD                        00000FE9
FSR0L                             00000004
FSR0L_SHAD                        00000FE8
FSR1                              00000006
FSR1H                             00000007
FSR1H_SHAD                        00000FEB
FSR1L                             00000006
FSR1L_SHAD                        00000FEA
FSR_Save                          00000006
FVRCON                            00000117
FVREN                             00000007
FVRRDY                            00000006
GCEN                              00000007
GIE                               00000007
GO                                00000001
GO_NOT_DONE                       00000001
HALF_FAR_CALL                     
HFIOFL                            00000003
HFIOFR                            00000004
HFIOFS                            00000000
HLFSR                             FSR0L
HLINDF                            INDF0
HLLGUARDhllblss                   
HLOE_STACK2_SIZE                  .80
HLOE_STACK_SIZE                   .80
HLTABLE                           
INDF0                             00000000
INDF1                             00000001
INTCON                            0000000B
INTE                              00000004
INTEDG                            00000006
INTF                              00000001
MPASM  5.37                        TARGET.ASM   3-21-2012  18:31:13         PAGE 148


SYMBOL TABLE
  LABEL                             VALUE 

IOCBF                             00000396
IOCBF0                            00000000
IOCBF1                            00000001
IOCBF2                            00000002
IOCBF3                            00000003
IOCBF4                            00000004
IOCBF5                            00000005
IOCBF6                            00000006
IOCBF7                            00000007
IOCBN                             00000395
IOCBN0                            00000000
IOCBN1                            00000001
IOCBN2                            00000002
IOCBN3                            00000003
IOCBN4                            00000004
IOCBN5                            00000005
IOCBN6                            00000006
IOCBN7                            00000007
IOCBP                             00000394
IOCBP0                            00000000
IOCBP1                            00000001
IOCBP2                            00000002
IOCBP3                            00000003
IOCBP4                            00000004
IOCBP5                            00000005
IOCBP6                            00000006
IOCBP7                            00000007
IOCIE                             00000003
IOCIF                             00000000
IRCF0                             00000003
IRCF1                             00000004
IRCF2                             00000005
IRCF3                             00000006
KDISCARD                          
KPOP                              
KPUSH                             
LATA                              0000010C
LATA0                             00000000
LATA1                             00000001
LATA2                             00000002
LATA3                             00000003
LATA4                             00000004
LATA6                             00000006
LATA7                             00000007
LATB                              0000010D
LATB0                             00000000
LATB1                             00000001
LATB2                             00000002
LATB3                             00000003
LATB4                             00000004
LATB5                             00000005
LATB6                             00000006
LATB7                             00000007
MPASM  5.37                        TARGET.ASM   3-21-2012  18:31:13         PAGE 149


SYMBOL TABLE
  LABEL                             VALUE 

LFIOFR                            00000001
LWLO                              00000005
MC1OUT                            00000000
MC2OUT                            00000001
MDBIT                             00000000
MDCARH                            0000039F
MDCARL                            0000039E
MDCH0                             00000000
MDCH1                             00000001
MDCH2                             00000002
MDCH3                             00000003
MDCHODIS                          00000007
MDCHPOL                           00000006
MDCHSYNC                          00000005
MDCL0                             00000000
MDCL1                             00000001
MDCL2                             00000002
MDCL3                             00000003
MDCLODIS                          00000007
MDCLPOL                           00000006
MDCLSYNC                          00000005
MDCON                             0000039C
MDEN                              00000007
MDMS0                             00000000
MDMS1                             00000001
MDMS2                             00000002
MDMS3                             00000003
MDMSODIS                          00000007
MDOE                              00000006
MDOPOL                            00000004
MDOUT                             00000003
MDSLR                             00000005
MDSRC                             0000039D
MFIOFR                            00000002
NOT_BOR                           00000000
NOT_PD                            00000003
NOT_POR                           00000001
NOT_RI                            00000002
NOT_RMCLR                         00000003
NOT_T1SYNC                        00000002
NOT_TO                            00000004
NOT_WPUEN                         00000007
OERR                              00000001
OPTION_REG                        00000095
OSCCON                            00000099
OSCCONH                           0000009A
OSCCONL                           00000099
OSCSTAT                           0000009A
OSCTUNE                           00000098
OSFIE                             00000007
OSFIF                             00000007
OSTS                              00000005
P                                 00000004
MPASM  5.37                        TARGET.ASM   3-21-2012  18:31:13         PAGE 150


SYMBOL TABLE
  LABEL                             VALUE 

P1CSEL                            00000001
P1DC0                             00000000
P1DC1                             00000001
P1DC2                             00000002
P1DC3                             00000003
P1DC4                             00000004
P1DC5                             00000005
P1DC6                             00000006
P1DSEL                            00000002
P1M0                              00000006
P1M1                              00000007
P1RSEN                            00000007
P2BSEL                            00000004
P2DC0                             00000000
P2DC1                             00000001
P2DC2                             00000002
P2DC3                             00000003
P2DC4                             00000004
P2DC5                             00000005
P2DC6                             00000006
P2M0                              00000006
P2M1                              00000007
P2RSEN                            00000007
PCIE                              00000006
PCL                               00000002
PCLATH                            0000000A
PCLATH_SHAD                       00000FE7
PCON                              00000096
PEIE                              00000006
PEN                               00000002
PIE1                              00000091
PIE2                              00000092
PIE3                              00000093
PIE4                              00000094
PIR1                              00000011
PIR2                              00000012
PIR3                              00000013
PIR4                              00000014
PLLR                              00000006
POP                               
PORTA                             0000000C
PORTB                             0000000D
PR2                               0000001B
PR4                               00000416
PR6                               0000041D
PREEMPT                           
PS0                               00000000
PS1                               00000001
PS2                               00000002
PSA                               00000003
PSS1AC0                           00000002
PSS1AC1                           00000003
PSS1BD0                           00000000
MPASM  5.37                        TARGET.ASM   3-21-2012  18:31:13         PAGE 151


SYMBOL TABLE
  LABEL                             VALUE 

PSS1BD1                           00000001
PSS2AC0                           00000002
PSS2AC1                           00000003
PSS2BD0                           00000000
PSS2BD1                           00000001
PSTR1CON                          00000296
PSTR2CON                          0000029D
PUSH                              
PWM1CON                           00000294
PWM2CON                           0000029B
RA0                               00000000
RA1                               00000001
RA2                               00000002
RA3                               00000003
RA4                               00000004
RA5                               00000005
RA6                               00000006
RA7                               00000007
RB0                               00000000
RB1                               00000001
RB2                               00000002
RB3                               00000003
RB4                               00000004
RB5                               00000005
RB6                               00000006
RB7                               00000007
RCEN                              00000003
RCIDL                             00000006
RCIE                              00000005
RCIF                              00000005
RCREG                             00000199
RCSTA                             0000019D
RD                                00000000
RESUME                            
RSEN                              00000001
RX9                               00000006
RX9D                              00000000
RXDTSEL                           00000007
R_NOT_W                           00000002
S                                 00000003
SBCDE                             00000002
SBOREN                            00000007
SCIE                              00000005
SCKP                              00000004
SCS0                              00000000
SCS1                              00000001
SDAHT                             00000003
SDO1SEL                           00000006
SEN                               00000000
SENDB                             00000003
SMP                               00000007
SPBRG                             0000019B
SPBRGH                            0000019C
MPASM  5.37                        TARGET.ASM   3-21-2012  18:31:13         PAGE 152


SYMBOL TABLE
  LABEL                             VALUE 

SPBRGL                            0000019B
SPEN                              00000007
SPLLEN                            00000007
SRCLK0                            00000004
SRCLK1                            00000005
SRCLK2                            00000006
SRCON0                            0000011A
SRCON1                            0000011B
SREN                              00000005
SRLEN                             00000007
SRNQEN                            00000002
SRPR                              00000000
SRPS                              00000001
SRQEN                             00000003
SRRC1E                            00000000
SRRC2E                            00000001
SRRCKE                            00000002
SRRPE                             00000003
SRSC1E                            00000004
SRSC2E                            00000005
SRSCKE                            00000006
SRSPE                             00000007
SS1SEL                            00000005
SSP1ADD                           00000212
SSP1BUF                           00000211
SSP1CON1                          00000215
SSP1CON2                          00000216
SSP1CON3                          00000217
SSP1IE                            00000003
SSP1IF                            00000003
SSP1MSK                           00000213
SSP1STAT                          00000214
SSP2ADD                           0000021A
SSP2BUF                           00000219
SSP2CON1                          0000021D
SSP2CON2                          0000021E
SSP2CON3                          0000021F
SSP2IE                            00000000
SSP2IF                            00000000
SSP2MSK                           0000021B
SSP2STAT                          0000021C
SSPADD                            00000212
SSPBUF                            00000211
SSPCON                            00000215
SSPCON1                           00000215
SSPCON2                           00000216
SSPCON3                           00000217
SSPEN                             00000005
SSPM0                             00000000
SSPM1                             00000001
SSPM2                             00000002
SSPM3                             00000003
SSPMSK                            00000213
MPASM  5.37                        TARGET.ASM   3-21-2012  18:31:13         PAGE 153


SYMBOL TABLE
  LABEL                             VALUE 

SSPOV                             00000006
SSPSTAT                           00000214
STATUS                            00000003
STATUS_SHAD                       00000FE4
STATUS_Save                       00000005
STKOVF                            00000007
STKPTR                            00000FED
STKUNF                            00000006
STR1A                             00000000
STR1B                             00000001
STR1C                             00000002
STR1D                             00000003
STR1SYNC                          00000004
STR2A                             00000000
STR2B                             00000001
STR2C                             00000002
STR2D                             00000003
STR2SYNC                          00000004
SWDTEN                            00000000
SYNC                              00000004
T0CS                              00000005
T0IE                              00000005
T0IF                              00000002
T0SE                              00000004
T0XCS                             00000000
T1CKPS0                           00000004
T1CKPS1                           00000005
T1CON                             00000018
T1GCON                            00000019
T1GGO                             00000003
T1GPOL                            00000006
T1GSPM                            00000004
T1GSS0                            00000000
T1GSS1                            00000001
T1GTM                             00000005
T1GVAL                            00000002
T1OSCEN                           00000003
T1OSCR                            00000007
T2CKPS0                           00000000
T2CKPS1                           00000001
T2CON                             0000001C
T2OUTPS0                          00000003
T2OUTPS1                          00000004
T2OUTPS2                          00000005
T2OUTPS3                          00000006
T4CKPS0                           00000000
T4CKPS1                           00000001
T4CON                             00000417
T4OUTPS0                          00000003
T4OUTPS1                          00000004
T4OUTPS2                          00000005
T4OUTPS3                          00000006
T6CKPS0                           00000000
MPASM  5.37                        TARGET.ASM   3-21-2012  18:31:13         PAGE 154


SYMBOL TABLE
  LABEL                             VALUE 

T6CKPS1                           00000001
T6CON                             0000041E
T6OUTPS0                          00000003
T6OUTPS1                          00000004
T6OUTPS2                          00000005
T6OUTPS3                          00000006
TMR0                              00000015
TMR0CS                            00000005
TMR0IE                            00000005
TMR0IF                            00000002
TMR0SE                            00000004
TMR1                              00000016
TMR1CS0                           00000006
TMR1CS1                           00000007
TMR1GE                            00000007
TMR1GIE                           00000007
TMR1GIF                           00000007
TMR1H                             00000017
TMR1IE                            00000000
TMR1IF                            00000000
TMR1L                             00000016
TMR1ON                            00000000
TMR2                              0000001A
TMR2IE                            00000001
TMR2IF                            00000001
TMR2ON                            00000002
TMR4                              00000415
TMR4IE                            00000001
TMR4IF                            00000001
TMR4ON                            00000002
TMR6                              0000041C
TMR6IE                            00000003
TMR6IF                            00000003
TMR6ON                            00000002
TOSH                              00000FEF
TOSL                              00000FEE
TRISA                             0000008C
TRISA0                            00000000
TRISA1                            00000001
TRISA2                            00000002
TRISA3                            00000003
TRISA4                            00000004
TRISA5                            00000005
TRISA6                            00000006
TRISA7                            00000007
TRISB                             0000008D
TRISB0                            00000000
TRISB1                            00000001
TRISB2                            00000002
TRISB3                            00000003
TRISB4                            00000004
TRISB5                            00000005
TRISB6                            00000006
MPASM  5.37                        TARGET.ASM   3-21-2012  18:31:13         PAGE 155


SYMBOL TABLE
  LABEL                             VALUE 

TRISB7                            00000007
TRMT                              00000001
TUN0                              00000000
TUN1                              00000001
TUN2                              00000002
TUN3                              00000003
TUN4                              00000004
TUN5                              00000005
TX9                               00000006
TX9D                              00000000
TXCKSEL                           00000000
TXEN                              00000005
TXIE                              00000004
TXIF                              00000004
TXREG                             0000019A
TXSTA                             0000019E
UA                                00000001
W                                 00000000
WCOL                              00000007
WDTCON                            00000097
WDTPS0                            00000001
WDTPS1                            00000002
WDTPS2                            00000003
WDTPS3                            00000004
WDTPS4                            00000005
WPUA                              0000020C
WPUA5                             00000005
WPUB                              0000020D
WPUB0                             00000000
WPUB1                             00000001
WPUB2                             00000002
WPUB3                             00000003
WPUB4                             00000004
WPUB5                             00000005
WPUB6                             00000006
WPUB7                             00000007
WR                                00000001
WREG                              00000009
WREG_SHAD                         00000FE5
WREN                              00000002
WRERR                             00000003
WUE                               00000001
W_Save                            00000004
Z                                 00000002
Z_SHAD                            00000002
_BOREN_NSLEEP                     0000FDFF
_BOREN_OFF                        0000F9FF
_BOREN_ON                         0000FFFF
_BOREN_SBODEN                     0000FBFF
_BORV_19                          0000FFFF
_BORV_25                          0000FBFF
_CLKOUTEN_OFF                     0000FFFF
_CLKOUTEN_ON                      0000F7FF
MPASM  5.37                        TARGET.ASM   3-21-2012  18:31:13         PAGE 156


SYMBOL TABLE
  LABEL                             VALUE 

_CONFIG1                          00008007
_CONFIG2                          00008008
_CPD_OFF                          0000FFFF
_CPD_ON                           0000FEFF
_CP_OFF                           0000FFFF
_CP_ON                            0000FF7F
_DEVID1                           00008006
_FCMEN_OFF                        0000DFFF
_FCMEN_ON                         0000FFFF
_FOSC_ECH                         0000FFFF
_FOSC_ECL                         0000FFFD
_FOSC_ECM                         0000FFFE
_FOSC_EXTRC                       0000FFFB
_FOSC_HS                          0000FFFA
_FOSC_INTOSC                      0000FFFC
_FOSC_LP                          0000FFF8
_FOSC_XT                          0000FFF9
_IDLOC0                           00008000
_IDLOC1                           00008001
_IDLOC2                           00008002
_IDLOC3                           00008003
_IESO_OFF                         0000EFFF
_IESO_ON                          0000FFFF
_LVP_OFF                          0000DFFF
_LVP_ON                           0000FFFF
_MCLRE_OFF                        0000FFBF
_MCLRE_ON                         0000FFFF
_PLLEN_OFF                        0000FEFF
_PLLEN_ON                         0000FFFF
_PWRTE_OFF                        0000FFFF
_PWRTE_ON                         0000FFDF
_STVREN_OFF                       0000FDFF
_STVREN_ON                        0000FFFF
_WDTE_NSLEEP                      0000FFF7
_WDTE_OFF                         0000FFE7
_WDTE_ON                          0000FFFF
_WDTE_SWDTEN                      0000FFEF
_WRT_ALL                          0000FFFC
_WRT_BOOT                         0000FFFE
_WRT_HALF                         0000FFFD
_WRT_OFF                          0000FFFF
__16F1827                         00000001
_hllkrna00_0007                   00000007
_hllkrna03_0005                   00000005
_hllkrna04_0009                   00000009
_hllkrna04_000B                   0000000B
_hllkrna05_0009                   00000009
_hllkrna05_000B                   0000000B
aart00                            00000000
aart01                            00000001
aart02                            00000002
aartpr00                          00000000
add                               00000000
MPASM  5.37                        TARGET.ASM   3-21-2012  18:31:13         PAGE 157


SYMBOL TABLE
  LABEL                             VALUE 

addf                              00000000
alt_fsr                           00000003
alt_stack                         00000000
andu                              00000000
clearbit                          00000000
cls                               00000000
dispose                           00000000
divf                              00000000
divu                              00000000
dmm445                            00000010
eq                                00000000
ftou                              00000000
getch                             00000000
geth2                             00000001
graphx                            00000000
hllAAAAA                          00000020
hllABAAA                          00000042
hllACAAA                          000000E9
hllADAAA                          00000027
hllAEAAA                          0000003D
hllBAAAA                          00000028
hllBBAAA                          0000004D
hllBCAAA                          000000F3
hllBDAAA                          0000002A
hllBEAAA                          0000004C
hllCAAAA                          00000031
hllCBAAA                          0000004F
hllCCAAA                          000000F5
hllCDAAA                          0000002D
hllCEAAA                          0000005C
hllDAAAA                          00000039
hllDBAAA                          0000005A
hllDCAAA                          000000FD
hllDDAAA                          00000030
hllDEAAA                          00000063
hllEAAAA                          0000000A
hllEBAAA                          0000005B
hllECAAA                          00000107
hllEDAAA                          00000033
hllEEAAA                          00000067
hllFAAAA                          00000010
hllFBAAA                          00000061
hllFCAAA                          00000024
hllFDAAA                          00000033
hllGAAAA                          00000017
hllGBAAA                          00000063
hllGCAAA                          00000032
hllGDAAA                          0000000A
hllHAAAA                          0000001E
hllHBAAA                          0000006A
hllHCAAA                          0000003E
hllHDAAA                          0000001B
hllIAAAA                          00000025
MPASM  5.37                        TARGET.ASM   3-21-2012  18:31:13         PAGE 158


SYMBOL TABLE
  LABEL                             VALUE 

hllIBAAA                          0000006D
hllICAAA                          00000059
hllIDAAA                          0000002D
hllJAAAA                          0000002C
hllJBAAA                          0000007A
hllJCAAA                          0000005B
hllJDAAA                          00000039
hllKAAAA                          00000033
hllKBAAA                          0000007E
hllKBAAAb                         000000AF
hllKCAAA                          0000005D
hllKDAAA                          00000047
hllLAAAA                          00000035
hllLBAAA                          00000087
hllLCAAA                          0000006B
hllLDAAA                          0000004F
hllMAAAA                          0000000A
hllMBAAA                          00000091
hllMCAAA                          00000076
hllMDAAA                          00000051
hllNAAAA                          00000010
hllNBAAA                          00000092
hllNCAAA                          00000078
hllNDAAA                          00000054
hllOAAAA                          00000017
hllOBAAA                          00000094
hllOCAAA                          0000007A
hllODAAA                          0000005A
hllPAAAA                          0000001E
hllPBAAA                          0000009B
hllPCAAA                          0000007B
hllPDAAA                          0000005C
hllQAAAA                          00000025
hllQBAAA                          0000009E
hllQCAAA                          0000007C
hllQDAAA                          00000060
hllRAAAA                          0000002C
hllRBAAA                          000000AB
hllRCAAA                          00000086
hllRDAAA                          00000061
hllSAAAA                          00000033
hllSCAAA                          0000008C
hllSDAAA                          0000006A
hllTAAAA                          00000035
hllTBAAA                          000000B8
hllTCAAA                          0000008E
hllTDAAA                          00000070
hllUAAAA                          00000018
hllUBAAA                          000000C2
hllUCAAA                          00000091
hllVAAAA                          0000001C
hllVBAAA                          000000C3
hllVCAAA                          00000008
MPASM  5.37                        TARGET.ASM   3-21-2012  18:31:13         PAGE 159


SYMBOL TABLE
  LABEL                             VALUE 

hllWAAAA                          0000001D
hllWBAAA                          000000C8
hllWCAAA                          00000016
hllWDAAA                          0000000B
hllXAAAA                          0000001F
hllXBAAA                          000000CF
hllXCAAA                          0000001E
hllXDAAA                          00000016
hllYAAAA                          0000002D
hllYAAAA_done                     0000002E
hllYBAAA                          000000D7
hllYCAAA                          00000021
hllYDAAA                          00000022
hllZBAAA                          000000DC
hllZCAAA                          00000024
hllZDAAA                          0000002F
hllblss00                         00000000
hllblss01                         00000001
hllblss02                         00000002
hlllb51J1                         000000CC
hlllb51J10                        000000CC
hlllb51J12                        00000010
hlllb51J13                        00000010
hlllb51J2                         000000CC
hlllb51J3                         000000A4
hlllb51J4                         000000CC
hlllb51J5                         0000007C
hlllb51J6                         000000CC
hlllb51J7                         00000054
hlllb51J8                         000000CC
hlllb51J9                         0000002C
hllparmcore                       
hllprgen2                         00000011
hllprogend                        000000B1
hlluserprog                       00000000
hloego                            00000000
in_isr                            00000008
kpop                              00000000
kpush                             00000000
kspox5                            00000007
longf                             00000000
modu                              00000000
mul                               00000000
mulf                              00000000
negti                             00000000
oru                               00000000
ourwait                           00000000
parm                              00000000
pbase                             00000000
printch                           00000000
printu                            00000000
safepush                          00000000
samplef                           00000000
MPASM  5.37                        TARGET.ASM   3-21-2012  18:31:13         PAGE 160


SYMBOL TABLE
  LABEL                             VALUE 

setbit                            00000000
sfpaux00                          00000001
sfpaux01                          00000003
sfpaux02                          00000005
sfpaux03                          00000007
sfploc00                          00000000
sfploc01                          00000002
sfploc02                          00000004
sfploc03                          00000006
sfploc04                          00000008
sfploc05                          00000009
sfploc06                          0000000A
sfploc07                          0000000B
sfploc08                          0000000C
sfploc09                          0000000D
sfploc10                          0000000E
sfploc11                          0000000F
sfploc12                          00000010
sfploc13                          00000011
sfploc14                          00000012
sfploc15                          00000013
sfploc16                          00000014
sfploc17                          00000015
softstack0                        00000000
softstack1                        00000001
softstack2                        00000002
sperr11                           0000000E
stack                             00000000
utof                              00000000

Errors   :     0
Warnings :     0 reported,     0 suppressed
Messages :     0 reported,    41 suppressed

