MPASM  5.37                        TARGET.ASM   2-2-2013  15:45:46         PAGE  1


LOC  OBJECT CODE     LINE SOURCE TEXT
  VALUE

                      00001 
                      00002 #include "hloe.inc"
                      00001 
                      00002 
                      00003 #define HLLGUARDhllblss
                      00004 
                      00005 
                      00006 #define HLOE_STACK_SIZE .80
                      00007 #define HLOE_STACK2_SIZE .80
                      00008 
                      00009 
                      00010 #include <p16f690.inc>
                      00001         LIST
                      00002 ; P16F690.INC  Standard Header File, Version 1.00    Microchip Technology, Inc.
                      00607         LIST
                      00011 #include <f:\beau\frostcompiler\kernel.inc>
                      00001 PUSH macro ;Push to the main stack for the programmer's parms and dyn. data;
                      00002  incf FSR,f ; The "incf" op serves as an allocator; it happens first so that interrupting
                      00003  movwf INDF ; code of any sort will not overwrite the data. 
                      00004  endm 
                      00005  
                      00006 POP macro ;Pop from main stack; "decf" is the de-allocator and thus happens last to 
                      00007  movfw INDF ; preserve the safety of this code under interruptible conditions. 
                      00008  decf FSR,f 
                      00009  endm
                      00010  
                      00011 DISCARD macro ;Remove items from the main stack and throw them away w/o affecting W
                      00012  decf FSR,f 
                      00013  endm
                      00014  
                      00015 KDISCARD macro ;Remove items from stack 2 and throw them away w/o affecting W
                      00016  decf alt_fsr,f 
                      00017  endm
                      00018 
                      00019 COPY macro ;Duplicate stack top
                      00020  movfw INDF
                      00021  incf FSR,f 
                      00022  movwf INDF 
                      00023  endm
                      00024 
                      00025 #define HLFSR FSR
                      00026  
                      00027 #define HLINDF INDF
                      00028 
                      00029   
                      00030 FAR_CALL macro caller_os,func_os ;Call destination residing within a different code page
                      00031  pagesel func_os
                      00032  call func_os
                      00033  pagesel caller_os ;This one restores the caller's code page
                      00034  endm
                      00035 
                      00036 ;Call destination residing within a different code page... does not restore the caller's
                      00037 ; code page after return, which may be OK (e.g. if the next operation is another 'Far'
MPASM  5.37                        TARGET.ASM   2-2-2013  15:45:46         PAGE  2


LOC  OBJECT CODE     LINE SOURCE TEXT
  VALUE

                      00038 ; function call). 
                      00039 HALF_FAR_CALL macro func_os 
                      00040  pagesel func_os        
                      00041  call func_os
                      00042  endm
                      00043  
                      00044 KPOP macro
                      00045  bankisel alt_stack ;This is OK for interrupts... part of STATUS 
                      00046  movf in_isr,f ;In shared RAM, no need for BANKSEL
                      00047  btfsc STATUS,Z
                      00048  goto $+0F
                      00049  movfw FSR 
                      00050  movwf softstack0+1 ;Save user stack ptr 
                      00051  movfw alt_fsr ;Get second stack ptr 
                      00052  movwf FSR 
                      00053  movfw INDF ;Dereference it 
                      00054  decf FSR,f ;Decrement it 
                      00055  movwf softstack1+1  ;Save popped value for ret urn 
                      00056  movfw FSR ;Save second stack ptr 
                      00057  movwf alt_fsr 
                      00058  movfw softstack0+1  ;Restore user stack ptr 
                      00059  movwf FSR 
                      00060  clrf softstack0+1
                      00061  movfw softstack1+1  ;Bring back popped value for ret urn 
                      00062  goto $+0E
                      00063  movfw FSR 
                      00064  movwf softstack0 ;Save user stack ptr 
                      00065  movfw alt_fsr ;Get second stack ptr 
                      00066  movwf FSR 
                      00067  movfw INDF ;Dereference it 
                      00068  decf FSR,f ;Decrement it 
                      00069  movwf softstack1  ;Save popped value for ret urn 
                      00070  movfw FSR ;Save second stack ptr 
                      00071  movwf alt_fsr 
                      00072  movfw softstack0  ;Restore user stack ptr 
                      00073  movwf FSR 
                      00074  clrf softstack0
                      00075  movfw softstack1  ;Bring back popped value for ret urn 
                      00076  bankisel stack
                      00077  endm 
                      00078 
                      00079 KPUSH macro
                      00080  bankisel alt_stack ;This is OK for interrupts... part of STATUS 
                      00081  movf in_isr,f ;In shared RAM, no need for BANKSEL
                      00082  btfsc STATUS,Z
                      00083  goto $+0E
                      00084  movwf softstack1+1 ;softstack1 holds parm value being pushed
                      00085  movfw FSR  
                      00086  movwf softstack0+1  ;softstack0 holds FSR
                      00087  movfw alt_fsr 
                      00088  movwf FSR 
                      00089  movfw softstack1+1
                      00090  incf alt_fsr,f 
MPASM  5.37                        TARGET.ASM   2-2-2013  15:45:46         PAGE  3


LOC  OBJECT CODE     LINE SOURCE TEXT
  VALUE

                      00091  incf FSR,f ;The actual kernel push... preincrement for interrupt safety
                      00092  movwf INDF 
                      00093  movfw softstack0+1
                      00094  movwf FSR 
                      00095  clrf softstack0+1 
                      00096  goto $+0D
                      00097  movwf softstack1 ;softstack1 holds parm value being pushed
                      00098  movfw FSR  
                      00099  movwf softstack0  ;softstack0 holds FSR
                      00100  movfw alt_fsr 
                      00101  movwf FSR 
                      00102  movfw softstack1
                      00103  incf alt_fsr,f 
                      00104  incf FSR,f ;The actual kernel push... preincrement for interrupt safety
                      00105  movwf INDF 
                      00106  movfw softstack0
                      00107  movwf FSR 
                      00108  clrf softstack0
                      00109  bankisel stack
                      00110  endm
                      00111  
                      00112 PREEMPT macro
                      00113 #ifdef HLLMULTITASK 
                      00114  movwf W_Save ; save context- save W in "W_save" file reg.
                      00115  ;From datasheet... save STATUS properly
                      00116  swapf STATUS,W 
                      00117  movwf STATUS_Save 
                      00118  movf FSR,w 
                      00119  movwf FSR_Save 
                      00120  movf PCLATH,w ; save status in "STATUS_Save" file reg.
                      00121  movwf PC_Save 
                      00122  movf alt_fsr,w 
                      00123  movwf ALT_Save
                      00124  incf in_isr,f
                      00125  pagesel ISR
                      00126  bankisel stack 
                      00127  movf FSR,w           ;Restore "softstack" if main thread was using 2nd stack
                      00128  movf softstack0,f        ; (coded to preserve constant interrupt latency)
                      00129  btfss STATUS,Z       
                      00130  movf softstack0,w  
                      00131  movwf FSR          
                      00132 #endif 
                      00133  endm
                      00134  
                      00135 RESUME macro
                      00136  
                      00137 #ifdef HLLMULTITASK 
                      00138  clrf in_isr
                      00139  movf ALT_Save,w
                      00140  movwf alt_fsr 
                      00141  movf PC_Save,w ; restore context (W and STATUS)
                      00142  movwf PCLATH
                      00143  movf FSR_Save,w 
MPASM  5.37                        TARGET.ASM   2-2-2013  15:45:46         PAGE  4


LOC  OBJECT CODE     LINE SOURCE TEXT
  VALUE

                      00144  movwf FSR
                      00145  ;Per the datasheet...
                      00146  swapf STATUS_Save,W
                      00147  movwf STATUS ;Move W into Status reg
                      00148  swapf W_Save,F ;Swap W_TEMP
                      00149  swapf W_Save,W ;Swap W_TEMP into W
                      00150 #endif
                      00151 
                      00152  endm
                      00153  
                      00154 ; Table macro.. this followed by any series of RETLW calls
                      00155 ; transforms said call list into a function that takes an offset
                      00156 ; and returns that entry in the table (takes 1 byte, returns 1
                      00157 ; byte... this goes atop the HLL feature which allows generation 
                      00158 ; of tables. It can also go atop RETLW tables entered into assembly 
                      00159 ; files in a very basic fashion when doing assembly programming. In 
                      00160 ; either case, the overall result can be called exactly as if it were any 
                      00161 ; other HLOE function
                      00162 HLTABLE macro mmnme
                      00163 mmnme:
                      00164  movlw high mmnme#v(2) ; Necess. b/c writes to PCL take 5 bits fr. PCLATH
                      00165  movwf PCLATH ; and PAGESEL doesn't take care of all 5
                      00166  movlw low mmnme#v(2) ; Perform pointer arithmetic
                      00167  addwf INDF,w 
                      00168  decf FSR,f
                      00169  btfsc STATUS,C ; Necess. b/c writes to PCL take 5 bits fr. PCLATH
                      00170  incf PCLATH,f 
                      00171  movwf PCL 
                      00172 mmnme#v(2): 
                      00173  ;retlw K, retlw K, etc. go here
                      00174  endm
                      00175  
                      00012 
                      00013 
                      00014 #define HLLMULTITASK
                      00003 
                      00004 
                      00005 ;
                      00006 ; R O B O T
                      00007 ;
                      00008 ; C O N F I G
                      00009 ;
                      00010 
                      00011 
2007   30C6           00012  __config (_EXTRC_OSC_NOCLKOUT& _WDT_OFF  & _MCLRE_OFF & _IESO_OFF & _FCMEN_OFF  & _PWRTE_ON & _BOR_OFF)
                      00013 
                      00014 
                      00015 hllv2cnt UDATA
0000                  00016 hllcntl RES .1
                      00017 
                      00018 #define cnt hllcntl
                      00019 
                      00020 hllv2wasnight UDATA
MPASM  5.37                        TARGET.ASM   2-2-2013  15:45:46         PAGE  5


LOC  OBJECT CODE     LINE SOURCE TEXT
  VALUE

0000                  00021 hllwasnightl RES .1
                      00022 
                      00023 #define wasnight hllwasnightl
                      00024 
                      00025 
                      00026 
                      00027 Resetv code 0 
0000   138B           00028  bcf INTCON,GIE
0001   ????           00029  pagesel hloego
0002   2???           00030  goto hloego
                      00031  
                      00032 #ifdef HLLMULTITASK
                      00033 vectr code 4     ;Device specific
0004                  00034 ISR:
                      00035 
                      00036 
                      00037  PREEMPT
                          M #ifdef HLLMULTITASK 
0004   00??               M  movwf W_Save ; save context- save W in "W_save" file reg.
                          M  ;From datasheet... save STATUS properly
0005   0E03               M  swapf STATUS,W 
0006   00??               M  movwf STATUS_Save 
0007   0804               M  movf FSR,w 
0008   00??               M  movwf FSR_Save 
0009   080A               M  movf PCLATH,w ; save status in "STATUS_Save" file reg.
000A   00??               M  movwf PC_Save 
000B   08??               M  movf alt_fsr,w 
000C   00??               M  movwf ALT_Save
000D   0A??               M  incf in_isr,f
000E   ????               M  pagesel ISR
000F   ????               M  bankisel stack 
0010   0804               M  movf FSR,w           ;Restore "softstack" if main thread was using 2nd stack
0011   08??               M  movf softstack0,f        ; (coded to preserve constant interrupt latency)
0012   1D03               M  btfss STATUS,Z       
0013   08??               M  movf softstack0,w  
0014   0084               M  movwf FSR          
                          M #endif 
                      00038 #endif
0015   1283 1303      00039  banksel PIR1
0017   1C0C           00040  btfss PIR1,TMR1IF
0018   2???           00041  goto hllnotisr49       
0019   100C           00042  bcf PIR1,TMR1IF
                      00043 
                      00044 
001A   3000           00045  movlw .0
                      00046  
                      00047 
                      00048 
                      00049 
                      00050    
                      00051  FAR_CALL ISR ,safepush
001B   ????               M  pagesel safepush
001C   2???               M  call safepush
MPASM  5.37                        TARGET.ASM   2-2-2013  15:45:46         PAGE  6


LOC  OBJECT CODE     LINE SOURCE TEXT
  VALUE

001D   ????               M  pagesel ISR       ;This one restores the caller's code page
                      00052 
                      00053 
001E   3000           00054  movlw .0
                      00055  
                      00056 
                      00057 
                      00058    
                      00059  FAR_CALL ISR ,safepush
001F   ????               M  pagesel safepush
0020   2???               M  call safepush
0021   ????               M  pagesel ISR       ;This one restores the caller's code page
                      00060 
                      00061 
0022   3004           00062  movlw .4
                      00063 
                      00064    
                      00065  HALF_FAR_CALL safepush
0023   ????               M  pagesel safepush       
0024   2???               M  call safepush
                      00066 
                      00067 
                      00068  
                      00069  HALF_FAR_CALL samplef
0025   ????               M  pagesel samplef        
0026   2???               M  call samplef
                      00070 
                      00071 
                      00072  
                      00073  HALF_FAR_CALL addf
0027   ????               M  pagesel addf           
0028   2???               M  call addf
                      00074 
                      00075 
                      00076  
                      00077  FAR_CALL ISR,handler
0029   ????               M  pagesel handler
002A   2???               M  call handler
002B   ????               M  pagesel ISR       ;This one restores the caller's code page
                      00078 
                      00079 
002C                  00080 hllnotisr49:
                      00081 
                      00082 
                      00083 ;
                      00084 ; R O B O T
                      00085 ;
                      00086 ; H E A D E R
                      00087 ;
                      00088 
                      00089 #ifdef HLLMULTITASK
002C                  00090 ExitISR:    
                      00091  RESUME 
MPASM  5.37                        TARGET.ASM   2-2-2013  15:45:46         PAGE  7


LOC  OBJECT CODE     LINE SOURCE TEXT
  VALUE

                          M  
                          M #ifdef HLLMULTITASK 
002C   01??               M  clrf in_isr
002D   08??               M  movf ALT_Save,w
002E   00??               M  movwf alt_fsr 
002F   08??               M  movf PC_Save,w ; restore context (W and STATUS)
0030   008A               M  movwf PCLATH
0031   08??               M  movf FSR_Save,w 
0032   0084               M  movwf FSR
                          M  ;Per the datasheet...
0033   0E??               M  swapf STATUS_Save,W
0034   0083               M  movwf STATUS ;Move W into Status reg
0035   0E??               M  swapf W_Save,F ;Swap W_TEMP
0036   0E??               M  swapf W_Save,W ;Swap W_TEMP into W
                          M #endif
                          M 
                      00092  
0037   0009           00093   retfie
                      00094 #endif
                      00095 
                      00096 mainvars udata_shr      
                      00097 #ifdef HLLMULTITASK
0000                  00098 pbase res .1                    ; Used for functions w/ numbered pass/return, to clean up parms/push arg
                            s
0001                  00099 pbaseisr res .1 
                      00100 #else
                      00101 pbase res .1
                      00102 #endif
0002                  00103 PC_Save res .1
                      00104 
                      00105 main code
0000                  00106 hloego:
                      00107 
                      00108  
                      00109 
                      00110   
0000   01??           00111   clrf in_isr
                      00112  
0001   30??           00113   movlw stack-1         ;Set up stack starting position based on literals det. by incremental linker
0002   0084           00114   movwf FSR 
0003   30??           00115   movlw alt_stack-1
0004   00??           00116   movwf alt_fsr 
                      00117  
                      00118  
0005   01??           00119  clrf softstack0 
                      00120  
0006   ????           00121  bankisel stack
0007   ????           00122  pagesel hlluserprog
0008   2???           00123  goto hlluserprog
                      00124 hllupuser CODE
0000                  00125 hlluserprog: 
                      00126  
                      00127 
MPASM  5.37                        TARGET.ASM   2-2-2013  15:45:46         PAGE  8


LOC  OBJECT CODE     LINE SOURCE TEXT
  VALUE

0000   3000           00128  movlw .0 
                      00129 
                      00130    
                      00131  FAR_CALL hlluserprog ,safepush
0001   ????               M  pagesel safepush
0002   2???               M  call safepush
0003   ????               M  pagesel hlluserprog ;This one restores the caller's code page
                      00132 
                      00133 
0004   3004           00134  movlw .4 
                      00135 
                      00136    
                      00137  FAR_CALL hlluserprog ,safepush
0005   ????               M  pagesel safepush
0006   2???               M  call safepush
0007   ????               M  pagesel hlluserprog ;This one restores the caller's code page
                      00138 
                      00139 
0008   3001           00140  movlw .1 
                      00141 
                      00142    
                      00143  FAR_CALL hlluserprog ,safepush
0009   ????               M  pagesel safepush
000A   2???               M  call safepush
000B   ????               M  pagesel hlluserprog ;This one restores the caller's code page
                      00144 
                      00145 
000C   3002           00146  movlw .2 
                      00147 
                      00148    
                      00149  FAR_CALL hlluserprog ,safepush
000D   ????               M  pagesel safepush
000E   2???               M  call safepush
000F   ????               M  pagesel hlluserprog ;This one restores the caller's code page
                      00150 
0010   1683 1303      00151    banksel TRISA
0012   0805           00152    movfw TRISA
                      00153    
                      00154    
                      00155 
                      00156    
                      00157  HALF_FAR_CALL safepush
0013   ????               M  pagesel safepush       
0014   2???               M  call safepush
                      00158 
                      00159 
                      00160  
                      00161  HALF_FAR_CALL setbit
0015   ????               M  pagesel setbit         
0016   2???               M  call setbit
                      00162 
                      00163 
                      00164  
MPASM  5.37                        TARGET.ASM   2-2-2013  15:45:46         PAGE  9


LOC  OBJECT CODE     LINE SOURCE TEXT
  VALUE

                      00165  HALF_FAR_CALL setbit
0017   ????               M  pagesel setbit         
0018   2???               M  call setbit
                      00166 
                      00167 
                      00168  
                      00169  HALF_FAR_CALL setbit
0019   ????               M  pagesel setbit         
001A   2???               M  call setbit
                      00170 
                      00171 
                      00172  
                      00173  FAR_CALL hlluserprog,setbit
001B   ????               M  pagesel setbit
001C   2???               M  call setbit
001D   ????               M  pagesel hlluserprog ;This one restores the caller's code page
                      00174 
                      00175  POP
001E   0800               M  movfw INDF ; preserve the safety of this code under interruptible conditions. 
001F   0384               M  decf FSR,f 
0020   1683 1303      00176  banksel TRISA
0022   0085           00177  movwf TRISA
                      00178  
                      00179 
                      00180 
0023   3000           00181  movlw .0 
                      00182 
                      00183    
                      00184  FAR_CALL hlluserprog ,safepush
0024   ????               M  pagesel safepush
0025   2???               M  call safepush
0026   ????               M  pagesel hlluserprog ;This one restores the caller's code page
                      00185 
0027   1683 1303      00186    banksel TRISC
0029   0807           00187    movfw TRISC
                      00188    
                      00189    
                      00190 
                      00191    
                      00192  HALF_FAR_CALL safepush
002A   ????               M  pagesel safepush       
002B   2???               M  call safepush
                      00193 
                      00194 
                      00195  
                      00196  FAR_CALL hlluserprog,setbit
002C   ????               M  pagesel setbit
002D   2???               M  call setbit
002E   ????               M  pagesel hlluserprog ;This one restores the caller's code page
                      00197 
                      00198  POP
002F   0800               M  movfw INDF ; preserve the safety of this code under interruptible conditions. 
0030   0384               M  decf FSR,f 
MPASM  5.37                        TARGET.ASM   2-2-2013  15:45:46         PAGE 10


LOC  OBJECT CODE     LINE SOURCE TEXT
  VALUE

0031   1683 1303      00199  banksel TRISC
0033   0087           00200  movwf TRISC
                      00201  
                      00202 
                      00203 
0034   3005           00204  movlw .5 
                      00205 
                      00206    
                      00207  FAR_CALL hlluserprog ,safepush
0035   ????               M  pagesel safepush
0036   2???               M  call safepush
0037   ????               M  pagesel hlluserprog ;This one restores the caller's code page
                      00208 
0038   1283 1703      00209    banksel CM1CON0
003A   0819           00210    movfw CM1CON0
                      00211    
                      00212    
                      00213 
                      00214    
                      00215  HALF_FAR_CALL safepush
003B   ????               M  pagesel safepush       
003C   2???               M  call safepush
                      00216 
                      00217 
                      00218  
                      00219  FAR_CALL hlluserprog,clearbit
003D   ????               M  pagesel clearbit
003E   2???               M  call clearbit
003F   ????               M  pagesel hlluserprog ;This one restores the caller's code page
                      00220 
                      00221  POP
0040   0800               M  movfw INDF ; preserve the safety of this code under interruptible conditions. 
0041   0384               M  decf FSR,f 
0042   1283 1703      00222  banksel CM1CON0
0044   0099           00223  movwf CM1CON0
                      00224  
                      00225 
                      00226 
0045   3000           00227  movlw .0 
                      00228 
                      00229    
                      00230  FAR_CALL hlluserprog ,safepush
0046   ????               M  pagesel safepush
0047   2???               M  call safepush
0048   ????               M  pagesel hlluserprog ;This one restores the caller's code page
                      00231 
                      00232  POP
0049   0800               M  movfw INDF ; preserve the safety of this code under interruptible conditions. 
004A   0384               M  decf FSR,f 
004B   1283 1303      00233  banksel INTCON
004D   008B           00234  movwf INTCON
                      00235  
                      00236 
MPASM  5.37                        TARGET.ASM   2-2-2013  15:45:46         PAGE 11


LOC  OBJECT CODE     LINE SOURCE TEXT
  VALUE

                      00237 
004E   3000           00238  movlw .0 
                      00239 
                      00240    
                      00241  FAR_CALL hlluserprog ,safepush
004F   ????               M  pagesel safepush
0050   2???               M  call safepush
0051   ????               M  pagesel hlluserprog ;This one restores the caller's code page
                      00242 
                      00243  POP
0052   0800               M  movfw INDF ; preserve the safety of this code under interruptible conditions. 
0053   0384               M  decf FSR,f 
0054   1283 1303      00244  banksel GIE
0056   0087           00245  movwf GIE
                      00246  
                      00247 
                      00248 
0057   3007           00249  movlw NOT_RABPU
                      00250 
                      00251 
                      00252    
                      00253  FAR_CALL hlluserprog ,safepush
0058   ????               M  pagesel safepush
0059   2???               M  call safepush
005A   ????               M  pagesel hlluserprog ;This one restores the caller's code page
                      00254 
005B   1683 1303      00255    banksel OPTION_REG
005D   0801           00256    movfw OPTION_REG
                      00257    
                      00258    
                      00259 
                      00260    
                      00261  HALF_FAR_CALL safepush
005E   ????               M  pagesel safepush       
005F   2???               M  call safepush
                      00262 
                      00263 
                      00264  
                      00265  FAR_CALL hlluserprog,setbit
0060   ????               M  pagesel setbit
0061   2???               M  call setbit
0062   ????               M  pagesel hlluserprog ;This one restores the caller's code page
                      00266 
                      00267  POP
0063   0800               M  movfw INDF ; preserve the safety of this code under interruptible conditions. 
0064   0384               M  decf FSR,f 
0065   1683 1303      00268  banksel OPTION_REG
0067   0081           00269  movwf OPTION_REG
                      00270  
                      00271 
                      00272 
0068   3000           00273  movlw .0 
                      00274 
MPASM  5.37                        TARGET.ASM   2-2-2013  15:45:46         PAGE 12


LOC  OBJECT CODE     LINE SOURCE TEXT
  VALUE

                      00275    
                      00276  FAR_CALL hlluserprog ,safepush
0069   ????               M  pagesel safepush
006A   2???               M  call safepush
006B   ????               M  pagesel hlluserprog ;This one restores the caller's code page
                      00277 
                      00278  POP
006C   0800               M  movfw INDF ; preserve the safety of this code under interruptible conditions. 
006D   0384               M  decf FSR,f 
006E   1283 1703      00279  banksel ANSELH
0070   009F           00280  movwf ANSELH
                      00281  
                      00282 
                      00283 
0071   3000           00284  movlw .0 
                      00285 
                      00286    
                      00287  FAR_CALL hlluserprog ,safepush
0072   ????               M  pagesel safepush
0073   2???               M  call safepush
0074   ????               M  pagesel hlluserprog ;This one restores the caller's code page
                      00288 
                      00289  POP
0075   0800               M  movfw INDF ; preserve the safety of this code under interruptible conditions. 
0076   0384               M  decf FSR,f 
0077   1283 1703      00290  banksel ANSEL
0079   009E           00291  movwf ANSEL
                      00292  
                      00293 
                      00294 
007A   3005           00295  movlw RCIE
                      00296 
                      00297 
                      00298    
                      00299  FAR_CALL hlluserprog ,safepush
007B   ????               M  pagesel safepush
007C   2???               M  call safepush
007D   ????               M  pagesel hlluserprog ;This one restores the caller's code page
                      00300 
                      00301 
007E   3004           00302  movlw TXIE
                      00303 
                      00304 
                      00305    
                      00306  FAR_CALL hlluserprog ,safepush
007F   ????               M  pagesel safepush
0080   2???               M  call safepush
0081   ????               M  pagesel hlluserprog ;This one restores the caller's code page
                      00307 
0082   1683 1303      00308    banksel PIE1
0084   080C           00309    movfw PIE1
                      00310    
                      00311    
MPASM  5.37                        TARGET.ASM   2-2-2013  15:45:46         PAGE 13


LOC  OBJECT CODE     LINE SOURCE TEXT
  VALUE

                      00312 
                      00313    
                      00314  HALF_FAR_CALL safepush
0085   ????               M  pagesel safepush       
0086   2???               M  call safepush
                      00315 
                      00316 
                      00317  
                      00318  HALF_FAR_CALL clearbit
0087   ????               M  pagesel clearbit       
0088   2???               M  call clearbit
                      00319 
                      00320 
                      00321  
                      00322  FAR_CALL hlluserprog,clearbit
0089   ????               M  pagesel clearbit
008A   2???               M  call clearbit
008B   ????               M  pagesel hlluserprog ;This one restores the caller's code page
                      00323 
                      00324  POP
008C   0800               M  movfw INDF ; preserve the safety of this code under interruptible conditions. 
008D   0384               M  decf FSR,f 
008E   1683 1303      00325  banksel PIE1
0090   008C           00326  movwf PIE1
                      00327  
                      00328 
                      00329 
0091   3004           00330  movlw SYNC
                      00331 
                      00332 
                      00333    
                      00334  FAR_CALL hlluserprog ,safepush
0092   ????               M  pagesel safepush
0093   2???               M  call safepush
0094   ????               M  pagesel hlluserprog ;This one restores the caller's code page
                      00335 
                      00336 
0095   3002           00337  movlw BRGH
                      00338 
                      00339 
                      00340    
                      00341  FAR_CALL hlluserprog ,safepush
0096   ????               M  pagesel safepush
0097   2???               M  call safepush
0098   ????               M  pagesel hlluserprog ;This one restores the caller's code page
                      00342 
0099   1683 1303      00343    banksel TXSTA
009B   0818           00344    movfw TXSTA
                      00345    
                      00346    
                      00347 
                      00348    
                      00349  HALF_FAR_CALL safepush
MPASM  5.37                        TARGET.ASM   2-2-2013  15:45:46         PAGE 14


LOC  OBJECT CODE     LINE SOURCE TEXT
  VALUE

009C   ????               M  pagesel safepush       
009D   2???               M  call safepush
                      00350 
                      00351 
                      00352  
                      00353  HALF_FAR_CALL setbit
009E   ????               M  pagesel setbit         
009F   2???               M  call setbit
                      00354 
                      00355 
                      00356  
                      00357  FAR_CALL hlluserprog,clearbit
00A0   ????               M  pagesel clearbit
00A1   2???               M  call clearbit
00A2   ????               M  pagesel hlluserprog ;This one restores the caller's code page
                      00358 
                      00359  POP
00A3   0800               M  movfw INDF ; preserve the safety of this code under interruptible conditions. 
00A4   0384               M  decf FSR,f 
00A5   1683 1303      00360  banksel TXSTA
00A7   0098           00361  movwf TXSTA
                      00362  
                      00363 
                      00364 
00A8   3003           00365  movlw BRG16
                      00366 
                      00367 
                      00368    
                      00369  FAR_CALL hlluserprog ,safepush
00A9   ????               M  pagesel safepush
00AA   2???               M  call safepush
00AB   ????               M  pagesel hlluserprog ;This one restores the caller's code page
                      00370 
                      00371 
00AC   3004           00372  movlw SCKP
                      00373 
                      00374 
                      00375    
                      00376  FAR_CALL hlluserprog ,safepush
00AD   ????               M  pagesel safepush
00AE   2???               M  call safepush
00AF   ????               M  pagesel hlluserprog ;This one restores the caller's code page
                      00377 
00B0   1683 1303      00378    banksel BAUDCTL
00B2   081B           00379    movfw BAUDCTL
                      00380    
                      00381    
                      00382 
                      00383    
                      00384  HALF_FAR_CALL safepush
00B3   ????               M  pagesel safepush       
00B4   2???               M  call safepush
                      00385 
MPASM  5.37                        TARGET.ASM   2-2-2013  15:45:46         PAGE 15


LOC  OBJECT CODE     LINE SOURCE TEXT
  VALUE

                      00386 
                      00387  
                      00388  HALF_FAR_CALL setbit
00B5   ????               M  pagesel setbit         
00B6   2???               M  call setbit
                      00389 
                      00390 
                      00391  
                      00392  FAR_CALL hlluserprog,setbit
00B7   ????               M  pagesel setbit
00B8   2???               M  call setbit
00B9   ????               M  pagesel hlluserprog ;This one restores the caller's code page
                      00393 
                      00394  POP
00BA   0800               M  movfw INDF ; preserve the safety of this code under interruptible conditions. 
00BB   0384               M  decf FSR,f 
00BC   1683 1303      00395  banksel BAUDCTL
00BE   009B           00396  movwf BAUDCTL
                      00397  
                      00398 
                      00399 
00BF   3004           00400  movlw CREN
                      00401 
                      00402 
                      00403    
                      00404  FAR_CALL hlluserprog ,safepush
00C0   ????               M  pagesel safepush
00C1   2???               M  call safepush
00C2   ????               M  pagesel hlluserprog ;This one restores the caller's code page
                      00405 
00C3   1283 1303      00406    banksel RCSTA
00C5   0818           00407    movfw RCSTA
                      00408    
                      00409    
                      00410 
                      00411    
                      00412  HALF_FAR_CALL safepush
00C6   ????               M  pagesel safepush       
00C7   2???               M  call safepush
                      00413 
                      00414 
                      00415  
                      00416  FAR_CALL hlluserprog,clearbit
00C8   ????               M  pagesel clearbit
00C9   2???               M  call clearbit
00CA   ????               M  pagesel hlluserprog ;This one restores the caller's code page
                      00417 
                      00418  POP
00CB   0800               M  movfw INDF ; preserve the safety of this code under interruptible conditions. 
00CC   0384               M  decf FSR,f 
00CD   1283 1303      00419  banksel RCSTA
00CF   0098           00420  movwf RCSTA
                      00421  
MPASM  5.37                        TARGET.ASM   2-2-2013  15:45:46         PAGE 16


LOC  OBJECT CODE     LINE SOURCE TEXT
  VALUE

                      00422 
                      00423 
00D0   3004           00424  movlw CREN
                      00425 
                      00426 
                      00427    
                      00428  FAR_CALL hlluserprog ,safepush
00D1   ????               M  pagesel safepush
00D2   2???               M  call safepush
00D3   ????               M  pagesel hlluserprog ;This one restores the caller's code page
                      00429 
00D4   1283 1303      00430    banksel RCSTA
00D6   0818           00431    movfw RCSTA
                      00432    
                      00433    
                      00434 
                      00435    
                      00436  HALF_FAR_CALL safepush
00D7   ????               M  pagesel safepush       
00D8   2???               M  call safepush
                      00437 
                      00438 
                      00439  
                      00440  FAR_CALL hlluserprog,setbit
00D9   ????               M  pagesel setbit
00DA   2???               M  call setbit
00DB   ????               M  pagesel hlluserprog ;This one restores the caller's code page
                      00441 
                      00442  POP
00DC   0800               M  movfw INDF ; preserve the safety of this code under interruptible conditions. 
00DD   0384               M  decf FSR,f 
00DE   1283 1303      00443  banksel RCSTA
00E0   0098           00444  movwf RCSTA
                      00445  
                      00446 
                      00447 
00E1   3019           00448  movlw .25 
                      00449 
                      00450    
                      00451  FAR_CALL hlluserprog ,safepush
00E2   ????               M  pagesel safepush
00E3   2???               M  call safepush
00E4   ????               M  pagesel hlluserprog ;This one restores the caller's code page
                      00452 
                      00453  POP
00E5   0800               M  movfw INDF ; preserve the safety of this code under interruptible conditions. 
00E6   0384               M  decf FSR,f 
00E7   1683 1303      00454  banksel SPBRG
00E9   0099           00455  movwf SPBRG
                      00456  
                      00457 
                      00458 
00EA   3000           00459  movlw .0  
MPASM  5.37                        TARGET.ASM   2-2-2013  15:45:46         PAGE 17


LOC  OBJECT CODE     LINE SOURCE TEXT
  VALUE

                      00460 
                      00461    
                      00462  FAR_CALL hlluserprog ,safepush
00EB   ????               M  pagesel safepush
00EC   2???               M  call safepush
00ED   ????               M  pagesel hlluserprog ;This one restores the caller's code page
                      00463 
                      00464  POP
00EE   0800               M  movfw INDF ; preserve the safety of this code under interruptible conditions. 
00EF   0384               M  decf FSR,f 
00F0   1683 1303      00465  banksel SPBRGH
00F2   009A           00466  movwf SPBRGH
                      00467  
                      00468 
                      00469 
00F3   3005           00470  movlw TXEN
                      00471 
                      00472 
                      00473    
                      00474  FAR_CALL hlluserprog ,safepush
00F4   ????               M  pagesel safepush
00F5   2???               M  call safepush
00F6   ????               M  pagesel hlluserprog ;This one restores the caller's code page
                      00475 
                      00476 
00F7   3006           00477  movlw TX9
                      00478 
                      00479 
                      00480    
                      00481  FAR_CALL hlluserprog ,safepush
00F8   ????               M  pagesel safepush
00F9   2???               M  call safepush
00FA   ????               M  pagesel hlluserprog ;This one restores the caller's code page
                      00482 
00FB   1683 1303      00483    banksel TXSTA
00FD   0818           00484    movfw TXSTA
                      00485    
                      00486    
                      00487 
                      00488    
                      00489  HALF_FAR_CALL safepush
00FE   ????               M  pagesel safepush       
00FF   2???               M  call safepush
                      00490 
                      00491 
                      00492  
                      00493  HALF_FAR_CALL clearbit
0100   ????               M  pagesel clearbit       
0101   2???               M  call clearbit
                      00494 
                      00495 
                      00496  
                      00497  FAR_CALL hlluserprog,setbit
MPASM  5.37                        TARGET.ASM   2-2-2013  15:45:46         PAGE 18


LOC  OBJECT CODE     LINE SOURCE TEXT
  VALUE

0102   ????               M  pagesel setbit
0103   2???               M  call setbit
0104   ????               M  pagesel hlluserprog ;This one restores the caller's code page
                      00498 
                      00499  POP
0105   0800               M  movfw INDF ; preserve the safety of this code under interruptible conditions. 
0106   0384               M  decf FSR,f 
0107   1683 1303      00500  banksel TXSTA
0109   0098           00501  movwf TXSTA
                      00502  
                      00503 
                      00504 
010A   3007           00505  movlw SPEN
                      00506 
                      00507 
                      00508    
                      00509  FAR_CALL hlluserprog ,safepush
010B   ????               M  pagesel safepush
010C   2???               M  call safepush
010D   ????               M  pagesel hlluserprog ;This one restores the caller's code page
                      00510 
010E   1283 1303      00511    banksel RCSTA
0110   0818           00512    movfw RCSTA
                      00513    
                      00514    
                      00515 
                      00516    
                      00517  HALF_FAR_CALL safepush
0111   ????               M  pagesel safepush       
0112   2???               M  call safepush
                      00518 
                      00519 
                      00520  
                      00521  FAR_CALL hlluserprog,setbit
0113   ????               M  pagesel setbit
0114   2???               M  call setbit
0115   ????               M  pagesel hlluserprog ;This one restores the caller's code page
                      00522 
                      00523  POP
0116   0800               M  movfw INDF ; preserve the safety of this code under interruptible conditions. 
0117   0384               M  decf FSR,f 
0118   1283 1303      00524  banksel RCSTA
011A   0098           00525  movwf RCSTA
                      00526  
                      00527 
                      00528 
011B   3000           00529  movlw .0 
                      00530 
                      00531    
                      00532  FAR_CALL hlluserprog ,safepush
011C   ????               M  pagesel safepush
011D   2???               M  call safepush
011E   ????               M  pagesel hlluserprog ;This one restores the caller's code page
MPASM  5.37                        TARGET.ASM   2-2-2013  15:45:46         PAGE 19


LOC  OBJECT CODE     LINE SOURCE TEXT
  VALUE

                      00533 
                      00534  POP
011F   0800               M  movfw INDF ; preserve the safety of this code under interruptible conditions. 
0120   0384               M  decf FSR,f 
0121   3A00           00535  xorlw .0
0122   1903           00536  btfsc STATUS,Z
0123   2???           00537  goto hlllb51J0 
                      00538  
                      00539  
0124   2???           00540  goto hlllb51J1
                      00541  
                      00542 
0125                  00543 hlllb51J0:
                      00544 
                      00545 
0125   3001           00546  movlw .1 
                      00547 
                      00548    
                      00549  FAR_CALL hlluserprog ,safepush
0126   ????               M  pagesel safepush
0127   2???               M  call safepush
0128   ????               M  pagesel hlluserprog ;This one restores the caller's code page
                      00550 
                      00551  POP
0129   0800               M  movfw INDF ; preserve the safety of this code under interruptible conditions. 
012A   0384               M  decf FSR,f 
012B   ???? ????      00552  banksel wasnight
012D   00??           00553  movwf wasnight
                      00554  
                      00555 
                      00556 
                      00557  
                      00558  FAR_CALL hlluserprog,night
012E   ????               M  pagesel night
012F   2???               M  call night
0130   ????               M  pagesel hlluserprog ;This one restores the caller's code page
                      00559 
                      00560 
0131                  00561 hlllb51J1:
                      00562 
                      00563 
0131   3001           00564  movlw TMR1CS
                      00565 
                      00566 
                      00567    
                      00568  FAR_CALL hlluserprog ,safepush
0132   ????               M  pagesel safepush
0133   2???               M  call safepush
0134   ????               M  pagesel hlluserprog ;This one restores the caller's code page
                      00569 
                      00570 
0135   3006           00571  movlw TMR1GE
                      00572 
MPASM  5.37                        TARGET.ASM   2-2-2013  15:45:46         PAGE 20


LOC  OBJECT CODE     LINE SOURCE TEXT
  VALUE

                      00573 
                      00574    
                      00575  FAR_CALL hlluserprog ,safepush
0136   ????               M  pagesel safepush
0137   2???               M  call safepush
0138   ????               M  pagesel hlluserprog ;This one restores the caller's code page
                      00576 
                      00577 
0139   3005           00578  movlw T1CKPS1
                      00579 
                      00580 
                      00581    
                      00582  FAR_CALL hlluserprog ,safepush
013A   ????               M  pagesel safepush
013B   2???               M  call safepush
013C   ????               M  pagesel hlluserprog ;This one restores the caller's code page
                      00583 
                      00584 
013D   3004           00585  movlw T1CKPS0
                      00586 
                      00587 
                      00588    
                      00589  FAR_CALL hlluserprog ,safepush
013E   ????               M  pagesel safepush
013F   2???               M  call safepush
0140   ????               M  pagesel hlluserprog ;This one restores the caller's code page
                      00590 
                      00591 
0141   3002           00592  movlw NOT_T1SYNC
                      00593 
                      00594 
                      00595    
                      00596  FAR_CALL hlluserprog ,safepush
0142   ????               M  pagesel safepush
0143   2???               M  call safepush
0144   ????               M  pagesel hlluserprog ;This one restores the caller's code page
                      00597 
                      00598 
0145   3003           00599  movlw T1OSCEN
                      00600 
                      00601 
                      00602    
                      00603  FAR_CALL hlluserprog ,safepush
0146   ????               M  pagesel safepush
0147   2???               M  call safepush
0148   ????               M  pagesel hlluserprog ;This one restores the caller's code page
                      00604 
0149   1283 1303      00605    banksel T1CON
014B   0810           00606    movfw T1CON
                      00607    
                      00608    
                      00609 
                      00610    
MPASM  5.37                        TARGET.ASM   2-2-2013  15:45:46         PAGE 21


LOC  OBJECT CODE     LINE SOURCE TEXT
  VALUE

                      00611  HALF_FAR_CALL safepush
014C   ????               M  pagesel safepush       
014D   2???               M  call safepush
                      00612 
                      00613 
                      00614  
                      00615  HALF_FAR_CALL clearbit
014E   ????               M  pagesel clearbit       
014F   2???               M  call clearbit
                      00616 
                      00617 
                      00618  
                      00619  HALF_FAR_CALL clearbit
0150   ????               M  pagesel clearbit       
0151   2???               M  call clearbit
                      00620 
                      00621 
                      00622  
                      00623  HALF_FAR_CALL setbit
0152   ????               M  pagesel setbit         
0153   2???               M  call setbit
                      00624 
                      00625 
                      00626  
                      00627  HALF_FAR_CALL setbit
0154   ????               M  pagesel setbit         
0155   2???               M  call setbit
                      00628 
                      00629 
                      00630  
                      00631  HALF_FAR_CALL clearbit
0156   ????               M  pagesel clearbit       
0157   2???               M  call clearbit
                      00632 
                      00633 
                      00634  
                      00635  FAR_CALL hlluserprog,clearbit
0158   ????               M  pagesel clearbit
0159   2???               M  call clearbit
015A   ????               M  pagesel hlluserprog ;This one restores the caller's code page
                      00636 
                      00637  POP
015B   0800               M  movfw INDF ; preserve the safety of this code under interruptible conditions. 
015C   0384               M  decf FSR,f 
015D   1283 1303      00638  banksel T1CON
015F   0090           00639  movwf T1CON
                      00640  
                      00641 
                      00642 
0160   3000           00643  movlw TMR1IE
                      00644 
                      00645 
                      00646    
MPASM  5.37                        TARGET.ASM   2-2-2013  15:45:46         PAGE 22


LOC  OBJECT CODE     LINE SOURCE TEXT
  VALUE

                      00647  FAR_CALL hlluserprog ,safepush
0161   ????               M  pagesel safepush
0162   2???               M  call safepush
0163   ????               M  pagesel hlluserprog ;This one restores the caller's code page
                      00648 
0164   1683 1303      00649    banksel PIE1
0166   080C           00650    movfw PIE1
                      00651    
                      00652    
                      00653 
                      00654    
                      00655  HALF_FAR_CALL safepush
0167   ????               M  pagesel safepush       
0168   2???               M  call safepush
                      00656 
                      00657 
                      00658  
                      00659  FAR_CALL hlluserprog,setbit
0169   ????               M  pagesel setbit
016A   2???               M  call setbit
016B   ????               M  pagesel hlluserprog ;This one restores the caller's code page
                      00660 
                      00661  POP
016C   0800               M  movfw INDF ; preserve the safety of this code under interruptible conditions. 
016D   0384               M  decf FSR,f 
016E   1683 1303      00662  banksel PIE1
0170   008C           00663  movwf PIE1
                      00664  
                      00665 
                      00666 
0171   3006           00667  movlw PEIE
                      00668 
                      00669 
                      00670    
                      00671  FAR_CALL hlluserprog ,safepush
0172   ????               M  pagesel safepush
0173   2???               M  call safepush
0174   ????               M  pagesel hlluserprog ;This one restores the caller's code page
                      00672 
0175   1283 1303      00673    banksel INTCON
0177   080B           00674    movfw INTCON
                      00675    
                      00676    
                      00677 
                      00678    
                      00679  HALF_FAR_CALL safepush
0178   ????               M  pagesel safepush       
0179   2???               M  call safepush
                      00680 
                      00681 
                      00682  
                      00683  FAR_CALL hlluserprog,setbit
017A   ????               M  pagesel setbit
MPASM  5.37                        TARGET.ASM   2-2-2013  15:45:46         PAGE 23


LOC  OBJECT CODE     LINE SOURCE TEXT
  VALUE

017B   2???               M  call setbit
017C   ????               M  pagesel hlluserprog ;This one restores the caller's code page
                      00684 
                      00685  POP
017D   0800               M  movfw INDF ; preserve the safety of this code under interruptible conditions. 
017E   0384               M  decf FSR,f 
017F   1283 1303      00686  banksel INTCON
0181   008B           00687  movwf INTCON
                      00688  
                      00689 
                      00690 
0182   3000           00691  movlw .0 
                      00692 
                      00693    
                      00694  FAR_CALL hlluserprog ,safepush
0183   ????               M  pagesel safepush
0184   2???               M  call safepush
0185   ????               M  pagesel hlluserprog ;This one restores the caller's code page
                      00695 
                      00696  POP
0186   0800               M  movfw INDF ; preserve the safety of this code under interruptible conditions. 
0187   0384               M  decf FSR,f 
0188   3A00           00697  xorlw .0
0189   1903           00698  btfsc STATUS,Z
018A   2???           00699  goto hlllb51J2 
                      00700  
                      00701  
018B   2???           00702  goto hlllb51J3
                      00703  
                      00704 
018C                  00705 hlllb51J2:
                      00706 
                      00707 
                      00708  
                      00709  FAR_CALL hlluserprog,cls
018C   ????               M  pagesel cls
018D   2???               M  call cls
018E   ????               M  pagesel hlluserprog ;This one restores the caller's code page
                      00710 
                      00711 
018F                  00712 hlllb51J3:
                      00713 
                      00714 
                      00715  
                      00716  FAR_CALL hlluserprog,wait_button
018F   ????               M  pagesel wait_button
0190   2???               M  call wait_button
0191   ????               M  pagesel hlluserprog ;This one restores the caller's code page
                      00717 
                      00718 
0192   3000           00719  movlw TMR1ON
                      00720 
                      00721 
MPASM  5.37                        TARGET.ASM   2-2-2013  15:45:46         PAGE 24


LOC  OBJECT CODE     LINE SOURCE TEXT
  VALUE

                      00722    
                      00723  FAR_CALL hlluserprog ,safepush
0193   ????               M  pagesel safepush
0194   2???               M  call safepush
0195   ????               M  pagesel hlluserprog ;This one restores the caller's code page
                      00724 
0196   1283 1303      00725    banksel T1CON
0198   0810           00726    movfw T1CON
                      00727    
                      00728    
                      00729 
                      00730    
                      00731  HALF_FAR_CALL safepush
0199   ????               M  pagesel safepush       
019A   2???               M  call safepush
                      00732 
                      00733 
                      00734  
                      00735  FAR_CALL hlluserprog,clearbit
019B   ????               M  pagesel clearbit
019C   2???               M  call clearbit
019D   ????               M  pagesel hlluserprog ;This one restores the caller's code page
                      00736 
                      00737  POP
019E   0800               M  movfw INDF ; preserve the safety of this code under interruptible conditions. 
019F   0384               M  decf FSR,f 
01A0   1283 1303      00738  banksel T1CON
01A2   0090           00739  movwf T1CON
                      00740  
                      00741 
                      00742 
01A3   3000           00743  movlw .0 
                      00744 
                      00745    
                      00746  FAR_CALL hlluserprog ,safepush
01A4   ????               M  pagesel safepush
01A5   2???               M  call safepush
01A6   ????               M  pagesel hlluserprog ;This one restores the caller's code page
                      00747 
                      00748  POP
01A7   0800               M  movfw INDF ; preserve the safety of this code under interruptible conditions. 
01A8   0384               M  decf FSR,f 
01A9   1283 1303      00749  banksel TMR1H
01AB   008F           00750  movwf TMR1H
                      00751  
                      00752 
                      00753 
01AC   3000           00754  movlw .0 
                      00755 
                      00756    
                      00757  FAR_CALL hlluserprog ,safepush
01AD   ????               M  pagesel safepush
01AE   2???               M  call safepush
MPASM  5.37                        TARGET.ASM   2-2-2013  15:45:46         PAGE 25


LOC  OBJECT CODE     LINE SOURCE TEXT
  VALUE

01AF   ????               M  pagesel hlluserprog ;This one restores the caller's code page
                      00758 
                      00759  POP
01B0   0800               M  movfw INDF ; preserve the safety of this code under interruptible conditions. 
01B1   0384               M  decf FSR,f 
01B2   1283 1303      00760  banksel TMR1L
01B4   008E           00761  movwf TMR1L
                      00762  
                      00763 
                      00764 
01B5   3007           00765  movlw GIE
                      00766 
                      00767 
                      00768    
                      00769  FAR_CALL hlluserprog ,safepush
01B6   ????               M  pagesel safepush
01B7   2???               M  call safepush
01B8   ????               M  pagesel hlluserprog ;This one restores the caller's code page
                      00770 
01B9   1283 1303      00771    banksel INTCON
01BB   080B           00772    movfw INTCON
                      00773    
                      00774    
                      00775 
                      00776    
                      00777  HALF_FAR_CALL safepush
01BC   ????               M  pagesel safepush       
01BD   2???               M  call safepush
                      00778 
                      00779 
                      00780  
                      00781  FAR_CALL hlluserprog,setbit
01BE   ????               M  pagesel setbit
01BF   2???               M  call setbit
01C0   ????               M  pagesel hlluserprog ;This one restores the caller's code page
                      00782 
                      00783  POP
01C1   0800               M  movfw INDF ; preserve the safety of this code under interruptible conditions. 
01C2   0384               M  decf FSR,f 
01C3   1283 1303      00784  banksel INTCON
01C5   008B           00785  movwf INTCON
                      00786  
                      00787 
                      00788 
01C6   3000           00789  movlw .0 
                      00790 
                      00791    
                      00792  FAR_CALL hlluserprog ,safepush
01C7   ????               M  pagesel safepush
01C8   2???               M  call safepush
01C9   ????               M  pagesel hlluserprog ;This one restores the caller's code page
                      00793 
                      00794  POP
MPASM  5.37                        TARGET.ASM   2-2-2013  15:45:46         PAGE 26


LOC  OBJECT CODE     LINE SOURCE TEXT
  VALUE

01CA   0800               M  movfw INDF ; preserve the safety of this code under interruptible conditions. 
01CB   0384               M  decf FSR,f 
01CC   3A00           00795  xorlw .0
01CD   1903           00796  btfsc STATUS,Z
01CE   2???           00797  goto hlllb51J4 
                      00798  
                      00799 
01CF   3080           00800  movlw .128 
                      00801 
                      00802    
                      00803  FAR_CALL hlluserprog ,safepush
01D0   ????               M  pagesel safepush
01D1   2???               M  call safepush
01D2   ????               M  pagesel hlluserprog ;This one restores the caller's code page
                      00804 
                      00805  POP
01D3   0800               M  movfw INDF ; preserve the safety of this code under interruptible conditions. 
01D4   0384               M  decf FSR,f 
01D5   1283 1303      00806  banksel TMR1H
01D7   008F           00807  movwf TMR1H
                      00808  
                      00809 
                      00810  
01D8   2???           00811  goto hlllb51J5
                      00812  
                      00813 
01D9                  00814 hlllb51J4:
                      00815 
                      00816 
01D9                  00817 hlllb51J5:
                      00818 
                      00819 
01D9   3000           00820  movlw TMR1ON
                      00821 
                      00822 
                      00823    
                      00824  FAR_CALL hlluserprog ,safepush
01DA   ????               M  pagesel safepush
01DB   2???               M  call safepush
01DC   ????               M  pagesel hlluserprog ;This one restores the caller's code page
                      00825 
01DD   1283 1303      00826    banksel T1CON
01DF   0810           00827    movfw T1CON
                      00828    
                      00829    
                      00830 
                      00831    
                      00832  HALF_FAR_CALL safepush
01E0   ????               M  pagesel safepush       
01E1   2???               M  call safepush
                      00833 
                      00834 
                      00835  
MPASM  5.37                        TARGET.ASM   2-2-2013  15:45:46         PAGE 27


LOC  OBJECT CODE     LINE SOURCE TEXT
  VALUE

                      00836  FAR_CALL hlluserprog,setbit
01E2   ????               M  pagesel setbit
01E3   2???               M  call setbit
01E4   ????               M  pagesel hlluserprog ;This one restores the caller's code page
                      00837 
                      00838  POP
01E5   0800               M  movfw INDF ; preserve the safety of this code under interruptible conditions. 
01E6   0384               M  decf FSR,f 
01E7   1283 1303      00839  banksel T1CON
01E9   0090           00840  movwf T1CON
                      00841  
                      00842 
                      00843     
01EA                  00844 hllprogend:
01EA   2???           00845  goto hllprogend
                      00846  
                      00847 
                      00848 hllt458 CODE
0000                  00849 wait_button:
                      00850 
0000   1283 1303      00851    banksel PORTA
0002   0805           00852    movfw PORTA
                      00853    
                      00854    
                      00855 
                      00856    
                      00857  FAR_CALL wait_button ,safepush
0003   ????               M  pagesel safepush
0004   2???               M  call safepush
0005   ????               M  pagesel wait_button ;This one restores the caller's code page
                      00858 
                      00859 
0006   3010           00860  movlw .16
                      00861 
                      00862    
                      00863  HALF_FAR_CALL safepush
0007   ????               M  pagesel safepush       
0008   2???               M  call safepush
                      00864 
                      00865 
                      00866  
                      00867  FAR_CALL wait_button,andu
0009   ????               M  pagesel andu
000A   2???               M  call andu
000B   ????               M  pagesel wait_button ;This one restores the caller's code page
                      00868 
                      00869  POP
000C   0800               M  movfw INDF ; preserve the safety of this code under interruptible conditions. 
000D   0384               M  decf FSR,f 
000E   3A00           00870  xorlw .0
000F   1903           00871  btfsc STATUS,Z
0010   2???           00872  goto hlllb51J6 
                      00873  
MPASM  5.37                        TARGET.ASM   2-2-2013  15:45:46         PAGE 28


LOC  OBJECT CODE     LINE SOURCE TEXT
  VALUE

                      00874  ;
                      00875 
                      00876 
0011   2???           00877  goto wait_button
0012                  00878 hlllb51J6:
0012                  00879 hlllb51J7:
                      00880 
0012   0008           00881  return 
                      00882 
                      00883  
                      00884 
                      00885 hllt459 CODE
0000                  00886 bigbar:
0000   0804           00887  movf FSR,w
                      00888  
                      00889 
                      00890  
                      00891  FAR_CALL bigbar ,kpush
0001   ????               M  pagesel kpush
0002   2???               M  call kpush
0003   ????               M  pagesel bigbar    ;This one restores the caller's code page
                      00892 
                      00893 
0004   300F           00894  movlw .15 
                      00895 
                      00896    
                      00897  FAR_CALL bigbar ,safepush
0005   ????               M  pagesel safepush
0006   2???               M  call safepush
0007   ????               M  pagesel bigbar    ;This one restores the caller's code page
                      00898 
                      00899 
0008   3000           00900  movlw .0
                      00901 
                      00902    
                      00903  HALF_FAR_CALL safepush
0009   ????               M  pagesel safepush       
000A   2???               M  call safepush
                      00904 
                      00905 
                      00906  
                      00907  FAR_CALL bigbar,parm
000B   ????               M  pagesel parm
000C   2???               M  call parm
000D   ????               M  pagesel bigbar    ;This one restores the caller's code page
                      00908 
                      00909 
000E   3001           00910  movlw .1
                      00911 
                      00912    
                      00913  HALF_FAR_CALL safepush
000F   ????               M  pagesel safepush       
0010   2???               M  call safepush
MPASM  5.37                        TARGET.ASM   2-2-2013  15:45:46         PAGE 29


LOC  OBJECT CODE     LINE SOURCE TEXT
  VALUE

                      00914 
                      00915 
                      00916  
                      00917  FAR_CALL bigbar,parm
0011   ????               M  pagesel parm
0012   2???               M  call parm
0013   ????               M  pagesel bigbar    ;This one restores the caller's code page
                      00918 
                      00919 
0014   300B           00920  movlw .11 
                      00921 
                      00922    
                      00923  HALF_FAR_CALL safepush
0015   ????               M  pagesel safepush       
0016   2???               M  call safepush
                      00924 
                      00925 
                      00926  
                      00927  FAR_CALL bigbar,graphx
0017   ????               M  pagesel graphx
0018   2???               M  call graphx
0019   ????               M  pagesel bigbar    ;This one restores the caller's code page
                      00928 
                      00929 
001A   300F           00930  movlw .15 
                      00931 
                      00932    
                      00933  FAR_CALL bigbar ,safepush
001B   ????               M  pagesel safepush
001C   2???               M  call safepush
001D   ????               M  pagesel bigbar    ;This one restores the caller's code page
                      00934 
                      00935 
001E   3000           00936  movlw .0
                      00937 
                      00938    
                      00939  HALF_FAR_CALL safepush
001F   ????               M  pagesel safepush       
0020   2???               M  call safepush
                      00940 
                      00941 
                      00942  
                      00943  FAR_CALL bigbar,parm
0021   ????               M  pagesel parm
0022   2???               M  call parm
0023   ????               M  pagesel bigbar    ;This one restores the caller's code page
                      00944 
                      00945 
0024   3001           00946  movlw .1
                      00947 
                      00948    
                      00949  HALF_FAR_CALL safepush
0025   ????               M  pagesel safepush       
MPASM  5.37                        TARGET.ASM   2-2-2013  15:45:46         PAGE 30


LOC  OBJECT CODE     LINE SOURCE TEXT
  VALUE

0026   2???               M  call safepush
                      00950 
                      00951 
                      00952  
                      00953  FAR_CALL bigbar,parm
0027   ????               M  pagesel parm
0028   2???               M  call parm
0029   ????               M  pagesel bigbar    ;This one restores the caller's code page
                      00954 
                      00955 
002A   300C           00956  movlw .12 
                      00957 
                      00958    
                      00959  HALF_FAR_CALL safepush
002B   ????               M  pagesel safepush       
002C   2???               M  call safepush
                      00960 
                      00961 
                      00962  
                      00963  FAR_CALL bigbar,graphx
002D   ????               M  pagesel graphx
002E   2???               M  call graphx
002F   ????               M  pagesel bigbar    ;This one restores the caller's code page
                      00964 
                      00965 
0030   300F           00966  movlw .15 
                      00967 
                      00968    
                      00969  FAR_CALL bigbar ,safepush
0031   ????               M  pagesel safepush
0032   2???               M  call safepush
0033   ????               M  pagesel bigbar    ;This one restores the caller's code page
                      00970 
                      00971 
0034   3000           00972  movlw .0
                      00973 
                      00974    
                      00975  HALF_FAR_CALL safepush
0035   ????               M  pagesel safepush       
0036   2???               M  call safepush
                      00976 
                      00977 
                      00978  
                      00979  FAR_CALL bigbar,parm
0037   ????               M  pagesel parm
0038   2???               M  call parm
0039   ????               M  pagesel bigbar    ;This one restores the caller's code page
                      00980 
                      00981 
003A   3001           00982  movlw .1
                      00983 
                      00984    
                      00985  HALF_FAR_CALL safepush
MPASM  5.37                        TARGET.ASM   2-2-2013  15:45:46         PAGE 31


LOC  OBJECT CODE     LINE SOURCE TEXT
  VALUE

003B   ????               M  pagesel safepush       
003C   2???               M  call safepush
                      00986 
                      00987 
                      00988  
                      00989  FAR_CALL bigbar,parm
003D   ????               M  pagesel parm
003E   2???               M  call parm
003F   ????               M  pagesel bigbar    ;This one restores the caller's code page
                      00990 
                      00991 
0040   300D           00992  movlw .13 
                      00993 
                      00994    
                      00995  HALF_FAR_CALL safepush
0041   ????               M  pagesel safepush       
0042   2???               M  call safepush
                      00996 
                      00997 
                      00998  
                      00999  HALF_FAR_CALL graphx
0043   ????               M  pagesel graphx         
0044   2???               M  call graphx
                      01000 
                      01001 
                      01002  
                      01003  FAR_CALL bigbar,kpop
0045   ????               M  pagesel kpop
0046   2???               M  call kpop
0047   ????               M  pagesel bigbar    ;This one restores the caller's code page
                      01004 
                      01005 ;LOAD POINTER
0048   0084           01006  movwf FSR
                      01007  
                      01008 
                      01009  DISCARD
0049   0384               M  decf FSR,f 
                      01010 
                      01011 
                      01012  DISCARD
004A   0384               M  decf FSR,f 
                      01013 
                      01014 
004B   0008           01015  return
                      01016  
                      01017 
                      01018 hllt4510 CODE
                      01019  HLTABLE  TextA
0000                      M TextA:
0000   30??               M  movlw high TextA2     ; Necess. b/c writes to PCL take 5 bits fr. PCLATH
0001   008A               M  movwf PCLATH ; and PAGESEL doesn't take care of all 5
0002   30??               M  movlw low TextA2     ; Perform pointer arithmetic
0003   0700               M  addwf INDF,w 
MPASM  5.37                        TARGET.ASM   2-2-2013  15:45:46         PAGE 32


LOC  OBJECT CODE     LINE SOURCE TEXT
  VALUE

0004   0384               M  decf FSR,f
0005   1803               M  btfsc STATUS,C ; Necess. b/c writes to PCL take 5 bits fr. PCLATH
0006   0A8A               M  incf PCLATH,f 
0007   0082               M  movwf PCL 
0008                      M TextA2:     
                          M  ;retlw K, retlw K, etc. go here
                      01020 
                      01021 
0008   340D           01022  retlw .13
                      01023 
0009   340A           01024  retlw .10
                      01025 
000A   344F           01026  retlw .79
                      01027  
                      01028 
000B   3453           01029  retlw .83
                      01030  
                      01031 
000C   342D           01032  retlw .45
                      01033  
                      01034 
000D   3439           01035  retlw .57
                      01036  
                      01037 
000E   3420           01038  retlw .32
                      01039  
                      01040 
000F   3436           01041  retlw .54
                      01042  
                      01043 
0010   3438           01044  retlw .56
                      01045  
                      01046 
0011   3430           01047  retlw .48
                      01048  
                      01049 
0012   3439           01050  retlw .57
                      01051  
                      01052 
0013   3420           01053  retlw .32
                      01054  
                      01055 
0014   3472           01056  retlw .114
                      01057  
                      01058 
0015   3461           01059  retlw .97
                      01060  
                      01061 
0016   346E           01062  retlw .110
                      01063  
                      01064 
0017   3420           01065  retlw .32
                      01066  
MPASM  5.37                        TARGET.ASM   2-2-2013  15:45:46         PAGE 33


LOC  OBJECT CODE     LINE SOURCE TEXT
  VALUE

                      01067 
0018   346F           01068  retlw .111
                      01069  
                      01070 
0019   346E           01071  retlw .110
                      01072  
                      01073 
001A   3420           01074  retlw .32
                      01075  
                      01076 
001B   344D           01077  retlw .77
                      01078  
                      01079 
001C   346F           01080  retlw .111
                      01081  
                      01082 
001D   3474           01083  retlw .116
                      01084  
                      01085 
001E   346F           01086  retlw .111
                      01087  
                      01088 
001F   3472           01089  retlw .114
                      01090  
                      01091 
0020   346F           01092  retlw .111
                      01093  
                      01094 
0021   346C           01095  retlw .108
                      01096  
                      01097 
0022   3461           01098  retlw .97
                      01099  
                      01100 
0023   3420           01101  retlw .32
                      01102  
                      01103 
0024   3445           01104  retlw .69
                      01105  
                      01106 
0025   3458           01107  retlw .88
                      01108  
                      01109 
0026   344F           01110  retlw .79
                      01111  
                      01112 
0027   3452           01113  retlw .82
                      01114  
                      01115 
0028   3462           01116  retlw .98
                      01117  
                      01118 
0029   3475           01119  retlw .117
MPASM  5.37                        TARGET.ASM   2-2-2013  15:45:46         PAGE 34


LOC  OBJECT CODE     LINE SOURCE TEXT
  VALUE

                      01120  
                      01121 
002A   3473           01122  retlw .115
                      01123  
                      01124 
002B   3420           01125  retlw .32
                      01126  
                      01127 
002C   3473           01128  retlw .115
                      01129  
                      01130 
002D   3479           01131  retlw .121
                      01132  
                      01133 
002E   3473           01134  retlw .115
                      01135  
                      01136 
002F   3474           01137  retlw .116
                      01138  
                      01139 
0030   3465           01140  retlw .101
                      01141  
                      01142 
0031   346D           01143  retlw .109
                      01144  
                      01145 
0032   3473           01146  retlw .115
                      01147  
                      01148 
0033   3420           01149  retlw .32
                      01150  
                      01151 
0034   3475           01152  retlw .117
                      01153  
                      01154 
0035   3473           01155  retlw .115
                      01156  
                      01157 
0036   3469           01158  retlw .105
                      01159  
                      01160 
0037   346E           01161  retlw .110
                      01162  
                      01163 
0038   3467           01164  retlw .103
                      01165  
                      01166 
0039   3420           01167  retlw .32
                      01168  
                      01169 
003A   3474           01170  retlw .116
                      01171  
                      01172 
MPASM  5.37                        TARGET.ASM   2-2-2013  15:45:46         PAGE 35


LOC  OBJECT CODE     LINE SOURCE TEXT
  VALUE

003B   3468           01173  retlw .104
                      01174  
                      01175 
003C   3465           01176  retlw .101
                      01177  
                      01178 
003D   3420           01179  retlw .32
                      01180  
                      01181 
003E   344D           01182  retlw .77
                      01183  
                      01184 
003F   346F           01185  retlw .111
                      01186  
                      01187 
0040   3474           01188  retlw .116
                      01189  
                      01190 
0041   346F           01191  retlw .111
                      01192  
                      01193 
0042   3472           01194  retlw .114
                      01195  
                      01196 
0043   346F           01197  retlw .111
                      01198  
                      01199 
0044   346C           01200  retlw .108
                      01201  
                      01202 
0045   3461           01203  retlw .97
                      01204  
                      01205 
0046   3420           01206  retlw .32
                      01207  
                      01208 
0047   3436           01209  retlw .54
                      01210  
                      01211 
0048   3438           01212  retlw .56
                      01213  
                      01214 
0049   3430           01215  retlw .48
                      01216  
                      01217 
004A   3439           01218  retlw .57
                      01219  
                      01220 
004B   342C           01221  retlw .44
                      01222  
                      01223 
004C   3420           01224  retlw .32
                      01225  
MPASM  5.37                        TARGET.ASM   2-2-2013  15:45:46         PAGE 36


LOC  OBJECT CODE     LINE SOURCE TEXT
  VALUE

                      01226 
004D   3453           01227  retlw .83
                      01228  
                      01229 
004E   3453           01230  retlw .83
                      01231  
                      01232 
004F   342D           01233  retlw .45
                      01234  
                      01235 
0050   3435           01236  retlw .53
                      01237  
                      01238 
0051   3430           01239  retlw .48
                      01240  
                      01241 
0052   3420           01242  retlw .32
                      01243  
                      01244 
0053   3400           01245  retlw .0
                      01246 
0054   3400           01247  retlw .0
                      01248 
                      01249 hllt4511 CODE
0000                  01250 putTextA:
0000   0804           01251  movf FSR,w
                      01252  
                      01253 
                      01254  
                      01255  FAR_CALL putTextA ,kpush
0001   ????               M  pagesel kpush
0002   2???               M  call kpush
0003   ????               M  pagesel putTextA  ;This one restores the caller's code page
                      01256 
                      01257 
0004   3000           01258  movlw .0
                      01259 
                      01260    
                      01261  HALF_FAR_CALL safepush
0005   ????               M  pagesel safepush       
0006   2???               M  call safepush
                      01262 
                      01263 
                      01264  
                      01265  HALF_FAR_CALL putiTextA
0007   ????               M  pagesel putiTextA      
0008   2???               M  call putiTextA
                      01266 
                      01267 
                      01268  
                      01269  FAR_CALL putTextA,kpop
0009   ????               M  pagesel kpop
000A   2???               M  call kpop
MPASM  5.37                        TARGET.ASM   2-2-2013  15:45:46         PAGE 37


LOC  OBJECT CODE     LINE SOURCE TEXT
  VALUE

000B   ????               M  pagesel putTextA  ;This one restores the caller's code page
                      01270 
                      01271 ;LOAD POINTER
000C   0084           01272  movwf FSR
                      01273  
                      01274 
000D   0008           01275  return
                      01276  
                      01277 
                      01278 hllt4514 CODE
0000                  01279 putiTextA:
0000   0804           01280  movf FSR,w
                      01281  
                      01282 
                      01283  
                      01284  FAR_CALL putiTextA ,kpush
0001   ????               M  pagesel kpush
0002   2???               M  call kpush
0003   ????               M  pagesel putiTextA ;This one restores the caller's code page
                      01285 
                      01286 
0004   3000           01287  movlw .0
                      01288 
                      01289    
                      01290  HALF_FAR_CALL safepush
0005   ????               M  pagesel safepush       
0006   2???               M  call safepush
                      01291 
                      01292 
                      01293  
                      01294  HALF_FAR_CALL parm
0007   ????               M  pagesel parm           
0008   2???               M  call parm
                      01295 
                      01296 
                      01297  
                      01298  HALF_FAR_CALL TextA
0009   ????               M  pagesel TextA          
000A   2???               M  call TextA
                      01299 
                      01300 
                      01301    
                      01302  FAR_CALL putiTextA ,safepush
000B   ????               M  pagesel safepush
000C   2???               M  call safepush
000D   ????               M  pagesel putiTextA ;This one restores the caller's code page
                      01303 
                      01304 
000E   3000           01305  movlw .0 
                      01306 
                      01307    
                      01308  HALF_FAR_CALL safepush
000F   ????               M  pagesel safepush       
MPASM  5.37                        TARGET.ASM   2-2-2013  15:45:46         PAGE 38


LOC  OBJECT CODE     LINE SOURCE TEXT
  VALUE

0010   2???               M  call safepush
                      01309 
                      01310 
                      01311  
                      01312  FAR_CALL putiTextA,eq
0011   ????               M  pagesel eq
0012   2???               M  call eq
0013   ????               M  pagesel putiTextA ;This one restores the caller's code page
                      01313 
                      01314  POP
0014   0800               M  movfw INDF ; preserve the safety of this code under interruptible conditions. 
0015   0384               M  decf FSR,f 
0016   3A00           01315  xorlw .0
0017   1903           01316  btfsc STATUS,Z
0018   2???           01317  goto hlllb51J12 
                      01318  
                      01319  
0019   2???           01320  goto hlllb51J13
                      01321  
                      01322 
001A                  01323 hlllb51J12:
                      01324 
                      01325 
001A   3000           01326  movlw .0
                      01327 
                      01328    
                      01329  HALF_FAR_CALL safepush
001B   ????               M  pagesel safepush       
001C   2???               M  call safepush
                      01330 
                      01331 
                      01332  
                      01333  HALF_FAR_CALL parm
001D   ????               M  pagesel parm           
001E   2???               M  call parm
                      01334 
                      01335 
                      01336  
                      01337  HALF_FAR_CALL TextA
001F   ????               M  pagesel TextA          
0020   2???               M  call TextA
                      01338 
                      01339 
                      01340    
                      01341  HALF_FAR_CALL safepush
0021   ????               M  pagesel safepush       
0022   2???               M  call safepush
                      01342 
                      01343 
                      01344  
                      01345  FAR_CALL putiTextA,printch
0023   ????               M  pagesel printch
0024   2???               M  call printch
MPASM  5.37                        TARGET.ASM   2-2-2013  15:45:46         PAGE 39


LOC  OBJECT CODE     LINE SOURCE TEXT
  VALUE

0025   ????               M  pagesel putiTextA ;This one restores the caller's code page
                      01346 
                      01347 
0026   3001           01348  movlw .1
                      01349 
                      01350    
                      01351  HALF_FAR_CALL safepush
0027   ????               M  pagesel safepush       
0028   2???               M  call safepush
                      01352 
                      01353 
                      01354  
                      01355  FAR_CALL putiTextA,add
0029   ????               M  pagesel add
002A   2???               M  call add
002B   ????               M  pagesel putiTextA ;This one restores the caller's code page
                      01356 
                      01357  ;
                      01358 
                      01359  KDISCARD 
002C   03??               M  decf alt_fsr,f 
002D   2???           01360  goto putiTextA
002E                  01361 hlllb51J13:
                      01362 
                      01363  KDISCARD 
002E   03??               M  decf alt_fsr,f 
002F   0008           01364  return 
                      01365 
                      01366  
                      01367 
                      01368 hllt4515 CODE
                      01369  HLTABLE  TextB
0000                      M TextB:
0000   30??               M  movlw high TextB2     ; Necess. b/c writes to PCL take 5 bits fr. PCLATH
0001   008A               M  movwf PCLATH ; and PAGESEL doesn't take care of all 5
0002   30??               M  movlw low TextB2     ; Perform pointer arithmetic
0003   0700               M  addwf INDF,w 
0004   0384               M  decf FSR,f
0005   1803               M  btfsc STATUS,C ; Necess. b/c writes to PCL take 5 bits fr. PCLATH
0006   0A8A               M  incf PCLATH,f 
0007   0082               M  movwf PCL 
0008                      M TextB2:     
                          M  ;retlw K, retlw K, etc. go here
                      01370 
                      01371 
0008   340D           01372  retlw .13
                      01373 
0009   340A           01374  retlw .10
                      01375 
000A   3461           01376  retlw .97
                      01377  
                      01378 
000B   346E           01379  retlw .110
MPASM  5.37                        TARGET.ASM   2-2-2013  15:45:46         PAGE 40


LOC  OBJECT CODE     LINE SOURCE TEXT
  VALUE

                      01380  
                      01381 
000C   3464           01382  retlw .100
                      01383  
                      01384 
000D   3420           01385  retlw .32
                      01386  
                      01387 
000E   3453           01388  retlw .83
                      01389  
                      01390 
000F   3453           01391  retlw .83
                      01392  
                      01393 
0010   342D           01394  retlw .45
                      01395  
                      01396 
0011   3435           01397  retlw .53
                      01398  
                      01399 
0012   3430           01400  retlw .48
                      01401  
                      01402 
0013   3443           01403  retlw .67
                      01404  
                      01405 
0014   3420           01406  retlw .32
                      01407  
                      01408 
0015   3462           01409  retlw .98
                      01410  
                      01411 
0016   3475           01412  retlw .117
                      01413  
                      01414 
0017   3473           01415  retlw .115
                      01416  
                      01417 
0018   3420           01418  retlw .32
                      01419  
                      01420 
0019   3473           01421  retlw .115
                      01422  
                      01423 
001A   3479           01424  retlw .121
                      01425  
                      01426 
001B   3473           01427  retlw .115
                      01428  
                      01429 
001C   3474           01430  retlw .116
                      01431  
                      01432 
MPASM  5.37                        TARGET.ASM   2-2-2013  15:45:46         PAGE 41


LOC  OBJECT CODE     LINE SOURCE TEXT
  VALUE

001D   3465           01433  retlw .101
                      01434  
                      01435 
001E   346D           01436  retlw .109
                      01437  
                      01438 
001F   3473           01439  retlw .115
                      01440  
                      01441 
0020   3420           01442  retlw .32
                      01443  
                      01444 
0021   3466           01445  retlw .102
                      01446  
                      01447 
0022   3472           01448  retlw .114
                      01449  
                      01450 
0023   346F           01451  retlw .111
                      01452  
                      01453 
0024   346D           01454  retlw .109
                      01455  
                      01456 
0025   3420           01457  retlw .32
                      01458  
                      01459 
0026   3463           01460  retlw .99
                      01461  
                      01462 
0027   346F           01463  retlw .111
                      01464  
                      01465 
0028   346D           01466  retlw .109
                      01467  
                      01468 
0029   3470           01469  retlw .112
                      01470  
                      01471 
002A   3461           01472  retlw .97
                      01473  
                      01474 
002B   346E           01475  retlw .110
                      01476  
                      01477 
002C   3469           01478  retlw .105
                      01479  
                      01480 
002D   3465           01481  retlw .101
                      01482  
                      01483 
002E   3473           01484  retlw .115
                      01485  
MPASM  5.37                        TARGET.ASM   2-2-2013  15:45:46         PAGE 42


LOC  OBJECT CODE     LINE SOURCE TEXT
  VALUE

                      01486 
002F   3420           01487  retlw .32
                      01488  
                      01489 
0030   346C           01490  retlw .108
                      01491  
                      01492 
0031   3469           01493  retlw .105
                      01494  
                      01495 
0032   346B           01496  retlw .107
                      01497  
                      01498 
0033   3465           01499  retlw .101
                      01500  
                      01501 
0034   3420           01502  retlw .32
                      01503  
                      01504 
0035   3447           01505  retlw .71
                      01506  
                      01507 
0036   3469           01508  retlw .105
                      01509  
                      01510 
0037   346D           01511  retlw .109
                      01512  
                      01513 
0038   3469           01514  retlw .105
                      01515  
                      01516 
0039   3478           01517  retlw .120
                      01518  
                      01519 
003A   342C           01520  retlw .44
                      01521  
                      01522 
003B   3420           01523  retlw .32
                      01524  
                      01525 
003C   344D           01526  retlw .77
                      01527  
                      01528 
003D   3469           01529  retlw .105
                      01530  
                      01531 
003E   3464           01532  retlw .100
                      01533  
                      01534 
003F   3477           01535  retlw .119
                      01536  
                      01537 
0040   3465           01538  retlw .101
MPASM  5.37                        TARGET.ASM   2-2-2013  15:45:46         PAGE 43


LOC  OBJECT CODE     LINE SOURCE TEXT
  VALUE

                      01539  
                      01540 
0041   3473           01541  retlw .115
                      01542  
                      01543 
0042   3474           01544  retlw .116
                      01545  
                      01546 
0043   3420           01547  retlw .32
                      01548  
                      01549 
0044   3453           01550  retlw .83
                      01551  
                      01552 
0045   3463           01553  retlw .99
                      01554  
                      01555 
0046   3469           01556  retlw .105
                      01557  
                      01558 
0047   3465           01559  retlw .101
                      01560  
                      01561 
0048   346E           01562  retlw .110
                      01563  
                      01564 
0049   3474           01565  retlw .116
                      01566  
                      01567 
004A   3469           01568  retlw .105
                      01569  
                      01570 
004B   3466           01571  retlw .102
                      01572  
                      01573 
004C   3469           01574  retlw .105
                      01575  
                      01576 
004D   3463           01577  retlw .99
                      01578  
                      01579 
004E   3420           01580  retlw .32
                      01581  
                      01582 
004F   3461           01583  retlw .97
                      01584  
                      01585 
0050   346E           01586  retlw .110
                      01587  
                      01588 
0051   3464           01589  retlw .100
                      01590  
                      01591 
MPASM  5.37                        TARGET.ASM   2-2-2013  15:45:46         PAGE 44


LOC  OBJECT CODE     LINE SOURCE TEXT
  VALUE

0052   3420           01592  retlw .32
                      01593  
                      01594 
0053   3400           01595  retlw .0
                      01596 
0054   3400           01597  retlw .0
                      01598 
                      01599 hllt4516 CODE
0000                  01600 putTextB:
0000   0804           01601  movf FSR,w
                      01602  
                      01603 
                      01604  
                      01605  FAR_CALL putTextB ,kpush
0001   ????               M  pagesel kpush
0002   2???               M  call kpush
0003   ????               M  pagesel putTextB  ;This one restores the caller's code page
                      01606 
                      01607 
0004   3000           01608  movlw .0
                      01609 
                      01610    
                      01611  HALF_FAR_CALL safepush
0005   ????               M  pagesel safepush       
0006   2???               M  call safepush
                      01612 
                      01613 
                      01614  
                      01615  HALF_FAR_CALL putiTextB
0007   ????               M  pagesel putiTextB      
0008   2???               M  call putiTextB
                      01616 
                      01617 
                      01618  
                      01619  FAR_CALL putTextB,kpop
0009   ????               M  pagesel kpop
000A   2???               M  call kpop
000B   ????               M  pagesel putTextB  ;This one restores the caller's code page
                      01620 
                      01621 ;LOAD POINTER
000C   0084           01622  movwf FSR
                      01623  
                      01624 
000D   0008           01625  return
                      01626  
                      01627 
                      01628 hllt4519 CODE
0000                  01629 putiTextB:
0000   0804           01630  movf FSR,w
                      01631  
                      01632 
                      01633  
                      01634  FAR_CALL putiTextB ,kpush
MPASM  5.37                        TARGET.ASM   2-2-2013  15:45:46         PAGE 45


LOC  OBJECT CODE     LINE SOURCE TEXT
  VALUE

0001   ????               M  pagesel kpush
0002   2???               M  call kpush
0003   ????               M  pagesel putiTextB ;This one restores the caller's code page
                      01635 
                      01636 
0004   3000           01637  movlw .0
                      01638 
                      01639    
                      01640  HALF_FAR_CALL safepush
0005   ????               M  pagesel safepush       
0006   2???               M  call safepush
                      01641 
                      01642 
                      01643  
                      01644  HALF_FAR_CALL parm
0007   ????               M  pagesel parm           
0008   2???               M  call parm
                      01645 
                      01646 
                      01647  
                      01648  HALF_FAR_CALL TextB
0009   ????               M  pagesel TextB          
000A   2???               M  call TextB
                      01649 
                      01650 
                      01651    
                      01652  FAR_CALL putiTextB ,safepush
000B   ????               M  pagesel safepush
000C   2???               M  call safepush
000D   ????               M  pagesel putiTextB ;This one restores the caller's code page
                      01653 
                      01654 
000E   3000           01655  movlw .0 
                      01656 
                      01657    
                      01658  HALF_FAR_CALL safepush
000F   ????               M  pagesel safepush       
0010   2???               M  call safepush
                      01659 
                      01660 
                      01661  
                      01662  FAR_CALL putiTextB,eq
0011   ????               M  pagesel eq
0012   2???               M  call eq
0013   ????               M  pagesel putiTextB ;This one restores the caller's code page
                      01663 
                      01664  POP
0014   0800               M  movfw INDF ; preserve the safety of this code under interruptible conditions. 
0015   0384               M  decf FSR,f 
0016   3A00           01665  xorlw .0
0017   1903           01666  btfsc STATUS,Z
0018   2???           01667  goto hlllb51J17 
                      01668  
MPASM  5.37                        TARGET.ASM   2-2-2013  15:45:46         PAGE 46


LOC  OBJECT CODE     LINE SOURCE TEXT
  VALUE

                      01669  
0019   2???           01670  goto hlllb51J18
                      01671  
                      01672 
001A                  01673 hlllb51J17:
                      01674 
                      01675 
001A   3000           01676  movlw .0
                      01677 
                      01678    
                      01679  HALF_FAR_CALL safepush
001B   ????               M  pagesel safepush       
001C   2???               M  call safepush
                      01680 
                      01681 
                      01682  
                      01683  HALF_FAR_CALL parm
001D   ????               M  pagesel parm           
001E   2???               M  call parm
                      01684 
                      01685 
                      01686  
                      01687  HALF_FAR_CALL TextB
001F   ????               M  pagesel TextB          
0020   2???               M  call TextB
                      01688 
                      01689 
                      01690    
                      01691  HALF_FAR_CALL safepush
0021   ????               M  pagesel safepush       
0022   2???               M  call safepush
                      01692 
                      01693 
                      01694  
                      01695  FAR_CALL putiTextB,printch
0023   ????               M  pagesel printch
0024   2???               M  call printch
0025   ????               M  pagesel putiTextB ;This one restores the caller's code page
                      01696 
                      01697 
0026   3001           01698  movlw .1
                      01699 
                      01700    
                      01701  HALF_FAR_CALL safepush
0027   ????               M  pagesel safepush       
0028   2???               M  call safepush
                      01702 
                      01703 
                      01704  
                      01705  FAR_CALL putiTextB,add
0029   ????               M  pagesel add
002A   2???               M  call add
002B   ????               M  pagesel putiTextB ;This one restores the caller's code page
MPASM  5.37                        TARGET.ASM   2-2-2013  15:45:46         PAGE 47


LOC  OBJECT CODE     LINE SOURCE TEXT
  VALUE

                      01706 
                      01707  ;
                      01708 
                      01709  KDISCARD 
002C   03??               M  decf alt_fsr,f 
002D   2???           01710  goto putiTextB
002E                  01711 hlllb51J18:
                      01712 
                      01713  KDISCARD 
002E   03??               M  decf alt_fsr,f 
002F   0008           01714  return 
                      01715 
                      01716  
                      01717 
                      01718 hllt4520 CODE
                      01719  HLTABLE  TextC
0000                      M TextC:
0000   30??               M  movlw high TextC2     ; Necess. b/c writes to PCL take 5 bits fr. PCLATH
0001   008A               M  movwf PCLATH ; and PAGESEL doesn't take care of all 5
0002   30??               M  movlw low TextC2     ; Perform pointer arithmetic
0003   0700               M  addwf INDF,w 
0004   0384               M  decf FSR,f
0005   1803               M  btfsc STATUS,C ; Necess. b/c writes to PCL take 5 bits fr. PCLATH
0006   0A8A               M  incf PCLATH,f 
0007   0082               M  movwf PCL 
0008                      M TextC2:     
                          M  ;retlw K, retlw K, etc. go here
                      01720 
                      01721 
0008   340D           01722  retlw .13
                      01723 
0009   340A           01724  retlw .10
                      01725 
000A   3453           01726  retlw .83
                      01727  
                      01728 
000B   346D           01729  retlw .109
                      01730  
                      01731 
000C   346F           01732  retlw .111
                      01733  
                      01734 
000D   346B           01735  retlw .107
                      01736  
                      01737 
000E   3465           01738  retlw .101
                      01739  
                      01740 
000F   3420           01741  retlw .32
                      01742  
                      01743 
0010   3453           01744  retlw .83
                      01745  
MPASM  5.37                        TARGET.ASM   2-2-2013  15:45:46         PAGE 48


LOC  OBJECT CODE     LINE SOURCE TEXT
  VALUE

                      01746 
0011   3469           01747  retlw .105
                      01748  
                      01749 
0012   3467           01750  retlw .103
                      01751  
                      01752 
0013   346E           01753  retlw .110
                      01754  
                      01755 
0014   3461           01756  retlw .97
                      01757  
                      01758 
0015   346C           01759  retlw .108
                      01760  
                      01761 
0016   3420           01762  retlw .32
                      01763  
                      01764 
0017   3442           01765  retlw .66
                      01766  
                      01767 
0018   3472           01768  retlw .114
                      01769  
                      01770 
0019   346F           01771  retlw .111
                      01772  
                      01773 
001A   3461           01774  retlw .97
                      01775  
                      01776 
001B   3464           01777  retlw .100
                      01778  
                      01779 
001C   3463           01780  retlw .99
                      01781  
                      01782 
001D   3461           01783  retlw .97
                      01784  
                      01785 
001E   3473           01786  retlw .115
                      01787  
                      01788 
001F   3474           01789  retlw .116
                      01790  
                      01791 
0020   3469           01792  retlw .105
                      01793  
                      01794 
0021   346E           01795  retlw .110
                      01796  
                      01797 
0022   3467           01798  retlw .103
MPASM  5.37                        TARGET.ASM   2-2-2013  15:45:46         PAGE 49


LOC  OBJECT CODE     LINE SOURCE TEXT
  VALUE

                      01799  
                      01800 
0023   342E           01801  retlw .46
                      01802  
                      01803 
0024   3420           01804  retlw .32
                      01805  
                      01806 
0025   344D           01807  retlw .77
                      01808  
                      01809 
0026   346F           01810  retlw .111
                      01811  
                      01812 
0027   3474           01813  retlw .116
                      01814  
                      01815 
0028   346F           01816  retlw .111
                      01817  
                      01818 
0029   3472           01819  retlw .114
                      01820  
                      01821 
002A   346F           01822  retlw .111
                      01823  
                      01824 
002B   346C           01825  retlw .108
                      01826  
                      01827 
002C   3461           01828  retlw .97
                      01829  
                      01830 
002D   3420           01831  retlw .32
                      01832  
                      01833 
002E   3463           01834  retlw .99
                      01835  
                      01836 
002F   3461           01837  retlw .97
                      01838  
                      01839 
0030   346C           01840  retlw .108
                      01841  
                      01842 
0031   346C           01843  retlw .108
                      01844  
                      01845 
0032   3465           01846  retlw .101
                      01847  
                      01848 
0033   3464           01849  retlw .100
                      01850  
                      01851 
MPASM  5.37                        TARGET.ASM   2-2-2013  15:45:46         PAGE 50


LOC  OBJECT CODE     LINE SOURCE TEXT
  VALUE

0034   3420           01852  retlw .32
                      01853  
                      01854 
0035   3469           01855  retlw .105
                      01856  
                      01857 
0036   3474           01858  retlw .116
                      01859  
                      01860 
0037   3420           01861  retlw .32
                      01862  
                      01863 
0038   3461           01864  retlw .97
                      01865  
                      01866 
0039   346E           01867  retlw .110
                      01868  
                      01869 
003A   3420           01870  retlw .32
                      01871  
                      01872 
003B   3427           01873  retlw .39
                      01874  
                      01875 
003C   3438           01876  retlw .56
                      01877  
                      01878 
003D   342D           01879  retlw .45
                      01880  
                      01881 
003E   3462           01882  retlw .98
                      01883  
                      01884 
003F   3469           01885  retlw .105
                      01886  
                      01887 
0040   3474           01888  retlw .116
                      01889  
                      01890 
0041   3420           01891  retlw .32
                      01892  
                      01893 
0042   3450           01894  retlw .80
                      01895  
                      01896 
0043   346C           01897  retlw .108
                      01898  
                      01899 
0044   3475           01900  retlw .117
                      01901  
                      01902 
0045   3473           01903  retlw .115
                      01904  
MPASM  5.37                        TARGET.ASM   2-2-2013  15:45:46         PAGE 51


LOC  OBJECT CODE     LINE SOURCE TEXT
  VALUE

                      01905 
0046   3427           01906  retlw .39
                      01907  
                      01908 
0047   3420           01909  retlw .32
                      01910  
                      01911 
0048   3464           01912  retlw .100
                      01913  
                      01914 
0049   3465           01915  retlw .101
                      01916  
                      01917 
004A   3473           01918  retlw .115
                      01919  
                      01920 
004B   3469           01921  retlw .105
                      01922  
                      01923 
004C   3467           01924  retlw .103
                      01925  
                      01926 
004D   346E           01927  retlw .110
                      01928  
                      01929 
004E   342E           01930  retlw .46
                      01931  
                      01932 
004F   3420           01933  retlw .32
                      01934  
                      01935 
0050   3420           01936  retlw .32
                      01937  
                      01938 
0051   3420           01939  retlw .32
                      01940  
                      01941 
0052   3420           01942  retlw .32
                      01943  
                      01944 
0053   3400           01945  retlw .0
                      01946 
0054   3400           01947  retlw .0
                      01948 
                      01949 hllt4521 CODE
0000                  01950 putTextC:
0000   0804           01951  movf FSR,w
                      01952  
                      01953 
                      01954  
                      01955  FAR_CALL putTextC ,kpush
0001   ????               M  pagesel kpush
0002   2???               M  call kpush
MPASM  5.37                        TARGET.ASM   2-2-2013  15:45:46         PAGE 52


LOC  OBJECT CODE     LINE SOURCE TEXT
  VALUE

0003   ????               M  pagesel putTextC  ;This one restores the caller's code page
                      01956 
                      01957 
0004   3000           01958  movlw .0
                      01959 
                      01960    
                      01961  HALF_FAR_CALL safepush
0005   ????               M  pagesel safepush       
0006   2???               M  call safepush
                      01962 
                      01963 
                      01964  
                      01965  HALF_FAR_CALL putiTextC
0007   ????               M  pagesel putiTextC      
0008   2???               M  call putiTextC
                      01966 
                      01967 
                      01968  
                      01969  FAR_CALL putTextC,kpop
0009   ????               M  pagesel kpop
000A   2???               M  call kpop
000B   ????               M  pagesel putTextC  ;This one restores the caller's code page
                      01970 
                      01971 ;LOAD POINTER
000C   0084           01972  movwf FSR
                      01973  
                      01974 
000D   0008           01975  return
                      01976  
                      01977 
                      01978 hllt4524 CODE
0000                  01979 putiTextC:
0000   0804           01980  movf FSR,w
                      01981  
                      01982 
                      01983  
                      01984  FAR_CALL putiTextC ,kpush
0001   ????               M  pagesel kpush
0002   2???               M  call kpush
0003   ????               M  pagesel putiTextC ;This one restores the caller's code page
                      01985 
                      01986 
0004   3000           01987  movlw .0
                      01988 
                      01989    
                      01990  HALF_FAR_CALL safepush
0005   ????               M  pagesel safepush       
0006   2???               M  call safepush
                      01991 
                      01992 
                      01993  
                      01994  HALF_FAR_CALL parm
0007   ????               M  pagesel parm           
MPASM  5.37                        TARGET.ASM   2-2-2013  15:45:46         PAGE 53


LOC  OBJECT CODE     LINE SOURCE TEXT
  VALUE

0008   2???               M  call parm
                      01995 
                      01996 
                      01997  
                      01998  HALF_FAR_CALL TextC
0009   ????               M  pagesel TextC          
000A   2???               M  call TextC
                      01999 
                      02000 
                      02001    
                      02002  FAR_CALL putiTextC ,safepush
000B   ????               M  pagesel safepush
000C   2???               M  call safepush
000D   ????               M  pagesel putiTextC ;This one restores the caller's code page
                      02003 
                      02004 
000E   3000           02005  movlw .0 
                      02006 
                      02007    
                      02008  HALF_FAR_CALL safepush
000F   ????               M  pagesel safepush       
0010   2???               M  call safepush
                      02009 
                      02010 
                      02011  
                      02012  FAR_CALL putiTextC,eq
0011   ????               M  pagesel eq
0012   2???               M  call eq
0013   ????               M  pagesel putiTextC ;This one restores the caller's code page
                      02013 
                      02014  POP
0014   0800               M  movfw INDF ; preserve the safety of this code under interruptible conditions. 
0015   0384               M  decf FSR,f 
0016   3A00           02015  xorlw .0
0017   1903           02016  btfsc STATUS,Z
0018   2???           02017  goto hlllb51J22 
                      02018  
                      02019  
0019   2???           02020  goto hlllb51J23
                      02021  
                      02022 
001A                  02023 hlllb51J22:
                      02024 
                      02025 
001A   3000           02026  movlw .0
                      02027 
                      02028    
                      02029  HALF_FAR_CALL safepush
001B   ????               M  pagesel safepush       
001C   2???               M  call safepush
                      02030 
                      02031 
                      02032  
MPASM  5.37                        TARGET.ASM   2-2-2013  15:45:46         PAGE 54


LOC  OBJECT CODE     LINE SOURCE TEXT
  VALUE

                      02033  HALF_FAR_CALL parm
001D   ????               M  pagesel parm           
001E   2???               M  call parm
                      02034 
                      02035 
                      02036  
                      02037  HALF_FAR_CALL TextC
001F   ????               M  pagesel TextC          
0020   2???               M  call TextC
                      02038 
                      02039 
                      02040    
                      02041  HALF_FAR_CALL safepush
0021   ????               M  pagesel safepush       
0022   2???               M  call safepush
                      02042 
                      02043 
                      02044  
                      02045  FAR_CALL putiTextC,printch
0023   ????               M  pagesel printch
0024   2???               M  call printch
0025   ????               M  pagesel putiTextC ;This one restores the caller's code page
                      02046 
                      02047 
0026   3001           02048  movlw .1
                      02049 
                      02050    
                      02051  HALF_FAR_CALL safepush
0027   ????               M  pagesel safepush       
0028   2???               M  call safepush
                      02052 
                      02053 
                      02054  
                      02055  FAR_CALL putiTextC,add
0029   ????               M  pagesel add
002A   2???               M  call add
002B   ????               M  pagesel putiTextC ;This one restores the caller's code page
                      02056 
                      02057  ;
                      02058 
                      02059  KDISCARD 
002C   03??               M  decf alt_fsr,f 
002D   2???           02060  goto putiTextC
002E                  02061 hlllb51J23:
                      02062 
                      02063  KDISCARD 
002E   03??               M  decf alt_fsr,f 
002F   0008           02064  return 
                      02065 
                      02066  
                      02067 
                      02068 hllt4525 CODE
                      02069  HLTABLE  TextE
MPASM  5.37                        TARGET.ASM   2-2-2013  15:45:46         PAGE 55


LOC  OBJECT CODE     LINE SOURCE TEXT
  VALUE

0000                      M TextE:
0000   30??               M  movlw high TextE2     ; Necess. b/c writes to PCL take 5 bits fr. PCLATH
0001   008A               M  movwf PCLATH ; and PAGESEL doesn't take care of all 5
0002   30??               M  movlw low TextE2     ; Perform pointer arithmetic
0003   0700               M  addwf INDF,w 
0004   0384               M  decf FSR,f
0005   1803               M  btfsc STATUS,C ; Necess. b/c writes to PCL take 5 bits fr. PCLATH
0006   0A8A               M  incf PCLATH,f 
0007   0082               M  movwf PCL 
0008                      M TextE2:     
                          M  ;retlw K, retlw K, etc. go here
                      02070 
                      02071 
0008   340D           02072  retlw .13
                      02073 
0009   340A           02074  retlw .10
                      02075 
000A   3420           02076  retlw .32
                      02077  
                      02078 
000B   3420           02079  retlw .32
                      02080  
                      02081 
000C   3420           02082  retlw .32
                      02083  
                      02084 
000D   3420           02085  retlw .32
                      02086  
                      02087 
000E   3420           02088  retlw .32
                      02089  
                      02090 
000F   3420           02091  retlw .32
                      02092  
                      02093 
0010   3420           02094  retlw .32
                      02095  
                      02096 
0011   3420           02097  retlw .32
                      02098  
                      02099 
0012   3420           02100  retlw .32
                      02101  
                      02102 
0013   3420           02103  retlw .32
                      02104  
                      02105 
0014   3420           02106  retlw .32
                      02107  
                      02108 
0015   3420           02109  retlw .32
                      02110  
                      02111 
MPASM  5.37                        TARGET.ASM   2-2-2013  15:45:46         PAGE 56


LOC  OBJECT CODE     LINE SOURCE TEXT
  VALUE

0016   3420           02112  retlw .32
                      02113  
                      02114 
0017   3420           02115  retlw .32
                      02116  
                      02117 
0018   3420           02118  retlw .32
                      02119  
                      02120 
0019   3420           02121  retlw .32
                      02122  
                      02123 
001A   3420           02124  retlw .32
                      02125  
                      02126 
001B   3420           02127  retlw .32
                      02128  
                      02129 
001C   3420           02130  retlw .32
                      02131  
                      02132 
001D   3420           02133  retlw .32
                      02134  
                      02135 
001E   3420           02136  retlw .32
                      02137  
                      02138 
001F   3420           02139  retlw .32
                      02140  
                      02141 
0020   3420           02142  retlw .32
                      02143  
                      02144 
0021   3420           02145  retlw .32
                      02146  
                      02147 
0022   3420           02148  retlw .32
                      02149  
                      02150 
0023   3420           02151  retlw .32
                      02152  
                      02153 
0024   3420           02154  retlw .32
                      02155  
                      02156 
0025   3420           02157  retlw .32
                      02158  
                      02159 
0026   3420           02160  retlw .32
                      02161  
                      02162 
0027   3420           02163  retlw .32
                      02164  
MPASM  5.37                        TARGET.ASM   2-2-2013  15:45:46         PAGE 57


LOC  OBJECT CODE     LINE SOURCE TEXT
  VALUE

                      02165 
0028   3420           02166  retlw .32
                      02167  
                      02168 
0029   3420           02169  retlw .32
                      02170  
                      02171 
002A   3420           02172  retlw .32
                      02173  
                      02174 
002B   3420           02175  retlw .32
                      02176  
                      02177 
002C   3420           02178  retlw .32
                      02179  
                      02180 
002D   3420           02181  retlw .32
                      02182  
                      02183 
002E   3420           02184  retlw .32
                      02185  
                      02186 
002F   3420           02187  retlw .32
                      02188  
                      02189 
0030   3420           02190  retlw .32
                      02191  
                      02192 
0031   3420           02193  retlw .32
                      02194  
                      02195 
0032   3420           02196  retlw .32
                      02197  
                      02198 
0033   3420           02199  retlw .32
                      02200  
                      02201 
0034   3420           02202  retlw .32
                      02203  
                      02204 
0035   3420           02205  retlw .32
                      02206  
                      02207 
0036   3420           02208  retlw .32
                      02209  
                      02210 
0037   3420           02211  retlw .32
                      02212  
                      02213 
0038   3420           02214  retlw .32
                      02215  
                      02216 
0039   3420           02217  retlw .32
MPASM  5.37                        TARGET.ASM   2-2-2013  15:45:46         PAGE 58


LOC  OBJECT CODE     LINE SOURCE TEXT
  VALUE

                      02218  
                      02219 
003A   3420           02220  retlw .32
                      02221  
                      02222 
003B   3420           02223  retlw .32
                      02224  
                      02225 
003C   3420           02226  retlw .32
                      02227  
                      02228 
003D   3420           02229  retlw .32
                      02230  
                      02231 
003E   3420           02232  retlw .32
                      02233  
                      02234 
003F   3420           02235  retlw .32
                      02236  
                      02237 
0040   3420           02238  retlw .32
                      02239  
                      02240 
0041   3420           02241  retlw .32
                      02242  
                      02243 
0042   3420           02244  retlw .32
                      02245  
                      02246 
0043   3420           02247  retlw .32
                      02248  
                      02249 
0044   3420           02250  retlw .32
                      02251  
                      02252 
0045   3420           02253  retlw .32
                      02254  
                      02255 
0046   3420           02256  retlw .32
                      02257  
                      02258 
0047   3420           02259  retlw .32
                      02260  
                      02261 
0048   3420           02262  retlw .32
                      02263  
                      02264 
0049   3420           02265  retlw .32
                      02266  
                      02267 
004A   3420           02268  retlw .32
                      02269  
                      02270 
MPASM  5.37                        TARGET.ASM   2-2-2013  15:45:46         PAGE 59


LOC  OBJECT CODE     LINE SOURCE TEXT
  VALUE

004B   3420           02271  retlw .32
                      02272  
                      02273 
004C   3420           02274  retlw .32
                      02275  
                      02276 
004D   3420           02277  retlw .32
                      02278  
                      02279 
004E   3420           02280  retlw .32
                      02281  
                      02282 
004F   3420           02283  retlw .32
                      02284  
                      02285 
0050   3420           02286  retlw .32
                      02287  
                      02288 
0051   3420           02289  retlw .32
                      02290  
                      02291 
0052   3420           02292  retlw .32
                      02293  
                      02294 
0053   3400           02295  retlw .0
                      02296 
0054   3400           02297  retlw .0
                      02298 
                      02299 hllt4526 CODE
0000                  02300 putTextE:
0000   0804           02301  movf FSR,w
                      02302  
                      02303 
                      02304  
                      02305  FAR_CALL putTextE ,kpush
0001   ????               M  pagesel kpush
0002   2???               M  call kpush
0003   ????               M  pagesel putTextE  ;This one restores the caller's code page
                      02306 
                      02307 
0004   3000           02308  movlw .0
                      02309 
                      02310    
                      02311  HALF_FAR_CALL safepush
0005   ????               M  pagesel safepush       
0006   2???               M  call safepush
                      02312 
                      02313 
                      02314  
                      02315  HALF_FAR_CALL putiTextE
0007   ????               M  pagesel putiTextE      
0008   2???               M  call putiTextE
                      02316 
MPASM  5.37                        TARGET.ASM   2-2-2013  15:45:46         PAGE 60


LOC  OBJECT CODE     LINE SOURCE TEXT
  VALUE

                      02317 
                      02318  
                      02319  FAR_CALL putTextE,kpop
0009   ????               M  pagesel kpop
000A   2???               M  call kpop
000B   ????               M  pagesel putTextE  ;This one restores the caller's code page
                      02320 
                      02321 ;LOAD POINTER
000C   0084           02322  movwf FSR
                      02323  
                      02324 
000D   0008           02325  return
                      02326  
                      02327 
                      02328 hllt4529 CODE
0000                  02329 putiTextE:
0000   0804           02330  movf FSR,w
                      02331  
                      02332 
                      02333  
                      02334  FAR_CALL putiTextE ,kpush
0001   ????               M  pagesel kpush
0002   2???               M  call kpush
0003   ????               M  pagesel putiTextE ;This one restores the caller's code page
                      02335 
                      02336 
0004   3000           02337  movlw .0
                      02338 
                      02339    
                      02340  HALF_FAR_CALL safepush
0005   ????               M  pagesel safepush       
0006   2???               M  call safepush
                      02341 
                      02342 
                      02343  
                      02344  HALF_FAR_CALL parm
0007   ????               M  pagesel parm           
0008   2???               M  call parm
                      02345 
                      02346 
                      02347  
                      02348  HALF_FAR_CALL TextE
0009   ????               M  pagesel TextE          
000A   2???               M  call TextE
                      02349 
                      02350 
                      02351    
                      02352  FAR_CALL putiTextE ,safepush
000B   ????               M  pagesel safepush
000C   2???               M  call safepush
000D   ????               M  pagesel putiTextE ;This one restores the caller's code page
                      02353 
                      02354 
MPASM  5.37                        TARGET.ASM   2-2-2013  15:45:46         PAGE 61


LOC  OBJECT CODE     LINE SOURCE TEXT
  VALUE

000E   3000           02355  movlw .0 
                      02356 
                      02357    
                      02358  HALF_FAR_CALL safepush
000F   ????               M  pagesel safepush       
0010   2???               M  call safepush
                      02359 
                      02360 
                      02361  
                      02362  FAR_CALL putiTextE,eq
0011   ????               M  pagesel eq
0012   2???               M  call eq
0013   ????               M  pagesel putiTextE ;This one restores the caller's code page
                      02363 
                      02364  POP
0014   0800               M  movfw INDF ; preserve the safety of this code under interruptible conditions. 
0015   0384               M  decf FSR,f 
0016   3A00           02365  xorlw .0
0017   1903           02366  btfsc STATUS,Z
0018   2???           02367  goto hlllb51J27 
                      02368  
                      02369  
0019   2???           02370  goto hlllb51J28
                      02371  
                      02372 
001A                  02373 hlllb51J27:
                      02374 
                      02375 
001A   3000           02376  movlw .0
                      02377 
                      02378    
                      02379  HALF_FAR_CALL safepush
001B   ????               M  pagesel safepush       
001C   2???               M  call safepush
                      02380 
                      02381 
                      02382  
                      02383  HALF_FAR_CALL parm
001D   ????               M  pagesel parm           
001E   2???               M  call parm
                      02384 
                      02385 
                      02386  
                      02387  HALF_FAR_CALL TextE
001F   ????               M  pagesel TextE          
0020   2???               M  call TextE
                      02388 
                      02389 
                      02390    
                      02391  HALF_FAR_CALL safepush
0021   ????               M  pagesel safepush       
0022   2???               M  call safepush
                      02392 
MPASM  5.37                        TARGET.ASM   2-2-2013  15:45:46         PAGE 62


LOC  OBJECT CODE     LINE SOURCE TEXT
  VALUE

                      02393 
                      02394  
                      02395  FAR_CALL putiTextE,printch
0023   ????               M  pagesel printch
0024   2???               M  call printch
0025   ????               M  pagesel putiTextE ;This one restores the caller's code page
                      02396 
                      02397 
0026   3001           02398  movlw .1
                      02399 
                      02400    
                      02401  HALF_FAR_CALL safepush
0027   ????               M  pagesel safepush       
0028   2???               M  call safepush
                      02402 
                      02403 
                      02404  
                      02405  FAR_CALL putiTextE,add
0029   ????               M  pagesel add
002A   2???               M  call add
002B   ????               M  pagesel putiTextE ;This one restores the caller's code page
                      02406 
                      02407  ;
                      02408 
                      02409  KDISCARD 
002C   03??               M  decf alt_fsr,f 
002D   2???           02410  goto putiTextE
002E                  02411 hlllb51J28:
                      02412 
                      02413  KDISCARD 
002E   03??               M  decf alt_fsr,f 
002F   0008           02414  return 
                      02415 
                      02416  
                      02417 
                      02418 hllt4546 CODE
0000                  02419 handler:
0000   0804           02420  movf FSR,w
                      02421  
                      02422 
                      02423  
                      02424  FAR_CALL handler ,kpush
0001   ????               M  pagesel kpush
0002   2???               M  call kpush
0003   ????               M  pagesel handler   ;This one restores the caller's code page
                      02425 
                      02426 
0004   3000           02427  movlw .0 
                      02428 
                      02429    
                      02430  FAR_CALL handler ,safepush
0005   ????               M  pagesel safepush
0006   2???               M  call safepush
MPASM  5.37                        TARGET.ASM   2-2-2013  15:45:46         PAGE 63


LOC  OBJECT CODE     LINE SOURCE TEXT
  VALUE

0007   ????               M  pagesel handler   ;This one restores the caller's code page
                      02431 
                      02432  POP
0008   0800               M  movfw INDF ; preserve the safety of this code under interruptible conditions. 
0009   0384               M  decf FSR,f 
000A   3A00           02433  xorlw .0
000B   1903           02434  btfsc STATUS,Z
000C   2???           02435  goto hlllb51J44 
                      02436  
                      02437 
000D   3041           02438  movlw .65 
                      02439 
                      02440    
                      02441  FAR_CALL handler ,safepush
000E   ????               M  pagesel safepush
000F   2???               M  call safepush
0010   ????               M  pagesel handler   ;This one restores the caller's code page
                      02442 
                      02443 
0011   3001           02444  movlw .1
                      02445 
                      02446    
                      02447  HALF_FAR_CALL safepush
0012   ????               M  pagesel safepush       
0013   2???               M  call safepush
                      02448 
                      02449 
                      02450  
                      02451  FAR_CALL handler,parm
0014   ????               M  pagesel parm
0015   2???               M  call parm
0016   ????               M  pagesel handler   ;This one restores the caller's code page
                      02452 
                      02453 
0017   3000           02454  movlw .0
                      02455 
                      02456    
                      02457  HALF_FAR_CALL safepush
0018   ????               M  pagesel safepush       
0019   2???               M  call safepush
                      02458 
                      02459 
                      02460  
                      02461  FAR_CALL handler,parm
001A   ????               M  pagesel parm
001B   2???               M  call parm
001C   ????               M  pagesel handler   ;This one restores the caller's code page
                      02462 
                      02463 
001D   3000           02464  movlw .0
                      02465  
                      02466 
                      02467 
MPASM  5.37                        TARGET.ASM   2-2-2013  15:45:46         PAGE 64


LOC  OBJECT CODE     LINE SOURCE TEXT
  VALUE

                      02468 
                      02469    
                      02470  FAR_CALL handler ,safepush
001E   ????               M  pagesel safepush
001F   2???               M  call safepush
0020   ????               M  pagesel handler   ;This one restores the caller's code page
                      02471 
                      02472 
0021   3006           02473  movlw .6
                      02474  
                      02475 
                      02476 
                      02477    
                      02478  HALF_FAR_CALL safepush
0022   ????               M  pagesel safepush       
0023   2???               M  call safepush
                      02479 
                      02480 
                      02481  
                      02482  HALF_FAR_CALL divf
0024   ????               M  pagesel divf           
0025   2???               M  call divf
                      02483 
                      02484 
                      02485  
                      02486  HALF_FAR_CALL ftou
0026   ????               M  pagesel ftou           
0027   2???               M  call ftou
                      02487 
                      02488 
                      02489  
                      02490  FAR_CALL handler,plotat
0028   ????               M  pagesel plotat
0029   2???               M  call plotat
002A   ????               M  pagesel handler   ;This one restores the caller's code page
                      02491 
                      02492 
002B   3001           02493  movlw .1 
                      02494 
                      02495    
                      02496  FAR_CALL handler ,safepush
002C   ????               M  pagesel safepush
002D   2???               M  call safepush
002E   ????               M  pagesel handler   ;This one restores the caller's code page
                      02497 
002F   ???? ????      02498    banksel cnt
0031   08??           02499    movfw cnt
                      02500    
                      02501    
                      02502 
                      02503    
                      02504  HALF_FAR_CALL safepush
0032   ????               M  pagesel safepush       
MPASM  5.37                        TARGET.ASM   2-2-2013  15:45:46         PAGE 65


LOC  OBJECT CODE     LINE SOURCE TEXT
  VALUE

0033   2???               M  call safepush
                      02505 
                      02506 
                      02507  
                      02508  FAR_CALL handler,add
0034   ????               M  pagesel add
0035   2???               M  call add
0036   ????               M  pagesel handler   ;This one restores the caller's code page
                      02509 
                      02510  POP
0037   0800               M  movfw INDF ; preserve the safety of this code under interruptible conditions. 
0038   0384               M  decf FSR,f 
0039   ???? ????      02511  banksel cnt
003B   00??           02512  movwf cnt
                      02513  
                      02514 
                      02515 
003C   3008           02516  movlw .8 
                      02517 
                      02518    
                      02519  FAR_CALL handler ,safepush
003D   ????               M  pagesel safepush
003E   2???               M  call safepush
003F   ????               M  pagesel handler   ;This one restores the caller's code page
                      02520 
0040   ???? ????      02521    banksel cnt
0042   08??           02522    movfw cnt
                      02523    
                      02524    
                      02525 
                      02526    
                      02527  FAR_CALL handler ,safepush
0043   ????               M  pagesel safepush
0044   2???               M  call safepush
0045   ????               M  pagesel handler   ;This one restores the caller's code page
                      02528 
                      02529 
0046   3020           02530  movlw .32
                      02531 
                      02532    
                      02533  HALF_FAR_CALL safepush
0047   ????               M  pagesel safepush       
0048   2???               M  call safepush
                      02534 
                      02535 
                      02536  
                      02537  HALF_FAR_CALL modu
0049   ????               M  pagesel modu           
004A   2???               M  call modu
                      02538 
                      02539 
                      02540  
                      02541  FAR_CALL handler,geu
MPASM  5.37                        TARGET.ASM   2-2-2013  15:45:46         PAGE 66


LOC  OBJECT CODE     LINE SOURCE TEXT
  VALUE

004B   ????               M  pagesel geu
004C   2???               M  call geu
004D   ????               M  pagesel handler   ;This one restores the caller's code page
                      02542 
                      02543  POP
004E   0800               M  movfw INDF ; preserve the safety of this code under interruptible conditions. 
004F   0384               M  decf FSR,f 
0050   3A00           02544  xorlw .0
0051   1903           02545  btfsc STATUS,Z
0052   2???           02546  goto hlllb51J30 
                      02547  
                      02548 
                      02549  
                      02550  FAR_CALL handler,putTextA
0053   ????               M  pagesel putTextA
0054   2???               M  call putTextA
0055   ????               M  pagesel handler   ;This one restores the caller's code page
                      02551 
                      02552  
0056   2???           02553  goto hlllb51J31
                      02554  
                      02555 
0057                  02556 hlllb51J30:
                      02557 
                      02558 
0057                  02559 hlllb51J31:
                      02560 
                      02561 
0057   3010           02562  movlw .16 
                      02563 
                      02564    
                      02565  FAR_CALL handler ,safepush
0058   ????               M  pagesel safepush
0059   2???               M  call safepush
005A   ????               M  pagesel handler   ;This one restores the caller's code page
                      02566 
005B   ???? ????      02567    banksel cnt
005D   08??           02568    movfw cnt
                      02569    
                      02570    
                      02571 
                      02572    
                      02573  FAR_CALL handler ,safepush
005E   ????               M  pagesel safepush
005F   2???               M  call safepush
0060   ????               M  pagesel handler   ;This one restores the caller's code page
                      02574 
                      02575 
0061   3020           02576  movlw .32
                      02577 
                      02578    
                      02579  HALF_FAR_CALL safepush
0062   ????               M  pagesel safepush       
MPASM  5.37                        TARGET.ASM   2-2-2013  15:45:46         PAGE 67


LOC  OBJECT CODE     LINE SOURCE TEXT
  VALUE

0063   2???               M  call safepush
                      02580 
                      02581 
                      02582  
                      02583  HALF_FAR_CALL modu
0064   ????               M  pagesel modu           
0065   2???               M  call modu
                      02584 
                      02585 
                      02586  
                      02587  FAR_CALL handler,geu
0066   ????               M  pagesel geu
0067   2???               M  call geu
0068   ????               M  pagesel handler   ;This one restores the caller's code page
                      02588 
                      02589  POP
0069   0800               M  movfw INDF ; preserve the safety of this code under interruptible conditions. 
006A   0384               M  decf FSR,f 
006B   3A00           02590  xorlw .0
006C   1903           02591  btfsc STATUS,Z
006D   2???           02592  goto hlllb51J32 
                      02593  
                      02594 
                      02595  
                      02596  FAR_CALL handler,putTextB
006E   ????               M  pagesel putTextB
006F   2???               M  call putTextB
0070   ????               M  pagesel handler   ;This one restores the caller's code page
                      02597 
                      02598  
0071   2???           02599  goto hlllb51J33
                      02600  
                      02601 
0072                  02602 hlllb51J32:
                      02603 
                      02604 
0072                  02605 hlllb51J33:
                      02606 
                      02607 
0072   3018           02608  movlw .24 
                      02609 
                      02610    
                      02611  FAR_CALL handler ,safepush
0073   ????               M  pagesel safepush
0074   2???               M  call safepush
0075   ????               M  pagesel handler   ;This one restores the caller's code page
                      02612 
0076   ???? ????      02613    banksel cnt
0078   08??           02614    movfw cnt
                      02615    
                      02616    
                      02617 
                      02618    
MPASM  5.37                        TARGET.ASM   2-2-2013  15:45:46         PAGE 68


LOC  OBJECT CODE     LINE SOURCE TEXT
  VALUE

                      02619  FAR_CALL handler ,safepush
0079   ????               M  pagesel safepush
007A   2???               M  call safepush
007B   ????               M  pagesel handler   ;This one restores the caller's code page
                      02620 
                      02621 
007C   3020           02622  movlw .32
                      02623 
                      02624    
                      02625  HALF_FAR_CALL safepush
007D   ????               M  pagesel safepush       
007E   2???               M  call safepush
                      02626 
                      02627 
                      02628  
                      02629  HALF_FAR_CALL modu
007F   ????               M  pagesel modu           
0080   2???               M  call modu
                      02630 
                      02631 
                      02632  
                      02633  FAR_CALL handler,geu
0081   ????               M  pagesel geu
0082   2???               M  call geu
0083   ????               M  pagesel handler   ;This one restores the caller's code page
                      02634 
                      02635  POP
0084   0800               M  movfw INDF ; preserve the safety of this code under interruptible conditions. 
0085   0384               M  decf FSR,f 
0086   3A00           02636  xorlw .0
0087   1903           02637  btfsc STATUS,Z
0088   2???           02638  goto hlllb51J34 
                      02639  
                      02640 
                      02641  
                      02642  FAR_CALL handler,putTextC
0089   ????               M  pagesel putTextC
008A   2???               M  call putTextC
008B   ????               M  pagesel handler   ;This one restores the caller's code page
                      02643 
                      02644  
008C   2???           02645  goto hlllb51J35
                      02646  
                      02647 
008D                  02648 hlllb51J34:
                      02649 
                      02650 
008D                  02651 hlllb51J35:
                      02652 
                      02653 
008D   3008           02654  movlw .8 
                      02655 
                      02656    
MPASM  5.37                        TARGET.ASM   2-2-2013  15:45:46         PAGE 69


LOC  OBJECT CODE     LINE SOURCE TEXT
  VALUE

                      02657  FAR_CALL handler ,safepush
008E   ????               M  pagesel safepush
008F   2???               M  call safepush
0090   ????               M  pagesel handler   ;This one restores the caller's code page
                      02658 
0091   ???? ????      02659    banksel cnt
0093   08??           02660    movfw cnt
                      02661    
                      02662    
                      02663 
                      02664    
                      02665  FAR_CALL handler ,safepush
0094   ????               M  pagesel safepush
0095   2???               M  call safepush
0096   ????               M  pagesel handler   ;This one restores the caller's code page
                      02666 
                      02667 
0097   3020           02668  movlw .32
                      02669 
                      02670    
                      02671  HALF_FAR_CALL safepush
0098   ????               M  pagesel safepush       
0099   2???               M  call safepush
                      02672 
                      02673 
                      02674  
                      02675  HALF_FAR_CALL modu
009A   ????               M  pagesel modu           
009B   2???               M  call modu
                      02676 
                      02677 
                      02678  
                      02679  FAR_CALL handler,geu
009C   ????               M  pagesel geu
009D   2???               M  call geu
009E   ????               M  pagesel handler   ;This one restores the caller's code page
                      02680 
                      02681  POP
009F   0800               M  movfw INDF ; preserve the safety of this code under interruptible conditions. 
00A0   0384               M  decf FSR,f 
00A1   3A00           02682  xorlw .0
00A2   1903           02683  btfsc STATUS,Z
00A3   2???           02684  goto hlllb51J36 
                      02685  
                      02686  
00A4   2???           02687  goto hlllb51J37
                      02688  
                      02689 
00A5                  02690 hlllb51J36:
                      02691 
                      02692 
                      02693  
                      02694  FAR_CALL handler,putTextE
MPASM  5.37                        TARGET.ASM   2-2-2013  15:45:46         PAGE 70


LOC  OBJECT CODE     LINE SOURCE TEXT
  VALUE

00A5   ????               M  pagesel putTextE
00A6   2???               M  call putTextE
00A7   ????               M  pagesel handler   ;This one restores the caller's code page
                      02695 
                      02696 
00A8                  02697 hlllb51J37:
                      02698 
                      02699  
00A8   2???           02700  goto hlllb51J45
                      02701  
                      02702 
00A9                  02703 hlllb51J44:
                      02704 
                      02705 
00A9   3005           02706  movlw .5 
                      02707 
                      02708    
                      02709  FAR_CALL handler ,safepush
00AA   ????               M  pagesel safepush
00AB   2???               M  call safepush
00AC   ????               M  pagesel handler   ;This one restores the caller's code page
                      02710 
                      02711 
00AD   3001           02712  movlw .1
                      02713 
                      02714    
                      02715  HALF_FAR_CALL safepush
00AE   ????               M  pagesel safepush       
00AF   2???               M  call safepush
                      02716 
                      02717 
                      02718  
                      02719  FAR_CALL handler,parm
00B0   ????               M  pagesel parm
00B1   2???               M  call parm
00B2   ????               M  pagesel handler   ;This one restores the caller's code page
                      02720 
                      02721 
00B3   3000           02722  movlw .0
                      02723 
                      02724    
                      02725  HALF_FAR_CALL safepush
00B4   ????               M  pagesel safepush       
00B5   2???               M  call safepush
                      02726 
                      02727 
                      02728  
                      02729  FAR_CALL handler,parm
00B6   ????               M  pagesel parm
00B7   2???               M  call parm
00B8   ????               M  pagesel handler   ;This one restores the caller's code page
                      02730 
                      02731 
MPASM  5.37                        TARGET.ASM   2-2-2013  15:45:46         PAGE 71


LOC  OBJECT CODE     LINE SOURCE TEXT
  VALUE

00B9   3000           02732  movlw .0
                      02733  
                      02734 
                      02735 
                      02736 
                      02737    
                      02738  FAR_CALL handler ,safepush
00BA   ????               M  pagesel safepush
00BB   2???               M  call safepush
00BC   ????               M  pagesel handler   ;This one restores the caller's code page
                      02739 
                      02740 
00BD   3006           02741  movlw .6
                      02742  
                      02743 
                      02744 
                      02745    
                      02746  HALF_FAR_CALL safepush
00BE   ????               M  pagesel safepush       
00BF   2???               M  call safepush
                      02747 
                      02748 
                      02749  
                      02750  HALF_FAR_CALL divf
00C0   ????               M  pagesel divf           
00C1   2???               M  call divf
                      02751 
                      02752 
                      02753  
                      02754  HALF_FAR_CALL ftou
00C2   ????               M  pagesel ftou           
00C3   2???               M  call ftou
                      02755 
                      02756 
                      02757  
                      02758  FAR_CALL handler,plotat
00C4   ????               M  pagesel plotat
00C5   2???               M  call plotat
00C6   ????               M  pagesel handler   ;This one restores the caller's code page
                      02759 
00C7   ???? ????      02760    banksel wasnight
00C9   08??           02761    movfw wasnight
                      02762    
                      02763    
                      02764 
                      02765    
                      02766  FAR_CALL handler ,safepush
00CA   ????               M  pagesel safepush
00CB   2???               M  call safepush
00CC   ????               M  pagesel handler   ;This one restores the caller's code page
                      02767 
                      02768  POP
00CD   0800               M  movfw INDF ; preserve the safety of this code under interruptible conditions. 
MPASM  5.37                        TARGET.ASM   2-2-2013  15:45:46         PAGE 72


LOC  OBJECT CODE     LINE SOURCE TEXT
  VALUE

00CE   0384               M  decf FSR,f 
00CF   3A00           02769  xorlw .0
00D0   1903           02770  btfsc STATUS,Z
00D1   2???           02771  goto hlllb51J42 
                      02772  
                      02773 
00D2   3001           02774  movlw .1
                      02775 
                      02776    
                      02777  HALF_FAR_CALL safepush
00D3   ????               M  pagesel safepush       
00D4   2???               M  call safepush
                      02778 
                      02779 
                      02780  
                      02781  FAR_CALL handler,parm
00D5   ????               M  pagesel parm
00D6   2???               M  call parm
00D7   ????               M  pagesel handler   ;This one restores the caller's code page
                      02782 
                      02783 
00D8   3000           02784  movlw .0
                      02785 
                      02786    
                      02787  HALF_FAR_CALL safepush
00D9   ????               M  pagesel safepush       
00DA   2???               M  call safepush
                      02788 
                      02789 
                      02790  
                      02791  FAR_CALL handler,parm
00DB   ????               M  pagesel parm
00DC   2???               M  call parm
00DD   ????               M  pagesel handler   ;This one restores the caller's code page
                      02792 
                      02793 
00DE   3000           02794  movlw .0
                      02795  
                      02796 
                      02797 
                      02798 
                      02799    
                      02800  FAR_CALL handler ,safepush
00DF   ????               M  pagesel safepush
00E0   2???               M  call safepush
00E1   ????               M  pagesel handler   ;This one restores the caller's code page
                      02801 
                      02802 
00E2   3009           02803  movlw .9
                      02804  
                      02805 
                      02806 
                      02807    
MPASM  5.37                        TARGET.ASM   2-2-2013  15:45:46         PAGE 73


LOC  OBJECT CODE     LINE SOURCE TEXT
  VALUE

                      02808  HALF_FAR_CALL safepush
00E3   ????               M  pagesel safepush       
00E4   2???               M  call safepush
                      02809 
                      02810 
                      02811  
                      02812  FAR_CALL handler,gtf
00E5   ????               M  pagesel gtf
00E6   2???               M  call gtf
00E7   ????               M  pagesel handler   ;This one restores the caller's code page
                      02813 
                      02814  POP
00E8   0800               M  movfw INDF ; preserve the safety of this code under interruptible conditions. 
00E9   0384               M  decf FSR,f 
00EA   3A00           02815  xorlw .0
00EB   1903           02816  btfsc STATUS,Z
00EC   2???           02817  goto hlllb51J38 
                      02818  
                      02819 
                      02820  
                      02821  HALF_FAR_CALL day
00ED   ????               M  pagesel day            
00EE   2???               M  call day
                      02822 
                      02823 
                      02824  
                      02825  FAR_CALL handler,cls
00EF   ????               M  pagesel cls
00F0   2???               M  call cls
00F1   ????               M  pagesel handler   ;This one restores the caller's code page
                      02826 
                      02827 
00F2   3000           02828  movlw .0
                      02829 
                      02830    
                      02831  FAR_CALL handler ,safepush
00F3   ????               M  pagesel safepush
00F4   2???               M  call safepush
00F5   ????               M  pagesel handler   ;This one restores the caller's code page
                      02832 
                      02833  POP
00F6   0800               M  movfw INDF ; preserve the safety of this code under interruptible conditions. 
00F7   0384               M  decf FSR,f 
00F8   ???? ????      02834  banksel wasnight
00FA   00??           02835  movwf wasnight
                      02836  
                      02837 
                      02838  
00FB   2???           02839  goto hlllb51J39
                      02840  
                      02841 
00FC                  02842 hlllb51J38:
                      02843 
MPASM  5.37                        TARGET.ASM   2-2-2013  15:45:46         PAGE 74


LOC  OBJECT CODE     LINE SOURCE TEXT
  VALUE

                      02844 
00FC                  02845 hlllb51J39:
                      02846 
                      02847  
00FC   2???           02848  goto hlllb51J43
                      02849  
                      02850 
00FD                  02851 hlllb51J42:
                      02852 
                      02853 
00FD   3000           02854  movlw .0
                      02855  
                      02856 
                      02857 
                      02858 
                      02859    
                      02860  FAR_CALL handler ,safepush
00FE   ????               M  pagesel safepush
00FF   2???               M  call safepush
0100   ????               M  pagesel handler   ;This one restores the caller's code page
                      02861 
                      02862 
0101   3009           02863  movlw .9
                      02864  
                      02865 
                      02866 
                      02867    
                      02868  FAR_CALL handler ,safepush
0102   ????               M  pagesel safepush
0103   2???               M  call safepush
0104   ????               M  pagesel handler   ;This one restores the caller's code page
                      02869 
                      02870 
0105   3001           02871  movlw .1
                      02872 
                      02873    
                      02874  HALF_FAR_CALL safepush
0106   ????               M  pagesel safepush       
0107   2???               M  call safepush
                      02875 
                      02876 
                      02877  
                      02878  FAR_CALL handler,parm
0108   ????               M  pagesel parm
0109   2???               M  call parm
010A   ????               M  pagesel handler   ;This one restores the caller's code page
                      02879 
                      02880 
010B   3000           02881  movlw .0
                      02882 
                      02883    
                      02884  HALF_FAR_CALL safepush
010C   ????               M  pagesel safepush       
MPASM  5.37                        TARGET.ASM   2-2-2013  15:45:46         PAGE 75


LOC  OBJECT CODE     LINE SOURCE TEXT
  VALUE

010D   2???               M  call safepush
                      02885 
                      02886 
                      02887  
                      02888  HALF_FAR_CALL parm
010E   ????               M  pagesel parm           
010F   2???               M  call parm
                      02889 
                      02890 
                      02891  
                      02892  FAR_CALL handler,gtf
0110   ????               M  pagesel gtf
0111   2???               M  call gtf
0112   ????               M  pagesel handler   ;This one restores the caller's code page
                      02893 
                      02894  POP
0113   0800               M  movfw INDF ; preserve the safety of this code under interruptible conditions. 
0114   0384               M  decf FSR,f 
0115   3A00           02895  xorlw .0
0116   1903           02896  btfsc STATUS,Z
0117   2???           02897  goto hlllb51J40 
                      02898  
                      02899 
                      02900  
                      02901  HALF_FAR_CALL night
0118   ????               M  pagesel night          
0119   2???               M  call night
                      02902 
                      02903 
                      02904  
                      02905  FAR_CALL handler,cls
011A   ????               M  pagesel cls
011B   2???               M  call cls
011C   ????               M  pagesel handler   ;This one restores the caller's code page
                      02906 
                      02907 
011D   3001           02908  movlw .1
                      02909 
                      02910    
                      02911  FAR_CALL handler ,safepush
011E   ????               M  pagesel safepush
011F   2???               M  call safepush
0120   ????               M  pagesel handler   ;This one restores the caller's code page
                      02912 
                      02913  POP
0121   0800               M  movfw INDF ; preserve the safety of this code under interruptible conditions. 
0122   0384               M  decf FSR,f 
0123   ???? ????      02914  banksel wasnight
0125   00??           02915  movwf wasnight
                      02916  
                      02917 
                      02918  
0126   2???           02919  goto hlllb51J41
MPASM  5.37                        TARGET.ASM   2-2-2013  15:45:46         PAGE 76


LOC  OBJECT CODE     LINE SOURCE TEXT
  VALUE

                      02920  
                      02921 
0127                  02922 hlllb51J40:
                      02923 
                      02924 
0127                  02925 hlllb51J41:
                      02926 
                      02927 
0127                  02928 hlllb51J43:
                      02929 
                      02930 
0127                  02931 hlllb51J45:
                      02932 
                      02933 
                      02934  
                      02935  FAR_CALL handler,kpop
0127   ????               M  pagesel kpop
0128   2???               M  call kpop
0129   ????               M  pagesel handler   ;This one restores the caller's code page
                      02936 
                      02937 ;LOAD POINTER
012A   0084           02938  movwf FSR
                      02939  
                      02940 
                      02941  DISCARD
012B   0384               M  decf FSR,f 
                      02942 
                      02943 
                      02944  DISCARD
012C   0384               M  decf FSR,f 
                      02945 
                      02946 
012D   0008           02947  return
                      02948  
                      02949 
                      02950 hllt4547 CODE
0000                  02951 plotat:
0000   0804           02952  movf FSR,w
                      02953  
                      02954 
                      02955  
                      02956  FAR_CALL plotat ,kpush
0001   ????               M  pagesel kpush
0002   2???               M  call kpush
0003   ????               M  pagesel plotat    ;This one restores the caller's code page
                      02957 
                      02958 
0004   300F           02959  movlw .15 
                      02960 
                      02961    
                      02962  FAR_CALL plotat ,safepush
0005   ????               M  pagesel safepush
0006   2???               M  call safepush
MPASM  5.37                        TARGET.ASM   2-2-2013  15:45:46         PAGE 77


LOC  OBJECT CODE     LINE SOURCE TEXT
  VALUE

0007   ????               M  pagesel plotat    ;This one restores the caller's code page
                      02963 
                      02964 
0008   3000           02965  movlw .0
                      02966 
                      02967    
                      02968  HALF_FAR_CALL safepush
0009   ????               M  pagesel safepush       
000A   2???               M  call safepush
                      02969 
                      02970 
                      02971  
                      02972  FAR_CALL plotat,parm
000B   ????               M  pagesel parm
000C   2???               M  call parm
000D   ????               M  pagesel plotat    ;This one restores the caller's code page
                      02973 
                      02974 
000E   3001           02975  movlw .1
                      02976 
                      02977    
                      02978  HALF_FAR_CALL safepush
000F   ????               M  pagesel safepush       
0010   2???               M  call safepush
                      02979 
                      02980 
                      02981  
                      02982  FAR_CALL plotat,parm
0011   ????               M  pagesel parm
0012   2???               M  call parm
0013   ????               M  pagesel plotat    ;This one restores the caller's code page
                      02983 
                      02984 
0014   3007           02985  movlw .7 
                      02986 
                      02987    
                      02988  HALF_FAR_CALL safepush
0015   ????               M  pagesel safepush       
0016   2???               M  call safepush
                      02989 
                      02990 
                      02991  
                      02992  FAR_CALL plotat,graphx
0017   ????               M  pagesel graphx
0018   2???               M  call graphx
0019   ????               M  pagesel plotat    ;This one restores the caller's code page
                      02993 
                      02994 
001A   300F           02995  movlw .15 
                      02996 
                      02997    
                      02998  FAR_CALL plotat ,safepush
001B   ????               M  pagesel safepush
MPASM  5.37                        TARGET.ASM   2-2-2013  15:45:46         PAGE 78


LOC  OBJECT CODE     LINE SOURCE TEXT
  VALUE

001C   2???               M  call safepush
001D   ????               M  pagesel plotat    ;This one restores the caller's code page
                      02999 
                      03000 
001E   3000           03001  movlw .0
                      03002 
                      03003    
                      03004  HALF_FAR_CALL safepush
001F   ????               M  pagesel safepush       
0020   2???               M  call safepush
                      03005 
                      03006 
                      03007  
                      03008  FAR_CALL plotat,parm
0021   ????               M  pagesel parm
0022   2???               M  call parm
0023   ????               M  pagesel plotat    ;This one restores the caller's code page
                      03009 
                      03010 
0024   3001           03011  movlw .1
                      03012 
                      03013    
                      03014  HALF_FAR_CALL safepush
0025   ????               M  pagesel safepush       
0026   2???               M  call safepush
                      03015 
                      03016 
                      03017  
                      03018  FAR_CALL plotat,parm
0027   ????               M  pagesel parm
0028   2???               M  call parm
0029   ????               M  pagesel plotat    ;This one restores the caller's code page
                      03019 
                      03020 
002A   3008           03021  movlw .8 
                      03022 
                      03023    
                      03024  HALF_FAR_CALL safepush
002B   ????               M  pagesel safepush       
002C   2???               M  call safepush
                      03025 
                      03026 
                      03027  
                      03028  FAR_CALL plotat,graphx
002D   ????               M  pagesel graphx
002E   2???               M  call graphx
002F   ????               M  pagesel plotat    ;This one restores the caller's code page
                      03029 
                      03030 
0030   300F           03031  movlw .15 
                      03032 
                      03033    
                      03034  FAR_CALL plotat ,safepush
MPASM  5.37                        TARGET.ASM   2-2-2013  15:45:46         PAGE 79


LOC  OBJECT CODE     LINE SOURCE TEXT
  VALUE

0031   ????               M  pagesel safepush
0032   2???               M  call safepush
0033   ????               M  pagesel plotat    ;This one restores the caller's code page
                      03035 
                      03036 
0034   3000           03037  movlw .0
                      03038 
                      03039    
                      03040  HALF_FAR_CALL safepush
0035   ????               M  pagesel safepush       
0036   2???               M  call safepush
                      03041 
                      03042 
                      03043  
                      03044  FAR_CALL plotat,parm
0037   ????               M  pagesel parm
0038   2???               M  call parm
0039   ????               M  pagesel plotat    ;This one restores the caller's code page
                      03045 
                      03046 
003A   3001           03047  movlw .1
                      03048 
                      03049    
                      03050  HALF_FAR_CALL safepush
003B   ????               M  pagesel safepush       
003C   2???               M  call safepush
                      03051 
                      03052 
                      03053  
                      03054  FAR_CALL plotat,parm
003D   ????               M  pagesel parm
003E   2???               M  call parm
003F   ????               M  pagesel plotat    ;This one restores the caller's code page
                      03055 
                      03056 
0040   3009           03057  movlw .9 
                      03058 
                      03059    
                      03060  HALF_FAR_CALL safepush
0041   ????               M  pagesel safepush       
0042   2???               M  call safepush
                      03061 
                      03062 
                      03063  
                      03064  FAR_CALL plotat,graphx
0043   ????               M  pagesel graphx
0044   2???               M  call graphx
0045   ????               M  pagesel plotat    ;This one restores the caller's code page
                      03065 
                      03066 
0046   300F           03067  movlw .15 
                      03068 
                      03069    
MPASM  5.37                        TARGET.ASM   2-2-2013  15:45:46         PAGE 80


LOC  OBJECT CODE     LINE SOURCE TEXT
  VALUE

                      03070  FAR_CALL plotat ,safepush
0047   ????               M  pagesel safepush
0048   2???               M  call safepush
0049   ????               M  pagesel plotat    ;This one restores the caller's code page
                      03071 
                      03072 
004A   3000           03073  movlw .0
                      03074 
                      03075    
                      03076  HALF_FAR_CALL safepush
004B   ????               M  pagesel safepush       
004C   2???               M  call safepush
                      03077 
                      03078 
                      03079  
                      03080  FAR_CALL plotat,parm
004D   ????               M  pagesel parm
004E   2???               M  call parm
004F   ????               M  pagesel plotat    ;This one restores the caller's code page
                      03081 
                      03082 
0050   3001           03083  movlw .1
                      03084 
                      03085    
                      03086  HALF_FAR_CALL safepush
0051   ????               M  pagesel safepush       
0052   2???               M  call safepush
                      03087 
                      03088 
                      03089  
                      03090  FAR_CALL plotat,parm
0053   ????               M  pagesel parm
0054   2???               M  call parm
0055   ????               M  pagesel plotat    ;This one restores the caller's code page
                      03091 
                      03092 
0056   300B           03093  movlw .11 
                      03094 
                      03095    
                      03096  HALF_FAR_CALL safepush
0057   ????               M  pagesel safepush       
0058   2???               M  call safepush
                      03097 
                      03098 
                      03099  
                      03100  FAR_CALL plotat,graphx
0059   ????               M  pagesel graphx
005A   2???               M  call graphx
005B   ????               M  pagesel plotat    ;This one restores the caller's code page
                      03101 
                      03102 
005C   300F           03103  movlw .15 
                      03104 
MPASM  5.37                        TARGET.ASM   2-2-2013  15:45:46         PAGE 81


LOC  OBJECT CODE     LINE SOURCE TEXT
  VALUE

                      03105    
                      03106  FAR_CALL plotat ,safepush
005D   ????               M  pagesel safepush
005E   2???               M  call safepush
005F   ????               M  pagesel plotat    ;This one restores the caller's code page
                      03107 
                      03108 
0060   3000           03109  movlw .0
                      03110 
                      03111    
                      03112  HALF_FAR_CALL safepush
0061   ????               M  pagesel safepush       
0062   2???               M  call safepush
                      03113 
                      03114 
                      03115  
                      03116  FAR_CALL plotat,parm
0063   ????               M  pagesel parm
0064   2???               M  call parm
0065   ????               M  pagesel plotat    ;This one restores the caller's code page
                      03117 
                      03118 
0066   3001           03119  movlw .1
                      03120 
                      03121    
                      03122  HALF_FAR_CALL safepush
0067   ????               M  pagesel safepush       
0068   2???               M  call safepush
                      03123 
                      03124 
                      03125  
                      03126  FAR_CALL plotat,parm
0069   ????               M  pagesel parm
006A   2???               M  call parm
006B   ????               M  pagesel plotat    ;This one restores the caller's code page
                      03127 
                      03128 
006C   300C           03129  movlw .12 
                      03130 
                      03131    
                      03132  HALF_FAR_CALL safepush
006D   ????               M  pagesel safepush       
006E   2???               M  call safepush
                      03133 
                      03134 
                      03135  
                      03136  FAR_CALL plotat,graphx
006F   ????               M  pagesel graphx
0070   2???               M  call graphx
0071   ????               M  pagesel plotat    ;This one restores the caller's code page
                      03137 
                      03138 
0072   300F           03139  movlw .15 
MPASM  5.37                        TARGET.ASM   2-2-2013  15:45:46         PAGE 82


LOC  OBJECT CODE     LINE SOURCE TEXT
  VALUE

                      03140 
                      03141    
                      03142  FAR_CALL plotat ,safepush
0073   ????               M  pagesel safepush
0074   2???               M  call safepush
0075   ????               M  pagesel plotat    ;This one restores the caller's code page
                      03143 
                      03144 
0076   3000           03145  movlw .0
                      03146 
                      03147    
                      03148  HALF_FAR_CALL safepush
0077   ????               M  pagesel safepush       
0078   2???               M  call safepush
                      03149 
                      03150 
                      03151  
                      03152  FAR_CALL plotat,parm
0079   ????               M  pagesel parm
007A   2???               M  call parm
007B   ????               M  pagesel plotat    ;This one restores the caller's code page
                      03153 
                      03154 
007C   3001           03155  movlw .1
                      03156 
                      03157    
                      03158  HALF_FAR_CALL safepush
007D   ????               M  pagesel safepush       
007E   2???               M  call safepush
                      03159 
                      03160 
                      03161  
                      03162  FAR_CALL plotat,parm
007F   ????               M  pagesel parm
0080   2???               M  call parm
0081   ????               M  pagesel plotat    ;This one restores the caller's code page
                      03163 
                      03164 
0082   300D           03165  movlw .13 
                      03166 
                      03167    
                      03168  HALF_FAR_CALL safepush
0083   ????               M  pagesel safepush       
0084   2???               M  call safepush
                      03169 
                      03170 
                      03171  
                      03172  HALF_FAR_CALL graphx
0085   ????               M  pagesel graphx         
0086   2???               M  call graphx
                      03173 
                      03174 
                      03175  
MPASM  5.37                        TARGET.ASM   2-2-2013  15:45:46         PAGE 83


LOC  OBJECT CODE     LINE SOURCE TEXT
  VALUE

                      03176  FAR_CALL plotat,kpop
0087   ????               M  pagesel kpop
0088   2???               M  call kpop
0089   ????               M  pagesel plotat    ;This one restores the caller's code page
                      03177 
                      03178 ;LOAD POINTER
008A   0084           03179  movwf FSR
                      03180  
                      03181 
                      03182  DISCARD
008B   0384               M  decf FSR,f 
                      03183 
                      03184 
                      03185  DISCARD
008C   0384               M  decf FSR,f 
                      03186 
                      03187 
008D   0008           03188  return
                      03189  
                      03190 
                      03191 hllt4558 CODE
0000                  03192 samplef:
0000   0804           03193  movf FSR,w
                      03194  
                      03195 
                      03196  
                      03197  FAR_CALL samplef ,kpush
0001   ????               M  pagesel kpush
0002   2???               M  call kpush
0003   ????               M  pagesel samplef   ;This one restores the caller's code page
                      03198 
                      03199 
0004   3006           03200  movlw .6 
                      03201 
                      03202    
                      03203  FAR_CALL samplef ,safepush
0005   ????               M  pagesel safepush
0006   2???               M  call safepush
0007   ????               M  pagesel samplef   ;This one restores the caller's code page
                      03204 
                      03205 
0008   3005           03206  movlw .5 
                      03207 
                      03208    
                      03209  FAR_CALL samplef ,safepush
0009   ????               M  pagesel safepush
000A   2???               M  call safepush
000B   ????               M  pagesel samplef   ;This one restores the caller's code page
                      03210 
                      03211 
000C   3004           03212  movlw .4 
                      03213 
                      03214    
MPASM  5.37                        TARGET.ASM   2-2-2013  15:45:46         PAGE 84


LOC  OBJECT CODE     LINE SOURCE TEXT
  VALUE

                      03215  FAR_CALL samplef ,safepush
000D   ????               M  pagesel safepush
000E   2???               M  call safepush
000F   ????               M  pagesel samplef   ;This one restores the caller's code page
                      03216 
0010   1683 1303      03217    banksel ADCON1
0012   081F           03218    movfw ADCON1
                      03219    
                      03220    
                      03221 
                      03222    
                      03223  HALF_FAR_CALL safepush
0013   ????               M  pagesel safepush       
0014   2???               M  call safepush
                      03224 
                      03225 
                      03226  
                      03227  HALF_FAR_CALL setbit
0015   ????               M  pagesel setbit         
0016   2???               M  call setbit
                      03228 
                      03229 
                      03230  
                      03231  HALF_FAR_CALL clearbit
0017   ????               M  pagesel clearbit       
0018   2???               M  call clearbit
                      03232 
                      03233 
                      03234  
                      03235  FAR_CALL samplef,setbit
0019   ????               M  pagesel setbit
001A   2???               M  call setbit
001B   ????               M  pagesel samplef   ;This one restores the caller's code page
                      03236 
                      03237  POP
001C   0800               M  movfw INDF ; preserve the safety of this code under interruptible conditions. 
001D   0384               M  decf FSR,f 
001E   1683 1303      03238  banksel ADCON1
0020   009F           03239  movwf ADCON1
                      03240  
                      03241 
                      03242 
0021   3000           03243  movlw .0
                      03244 
                      03245    
                      03246  HALF_FAR_CALL safepush
0022   ????               M  pagesel safepush       
0023   2???               M  call safepush
                      03247 
                      03248 
                      03249  
                      03250  FAR_CALL samplef,parm
0024   ????               M  pagesel parm
MPASM  5.37                        TARGET.ASM   2-2-2013  15:45:46         PAGE 85


LOC  OBJECT CODE     LINE SOURCE TEXT
  VALUE

0025   2???               M  call parm
0026   ????               M  pagesel samplef   ;This one restores the caller's code page
                      03251 
                      03252 
0027   3000           03253  movlw .0
                      03254 
                      03255    
                      03256  HALF_FAR_CALL safepush
0028   ????               M  pagesel safepush       
0029   2???               M  call safepush
                      03257 
                      03258 
                      03259  
                      03260  FAR_CALL samplef,eq
002A   ????               M  pagesel eq
002B   2???               M  call eq
002C   ????               M  pagesel samplef   ;This one restores the caller's code page
                      03261 
                      03262  POP
002D   0800               M  movfw INDF ; preserve the safety of this code under interruptible conditions. 
002E   0384               M  decf FSR,f 
002F   3A00           03263  xorlw .0
0030   1903           03264  btfsc STATUS,Z
0031   2???           03265  goto hlllb51J56 
                      03266  
                      03267 
0032   3002           03268  movlw .2 
                      03269 
                      03270    
                      03271  FAR_CALL samplef ,safepush
0033   ????               M  pagesel safepush
0034   2???               M  call safepush
0035   ????               M  pagesel samplef   ;This one restores the caller's code page
                      03272 
                      03273 
0036   3003           03274  movlw .3 
                      03275 
                      03276    
                      03277  FAR_CALL samplef ,safepush
0037   ????               M  pagesel safepush
0038   2???               M  call safepush
0039   ????               M  pagesel samplef   ;This one restores the caller's code page
                      03278 
                      03279 
003A   3004           03280  movlw .4 
                      03281 
                      03282    
                      03283  FAR_CALL samplef ,safepush
003B   ????               M  pagesel safepush
003C   2???               M  call safepush
003D   ????               M  pagesel samplef   ;This one restores the caller's code page
                      03284 
003E   1283 1303      03285    banksel ADCON0
MPASM  5.37                        TARGET.ASM   2-2-2013  15:45:46         PAGE 86


LOC  OBJECT CODE     LINE SOURCE TEXT
  VALUE

0040   081F           03286    movfw ADCON0
                      03287    
                      03288    
                      03289 
                      03290    
                      03291  HALF_FAR_CALL safepush
0041   ????               M  pagesel safepush       
0042   2???               M  call safepush
                      03292 
                      03293 
                      03294  
                      03295  HALF_FAR_CALL clearbit
0043   ????               M  pagesel clearbit       
0044   2???               M  call clearbit
                      03296 
                      03297 
                      03298  
                      03299  HALF_FAR_CALL clearbit
0045   ????               M  pagesel clearbit       
0046   2???               M  call clearbit
                      03300 
                      03301 
                      03302  
                      03303  FAR_CALL samplef,clearbit
0047   ????               M  pagesel clearbit
0048   2???               M  call clearbit
0049   ????               M  pagesel samplef   ;This one restores the caller's code page
                      03304 
                      03305  
004A   2???           03306  goto hlllb51J57
                      03307  
                      03308 
004B                  03309 hlllb51J56:
                      03310 
                      03311 
004B   3000           03312  movlw .0
                      03313 
                      03314    
                      03315  HALF_FAR_CALL safepush
004C   ????               M  pagesel safepush       
004D   2???               M  call safepush
                      03316 
                      03317 
                      03318  
                      03319  FAR_CALL samplef,parm
004E   ????               M  pagesel parm
004F   2???               M  call parm
0050   ????               M  pagesel samplef   ;This one restores the caller's code page
                      03320 
                      03321 
0051   3001           03322  movlw .1
                      03323 
                      03324    
MPASM  5.37                        TARGET.ASM   2-2-2013  15:45:46         PAGE 87


LOC  OBJECT CODE     LINE SOURCE TEXT
  VALUE

                      03325  HALF_FAR_CALL safepush
0052   ????               M  pagesel safepush       
0053   2???               M  call safepush
                      03326 
                      03327 
                      03328  
                      03329  FAR_CALL samplef,eq
0054   ????               M  pagesel eq
0055   2???               M  call eq
0056   ????               M  pagesel samplef   ;This one restores the caller's code page
                      03330 
                      03331  POP
0057   0800               M  movfw INDF ; preserve the safety of this code under interruptible conditions. 
0058   0384               M  decf FSR,f 
0059   3A00           03332  xorlw .0
005A   1903           03333  btfsc STATUS,Z
005B   2???           03334  goto hlllb51J54 
                      03335  
                      03336 
005C   3002           03337  movlw .2 
                      03338 
                      03339    
                      03340  FAR_CALL samplef ,safepush
005D   ????               M  pagesel safepush
005E   2???               M  call safepush
005F   ????               M  pagesel samplef   ;This one restores the caller's code page
                      03341 
                      03342 
0060   3003           03343  movlw .3 
                      03344 
                      03345    
                      03346  FAR_CALL samplef ,safepush
0061   ????               M  pagesel safepush
0062   2???               M  call safepush
0063   ????               M  pagesel samplef   ;This one restores the caller's code page
                      03347 
                      03348 
0064   3004           03349  movlw .4 
                      03350 
                      03351    
                      03352  FAR_CALL samplef ,safepush
0065   ????               M  pagesel safepush
0066   2???               M  call safepush
0067   ????               M  pagesel samplef   ;This one restores the caller's code page
                      03353 
0068   1283 1303      03354    banksel ADCON0
006A   081F           03355    movfw ADCON0
                      03356    
                      03357    
                      03358 
                      03359    
                      03360  HALF_FAR_CALL safepush
006B   ????               M  pagesel safepush       
MPASM  5.37                        TARGET.ASM   2-2-2013  15:45:46         PAGE 88


LOC  OBJECT CODE     LINE SOURCE TEXT
  VALUE

006C   2???               M  call safepush
                      03361 
                      03362 
                      03363  
                      03364  HALF_FAR_CALL clearbit
006D   ????               M  pagesel clearbit       
006E   2???               M  call clearbit
                      03365 
                      03366 
                      03367  
                      03368  HALF_FAR_CALL clearbit
006F   ????               M  pagesel clearbit       
0070   2???               M  call clearbit
                      03369 
                      03370 
                      03371  
                      03372  FAR_CALL samplef,setbit
0071   ????               M  pagesel setbit
0072   2???               M  call setbit
0073   ????               M  pagesel samplef   ;This one restores the caller's code page
                      03373 
                      03374  
0074   2???           03375  goto hlllb51J55
                      03376  
                      03377 
0075                  03378 hlllb51J54:
                      03379 
                      03380 
0075   3000           03381  movlw .0
                      03382 
                      03383    
                      03384  HALF_FAR_CALL safepush
0076   ????               M  pagesel safepush       
0077   2???               M  call safepush
                      03385 
                      03386 
                      03387  
                      03388  FAR_CALL samplef,parm
0078   ????               M  pagesel parm
0079   2???               M  call parm
007A   ????               M  pagesel samplef   ;This one restores the caller's code page
                      03389 
                      03390 
007B   3002           03391  movlw .2
                      03392 
                      03393    
                      03394  HALF_FAR_CALL safepush
007C   ????               M  pagesel safepush       
007D   2???               M  call safepush
                      03395 
                      03396 
                      03397  
                      03398  FAR_CALL samplef,eq
MPASM  5.37                        TARGET.ASM   2-2-2013  15:45:46         PAGE 89


LOC  OBJECT CODE     LINE SOURCE TEXT
  VALUE

007E   ????               M  pagesel eq
007F   2???               M  call eq
0080   ????               M  pagesel samplef   ;This one restores the caller's code page
                      03399 
                      03400  POP
0081   0800               M  movfw INDF ; preserve the safety of this code under interruptible conditions. 
0082   0384               M  decf FSR,f 
0083   3A00           03401  xorlw .0
0084   1903           03402  btfsc STATUS,Z
0085   2???           03403  goto hlllb51J52 
                      03404  
                      03405 
0086   3002           03406  movlw .2 
                      03407 
                      03408    
                      03409  FAR_CALL samplef ,safepush
0087   ????               M  pagesel safepush
0088   2???               M  call safepush
0089   ????               M  pagesel samplef   ;This one restores the caller's code page
                      03410 
                      03411 
008A   3003           03412  movlw .3 
                      03413 
                      03414    
                      03415  FAR_CALL samplef ,safepush
008B   ????               M  pagesel safepush
008C   2???               M  call safepush
008D   ????               M  pagesel samplef   ;This one restores the caller's code page
                      03416 
                      03417 
008E   3004           03418  movlw .4 
                      03419 
                      03420    
                      03421  FAR_CALL samplef ,safepush
008F   ????               M  pagesel safepush
0090   2???               M  call safepush
0091   ????               M  pagesel samplef   ;This one restores the caller's code page
                      03422 
0092   1283 1303      03423    banksel ADCON0
0094   081F           03424    movfw ADCON0
                      03425    
                      03426    
                      03427 
                      03428    
                      03429  HALF_FAR_CALL safepush
0095   ????               M  pagesel safepush       
0096   2???               M  call safepush
                      03430 
                      03431 
                      03432  
                      03433  HALF_FAR_CALL clearbit
0097   ????               M  pagesel clearbit       
0098   2???               M  call clearbit
MPASM  5.37                        TARGET.ASM   2-2-2013  15:45:46         PAGE 90


LOC  OBJECT CODE     LINE SOURCE TEXT
  VALUE

                      03434 
                      03435 
                      03436  
                      03437  HALF_FAR_CALL setbit
0099   ????               M  pagesel setbit         
009A   2???               M  call setbit
                      03438 
                      03439 
                      03440  
                      03441  FAR_CALL samplef,clearbit
009B   ????               M  pagesel clearbit
009C   2???               M  call clearbit
009D   ????               M  pagesel samplef   ;This one restores the caller's code page
                      03442 
                      03443  
009E   2???           03444  goto hlllb51J53
                      03445  
                      03446 
009F                  03447 hlllb51J52:
                      03448 
                      03449 
009F   3000           03450  movlw .0
                      03451 
                      03452    
                      03453  HALF_FAR_CALL safepush
00A0   ????               M  pagesel safepush       
00A1   2???               M  call safepush
                      03454 
                      03455 
                      03456  
                      03457  FAR_CALL samplef,parm
00A2   ????               M  pagesel parm
00A3   2???               M  call parm
00A4   ????               M  pagesel samplef   ;This one restores the caller's code page
                      03458 
                      03459 
00A5   3003           03460  movlw .3
                      03461 
                      03462    
                      03463  HALF_FAR_CALL safepush
00A6   ????               M  pagesel safepush       
00A7   2???               M  call safepush
                      03464 
                      03465 
                      03466  
                      03467  FAR_CALL samplef,eq
00A8   ????               M  pagesel eq
00A9   2???               M  call eq
00AA   ????               M  pagesel samplef   ;This one restores the caller's code page
                      03468 
                      03469  POP
00AB   0800               M  movfw INDF ; preserve the safety of this code under interruptible conditions. 
00AC   0384               M  decf FSR,f 
MPASM  5.37                        TARGET.ASM   2-2-2013  15:45:46         PAGE 91


LOC  OBJECT CODE     LINE SOURCE TEXT
  VALUE

00AD   3A00           03470  xorlw .0
00AE   1903           03471  btfsc STATUS,Z
00AF   2???           03472  goto hlllb51J50 
                      03473  
                      03474 
00B0   3002           03475  movlw .2 
                      03476 
                      03477    
                      03478  FAR_CALL samplef ,safepush
00B1   ????               M  pagesel safepush
00B2   2???               M  call safepush
00B3   ????               M  pagesel samplef   ;This one restores the caller's code page
                      03479 
                      03480 
00B4   3003           03481  movlw .3 
                      03482 
                      03483    
                      03484  FAR_CALL samplef ,safepush
00B5   ????               M  pagesel safepush
00B6   2???               M  call safepush
00B7   ????               M  pagesel samplef   ;This one restores the caller's code page
                      03485 
                      03486 
00B8   3004           03487  movlw .4 
                      03488 
                      03489    
                      03490  FAR_CALL samplef ,safepush
00B9   ????               M  pagesel safepush
00BA   2???               M  call safepush
00BB   ????               M  pagesel samplef   ;This one restores the caller's code page
                      03491 
00BC   1283 1303      03492    banksel ADCON0
00BE   081F           03493    movfw ADCON0
                      03494    
                      03495    
                      03496 
                      03497    
                      03498  HALF_FAR_CALL safepush
00BF   ????               M  pagesel safepush       
00C0   2???               M  call safepush
                      03499 
                      03500 
                      03501  
                      03502  HALF_FAR_CALL clearbit
00C1   ????               M  pagesel clearbit       
00C2   2???               M  call clearbit
                      03503 
                      03504 
                      03505  
                      03506  HALF_FAR_CALL setbit
00C3   ????               M  pagesel setbit         
00C4   2???               M  call setbit
                      03507 
MPASM  5.37                        TARGET.ASM   2-2-2013  15:45:46         PAGE 92


LOC  OBJECT CODE     LINE SOURCE TEXT
  VALUE

                      03508 
                      03509  
                      03510  FAR_CALL samplef,setbit
00C5   ????               M  pagesel setbit
00C6   2???               M  call setbit
00C7   ????               M  pagesel samplef   ;This one restores the caller's code page
                      03511 
                      03512  
00C8   2???           03513  goto hlllb51J51
                      03514  
                      03515 
00C9                  03516 hlllb51J50:
                      03517 
                      03518 
00C9   3000           03519  movlw .0
                      03520 
                      03521    
                      03522  HALF_FAR_CALL safepush
00CA   ????               M  pagesel safepush       
00CB   2???               M  call safepush
                      03523 
                      03524 
                      03525  
                      03526  FAR_CALL samplef,parm
00CC   ????               M  pagesel parm
00CD   2???               M  call parm
00CE   ????               M  pagesel samplef   ;This one restores the caller's code page
                      03527 
                      03528 
00CF   3004           03529  movlw .4
                      03530 
                      03531    
                      03532  HALF_FAR_CALL safepush
00D0   ????               M  pagesel safepush       
00D1   2???               M  call safepush
                      03533 
                      03534 
                      03535  
                      03536  FAR_CALL samplef,eq
00D2   ????               M  pagesel eq
00D3   2???               M  call eq
00D4   ????               M  pagesel samplef   ;This one restores the caller's code page
                      03537 
                      03538  POP
00D5   0800               M  movfw INDF ; preserve the safety of this code under interruptible conditions. 
00D6   0384               M  decf FSR,f 
00D7   3A00           03539  xorlw .0
00D8   1903           03540  btfsc STATUS,Z
00D9   2???           03541  goto hlllb51J48 
                      03542  
                      03543 
00DA   3002           03544  movlw .2 
                      03545 
MPASM  5.37                        TARGET.ASM   2-2-2013  15:45:46         PAGE 93


LOC  OBJECT CODE     LINE SOURCE TEXT
  VALUE

                      03546    
                      03547  FAR_CALL samplef ,safepush
00DB   ????               M  pagesel safepush
00DC   2???               M  call safepush
00DD   ????               M  pagesel samplef   ;This one restores the caller's code page
                      03548 
                      03549 
00DE   3003           03550  movlw .3 
                      03551 
                      03552    
                      03553  FAR_CALL samplef ,safepush
00DF   ????               M  pagesel safepush
00E0   2???               M  call safepush
00E1   ????               M  pagesel samplef   ;This one restores the caller's code page
                      03554 
                      03555 
00E2   3004           03556  movlw .4 
                      03557 
                      03558    
                      03559  FAR_CALL samplef ,safepush
00E3   ????               M  pagesel safepush
00E4   2???               M  call safepush
00E5   ????               M  pagesel samplef   ;This one restores the caller's code page
                      03560 
00E6   1283 1303      03561    banksel ADCON0
00E8   081F           03562    movfw ADCON0
                      03563    
                      03564    
                      03565 
                      03566    
                      03567  HALF_FAR_CALL safepush
00E9   ????               M  pagesel safepush       
00EA   2???               M  call safepush
                      03568 
                      03569 
                      03570  
                      03571  HALF_FAR_CALL setbit
00EB   ????               M  pagesel setbit         
00EC   2???               M  call setbit
                      03572 
                      03573 
                      03574  
                      03575  HALF_FAR_CALL clearbit
00ED   ????               M  pagesel clearbit       
00EE   2???               M  call clearbit
                      03576 
                      03577 
                      03578  
                      03579  FAR_CALL samplef,clearbit
00EF   ????               M  pagesel clearbit
00F0   2???               M  call clearbit
00F1   ????               M  pagesel samplef   ;This one restores the caller's code page
                      03580 
MPASM  5.37                        TARGET.ASM   2-2-2013  15:45:46         PAGE 94


LOC  OBJECT CODE     LINE SOURCE TEXT
  VALUE

                      03581  
00F2   2???           03582  goto hlllb51J49
                      03583  
                      03584 
00F3                  03585 hlllb51J48:
                      03586 
                      03587 
00F3                  03588 hlllb51J49:
                      03589 
                      03590 
00F3                  03591 hlllb51J51:
                      03592 
                      03593 
00F3                  03594 hlllb51J53:
                      03595 
                      03596 
00F3                  03597 hlllb51J55:
                      03598 
                      03599 
00F3                  03600 hlllb51J57:
                      03601 
                      03602  POP
00F3   0800               M  movfw INDF ; preserve the safety of this code under interruptible conditions. 
00F4   0384               M  decf FSR,f 
00F5   1283 1303      03603  banksel ADCON0
00F7   009F           03604  movwf ADCON0
                      03605  
                      03606 
                      03607 
                      03608  
                      03609  FAR_CALL samplef,dispose
00F8   ????               M  pagesel dispose
00F9   2???               M  call dispose
00FA   ????               M  pagesel samplef   ;This one restores the caller's code page
                      03610 
                      03611 
00FB   3001           03612  movlw .1 
                      03613 
                      03614    
                      03615  FAR_CALL samplef ,safepush
00FC   ????               M  pagesel safepush
00FD   2???               M  call safepush
00FE   ????               M  pagesel samplef   ;This one restores the caller's code page
                      03616 
                      03617 
00FF   3007           03618  movlw .7 
                      03619 
                      03620    
                      03621  FAR_CALL samplef ,safepush
0100   ????               M  pagesel safepush
0101   2???               M  call safepush
0102   ????               M  pagesel samplef   ;This one restores the caller's code page
                      03622 
MPASM  5.37                        TARGET.ASM   2-2-2013  15:45:46         PAGE 95


LOC  OBJECT CODE     LINE SOURCE TEXT
  VALUE

                      03623 
0103   3000           03624  movlw .0 
                      03625 
                      03626    
                      03627  FAR_CALL samplef ,safepush
0104   ????               M  pagesel safepush
0105   2???               M  call safepush
0106   ????               M  pagesel samplef   ;This one restores the caller's code page
                      03628 
0107   1283 1303      03629    banksel ADCON0
0109   081F           03630    movfw ADCON0
                      03631    
                      03632    
                      03633 
                      03634    
                      03635  HALF_FAR_CALL safepush
010A   ????               M  pagesel safepush       
010B   2???               M  call safepush
                      03636 
                      03637 
                      03638  
                      03639  HALF_FAR_CALL setbit
010C   ????               M  pagesel setbit         
010D   2???               M  call setbit
                      03640 
                      03641 
                      03642  
                      03643  HALF_FAR_CALL setbit
010E   ????               M  pagesel setbit         
010F   2???               M  call setbit
                      03644 
                      03645 
                      03646  
                      03647  FAR_CALL samplef,clearbit
0110   ????               M  pagesel clearbit
0111   2???               M  call clearbit
0112   ????               M  pagesel samplef   ;This one restores the caller's code page
                      03648 
                      03649  POP
0113   0800               M  movfw INDF ; preserve the safety of this code under interruptible conditions. 
0114   0384               M  decf FSR,f 
0115   1283 1303      03650  banksel ADCON0
0117   009F           03651  movwf ADCON0
                      03652  
                      03653 
                      03654 
0118   3000           03655  movlw .0 
                      03656 
                      03657    
                      03658  FAR_CALL samplef ,safepush
0119   ????               M  pagesel safepush
011A   2???               M  call safepush
011B   ????               M  pagesel samplef   ;This one restores the caller's code page
MPASM  5.37                        TARGET.ASM   2-2-2013  15:45:46         PAGE 96


LOC  OBJECT CODE     LINE SOURCE TEXT
  VALUE

                      03659 
011C   1283 1703      03660    banksel ANSEL
011E   081E           03661    movfw ANSEL
                      03662    
                      03663    
                      03664 
                      03665    
                      03666  HALF_FAR_CALL safepush
011F   ????               M  pagesel safepush       
0120   2???               M  call safepush
                      03667 
                      03668 
                      03669  
                      03670  FAR_CALL samplef,setbit
0121   ????               M  pagesel setbit
0122   2???               M  call setbit
0123   ????               M  pagesel samplef   ;This one restores the caller's code page
                      03671 
                      03672  POP
0124   0800               M  movfw INDF ; preserve the safety of this code under interruptible conditions. 
0125   0384               M  decf FSR,f 
0126   1283 1703      03673  banksel ANSEL
0128   009E           03674  movwf ANSEL
                      03675  
                      03676 
                      03677 
0129   3001           03678  movlw .1 
                      03679 
                      03680    
                      03681  FAR_CALL samplef ,safepush
012A   ????               M  pagesel safepush
012B   2???               M  call safepush
012C   ????               M  pagesel samplef   ;This one restores the caller's code page
                      03682 
012D   1283 1303      03683    banksel ADCON0
012F   081F           03684    movfw ADCON0
                      03685    
                      03686    
                      03687 
                      03688    
                      03689  HALF_FAR_CALL safepush
0130   ????               M  pagesel safepush       
0131   2???               M  call safepush
                      03690 
                      03691 
                      03692  
                      03693  FAR_CALL samplef,setbit
0132   ????               M  pagesel setbit
0133   2???               M  call setbit
0134   ????               M  pagesel samplef   ;This one restores the caller's code page
                      03694 
                      03695  POP
0135   0800               M  movfw INDF ; preserve the safety of this code under interruptible conditions. 
MPASM  5.37                        TARGET.ASM   2-2-2013  15:45:46         PAGE 97


LOC  OBJECT CODE     LINE SOURCE TEXT
  VALUE

0136   0384               M  decf FSR,f 
0137   1283 1303      03696  banksel ADCON0
0139   009F           03697  movwf ADCON0
                      03698  
                      03699 
                      03700 
                      03701  
                      03702  FAR_CALL samplef,ourwait
013A   ????               M  pagesel ourwait
013B   2???               M  call ourwait
013C   ????               M  pagesel samplef   ;This one restores the caller's code page
                      03703 
                      03704 
013D   3000           03705  movlw .0
                      03706  
                      03707 
                      03708 
                      03709 
                      03710    
                      03711  FAR_CALL samplef ,safepush
013E   ????               M  pagesel safepush
013F   2???               M  call safepush
0140   ????               M  pagesel samplef   ;This one restores the caller's code page
                      03712 
                      03713 
0141   3008           03714  movlw .8
                      03715  
                      03716 
                      03717 
                      03718    
                      03719  FAR_CALL samplef ,safepush
0142   ????               M  pagesel safepush
0143   2???               M  call safepush
0144   ????               M  pagesel samplef   ;This one restores the caller's code page
                      03720 
                      03721 
0145   3003           03722  movlw .3 
                      03723 
                      03724    
                      03725  FAR_CALL samplef ,safepush
0146   ????               M  pagesel safepush
0147   2???               M  call safepush
0148   ????               M  pagesel samplef   ;This one restores the caller's code page
                      03726 
0149   1283 1303      03727    banksel ADRESH
014B   081E           03728    movfw ADRESH
                      03729    
                      03730    
                      03731 
                      03732    
                      03733  HALF_FAR_CALL safepush
014C   ????               M  pagesel safepush       
014D   2???               M  call safepush
MPASM  5.37                        TARGET.ASM   2-2-2013  15:45:46         PAGE 98


LOC  OBJECT CODE     LINE SOURCE TEXT
  VALUE

                      03734 
                      03735 
                      03736  
                      03737  HALF_FAR_CALL andu
014E   ????               M  pagesel andu           
014F   2???               M  call andu
                      03738 
                      03739 
                      03740  
                      03741  HALF_FAR_CALL utof
0150   ????               M  pagesel utof           
0151   2???               M  call utof
                      03742 
                      03743 
                      03744  
                      03745  FAR_CALL samplef,mulf
0152   ????               M  pagesel mulf
0153   2???               M  call mulf
0154   ????               M  pagesel samplef   ;This one restores the caller's code page
                      03746 
0155   1683 1303      03747    banksel ADRESL
0157   081E           03748    movfw ADRESL
                      03749    
                      03750    
                      03751 
                      03752    
                      03753  HALF_FAR_CALL safepush
0158   ????               M  pagesel safepush       
0159   2???               M  call safepush
                      03754 
                      03755 
                      03756  
                      03757  HALF_FAR_CALL utof
015A   ????               M  pagesel utof           
015B   2???               M  call utof
                      03758 
                      03759 
                      03760  
                      03761  HALF_FAR_CALL addf
015C   ????               M  pagesel addf           
015D   2???               M  call addf
                      03762 
                      03763 
                      03764  
                      03765  FAR_CALL samplef,kpop
015E   ????               M  pagesel kpop
015F   2???               M  call kpop
0160   ????               M  pagesel samplef   ;This one restores the caller's code page
                      03766  
                      03767 #ifdef HLLMULTITASK 
0161   08??           03768  movf in_isr,f ;In shared RAM, no need for BANKSEL
0162   1903           03769  btfsc STATUS,Z
0163   2???           03770  goto $+3
MPASM  5.37                        TARGET.ASM   2-2-2013  15:45:46         PAGE 99


LOC  OBJECT CODE     LINE SOURCE TEXT
  VALUE

0164   00??           03771  movwf pbase+1 ;in_isr... the "in isr" clause comes first in all of these macros. This
0165   2???           03772  goto $+2      ; is because isr execution is preemptive, and returns only at the 
0166   00??           03773  movwf pbase   ; completion of all triggered routines. So, it can starve out the main
                      03774 #else          ; thread, and speeding up isr execution helps this problem. In most of
                      03775  movwf pbase   ; these macros, in-isr execution takes just 4 instruction cycles.
                      03776 #endif 
                      03777 
                      03778 
                      03779  POP
0167   0800               M  movfw INDF ; preserve the safety of this code under interruptible conditions. 
0168   0384               M  decf FSR,f 
                      03780  
                      03781  FAR_CALL samplef ,kpush
0169   ????               M  pagesel kpush
016A   2???               M  call kpush
016B   ????               M  pagesel samplef   ;This one restores the caller's code page
                      03782  
                      03783 
                      03784  POP
016C   0800               M  movfw INDF ; preserve the safety of this code under interruptible conditions. 
016D   0384               M  decf FSR,f 
                      03785  
                      03786  FAR_CALL samplef ,kpush
016E   ????               M  pagesel kpush
016F   2???               M  call kpush
0170   ????               M  pagesel samplef   ;This one restores the caller's code page
                      03787  
                      03788 #ifdef HLLMULTITASK 
0171   08??           03789  movf in_isr,f ;In shared RAM, no need for BANKSEL
0172   1903           03790  btfsc STATUS,Z
0173   2???           03791  goto $+3
0174   08??           03792  movf pbase+1,w                 ;in_isr
0175   2???           03793  goto $+2
0176   08??           03794  movf pbase,w   ;not in_isr
                      03795 #else
                      03796  movf pbase,w   
                      03797 #endif  
                      03798 
                      03799  
                      03800 ;LOAD POINTER
0177   0084           03801  movwf FSR
                      03802  
                      03803 
                      03804  DISCARD
0178   0384               M  decf FSR,f 
                      03805 
                      03806 
                      03807  
                      03808  HALF_FAR_CALL kpop
0179   ????               M  pagesel kpop           
017A   2???               M  call kpop
                      03809 
                      03810 
MPASM  5.37                        TARGET.ASM   2-2-2013  15:45:46         PAGE 100


LOC  OBJECT CODE     LINE SOURCE TEXT
  VALUE

                      03811  
                      03812  HALF_FAR_CALL safepush
017B   ????               M  pagesel safepush       
017C   2???               M  call safepush
                      03813  
                      03814 
                      03815  
                      03816  HALF_FAR_CALL kpop
017D   ????               M  pagesel kpop           
017E   2???               M  call kpop
                      03817 
                      03818 
                      03819  
                      03820  FAR_CALL samplef ,safepush
017F   ????               M  pagesel safepush
0180   2???               M  call safepush
0181   ????               M  pagesel samplef   ;This one restores the caller's code page
                      03821  
                      03822 
0182   0008           03823  return
                      03824  
                      03825 
                      03826 hllt4561 CODE
0000                  03827 ourwait:
                      03828 
                      03829 
0000   3002           03830  movlw .2 
                      03831 
                      03832    
                      03833  FAR_CALL ourwait ,safepush
0001   ????               M  pagesel safepush
0002   2???               M  call safepush
0003   ????               M  pagesel ourwait   ;This one restores the caller's code page
                      03834 
0004   1283 1303      03835    banksel ADCON0
0006   081F           03836    movfw ADCON0
                      03837    
                      03838    
                      03839 
                      03840    
                      03841  HALF_FAR_CALL safepush
0007   ????               M  pagesel safepush       
0008   2???               M  call safepush
                      03842 
                      03843 
                      03844  
                      03845  FAR_CALL ourwait,andu
0009   ????               M  pagesel andu
000A   2???               M  call andu
000B   ????               M  pagesel ourwait   ;This one restores the caller's code page
                      03846 
                      03847  POP
000C   0800               M  movfw INDF ; preserve the safety of this code under interruptible conditions. 
MPASM  5.37                        TARGET.ASM   2-2-2013  15:45:46         PAGE 101


LOC  OBJECT CODE     LINE SOURCE TEXT
  VALUE

000D   0384               M  decf FSR,f 
000E   3A00           03848  xorlw .0
000F   1903           03849  btfsc STATUS,Z
0010   2???           03850  goto hlllb51J59 
                      03851  
                      03852  ;
                      03853 
                      03854 
0011   2???           03855  goto ourwait
0012                  03856 hlllb51J59:
0012                  03857 hlllb51J60:
                      03858 
0012   0008           03859  return 
                      03860 
                      03861  
0013                  03862 hllprgen2:
0013   2???           03863  goto hllprgen2
                      03864  
                      03865 
                      03866 
                      03867 
                      03868 
                      03869 
                      03870  
                      03871 
                      03872  
                      03873 hlog1h CODE
0000                  03874 andu: 
                      03875  POP
0000   0800               M  movfw INDF ; preserve the safety of this code under interruptible conditions. 
0001   0384               M  decf FSR,f 
0002   0500           03876  andwf HLINDF,w
0003   0384           03877  decf HLFSR,f 
                      03878  PUSH
0004   0A84               M  incf FSR,f ; The "incf" op serves as an allocator; it happens first so that interrupting
0005   0080               M  movwf INDF ; code of any sort will not overwrite the data. 
0006   0008           03879  return
                      03880  
                      03881 
                      03882 
                      03883 
                      03884 
                      03885 
                      03886 
                      03887 
                      03888  
                      03889  
                      03890 
                      03891  
                      03892 
                      03893 
                      03894 ansiadt udata
0000                  03895 aart00 RES .1
MPASM  5.37                        TARGET.ASM   2-2-2013  15:45:46         PAGE 102


LOC  OBJECT CODE     LINE SOURCE TEXT
  VALUE

                      03896 #ifdef HLLMULTITASK
                      03897 #ifdef HLLGUARDaart
                      03898 aart00isr RES .1
                      03899 #endif 
                      03900 #endif 
0001                  03901 aart01 RES .1
                      03902 #ifdef HLLMULTITASK
                      03903 #ifdef HLLGUARDaart
                      03904 aart01isr RES .1
                      03905 #endif 
                      03906 #endif 
0002                  03907 aart02 RES .1
                      03908 #ifdef HLLMULTITASK
                      03909 #ifdef HLLGUARDaart
                      03910 aart02isr RES .1
                      03911 #endif 
                      03912 #endif 
                      03913 
                      03914  
                      03915 ansiara CODE
                      03916 
                      03917 ansiadu udata
0000                  03918 aartpr00 RES .1
                      03919 #ifdef HLLMULTITASK
                      03920 #ifdef HLLGUARDaartpr
                      03921 aart00prisr RES .1
                      03922 #endif 
                      03923 #endif 
                      03924 
                      03925 cprntuc CODE
                      03926 
                      03927 
                      03928 
                      03929 #define margpi aartpr00
                      03930 
                      03931 
0000                  03932 printu:  
                      03933 #ifdef HLLMULTITASK
                      03934 #ifdef HLLGUARDaartpr 
                      03935  movf in_isr,f  
                      03936  btfsc STATUS,Z
                      03937  
                      03938 
                      03939 
                      03940  goto printu0
                      03941 
                      03942  POP
                      03943  banksel margpi
                      03944  movwf margpi
                      03945  PUSH
                      03946  movlw .100 
                      03947  PUSH
                      03948  
MPASM  5.37                        TARGET.ASM   2-2-2013  15:45:46         PAGE 103


LOC  OBJECT CODE     LINE SOURCE TEXT
  VALUE

                      03949  FAR_CALL printu,divu
                      03950  POP
                      03951  addlw '0' 
                      03952  PUSH
                      03953  
                      03954  FAR_CALL printu,printch
                      03955  banksel margpi 
                      03956  movfw margpi
                      03957  PUSH
                      03958  movlw .100 
                      03959  PUSH
                      03960  
                      03961  FAR_CALL printu,modu
                      03962  movlw .10
                      03963  PUSH
                      03964  
                      03965  FAR_CALL printu,divu
                      03966  POP
                      03967  addlw '0' 
                      03968  PUSH
                      03969  
                      03970  FAR_CALL printu,printch
                      03971  banksel margpi
                      03972  movfw margpi
                      03973  PUSH
                      03974  movlw .10 
                      03975  PUSH
                      03976  
                      03977  FAR_CALL printu,modu
                      03978  POP
                      03979  addlw '0' 
                      03980  PUSH
                      03981  
                      03982  FAR_CALL printu,printch  
                      03983  return
                      03984 
                      03985 
                      03986 
                      03987 #undefine margpi
                      03988 
                      03989 
                      03990 #define margpi aartpr00+1
                      03991 
                      03992 
                      03993 printu0:
                      03994 #endif
                      03995 #endif
                      03996 
                      03997  POP
0000   0800               M  movfw INDF ; preserve the safety of this code under interruptible conditions. 
0001   0384               M  decf FSR,f 
0002   ???? ????      03998  banksel margpi
0004   00??           03999  movwf margpi
MPASM  5.37                        TARGET.ASM   2-2-2013  15:45:46         PAGE 104


LOC  OBJECT CODE     LINE SOURCE TEXT
  VALUE

                      04000  PUSH
0005   0A84               M  incf FSR,f ; The "incf" op serves as an allocator; it happens first so that interrupting
0006   0080               M  movwf INDF ; code of any sort will not overwrite the data. 
0007   3064           04001  movlw .100 
                      04002  PUSH
0008   0A84               M  incf FSR,f ; The "incf" op serves as an allocator; it happens first so that interrupting
0009   0080               M  movwf INDF ; code of any sort will not overwrite the data. 
                      04003  
                      04004  FAR_CALL printu,divu
000A   ????               M  pagesel divu
000B   2???               M  call divu
000C   ????               M  pagesel printu    ;This one restores the caller's code page
                      04005  POP
000D   0800               M  movfw INDF ; preserve the safety of this code under interruptible conditions. 
000E   0384               M  decf FSR,f 
000F   3E30           04006  addlw '0' 
                      04007  PUSH
0010   0A84               M  incf FSR,f ; The "incf" op serves as an allocator; it happens first so that interrupting
0011   0080               M  movwf INDF ; code of any sort will not overwrite the data. 
                      04008  
                      04009  FAR_CALL printu,printch
0012   ????               M  pagesel printch
0013   2???               M  call printch
0014   ????               M  pagesel printu    ;This one restores the caller's code page
0015   ???? ????      04010  banksel margpi 
0017   08??           04011  movfw margpi
                      04012  PUSH
0018   0A84               M  incf FSR,f ; The "incf" op serves as an allocator; it happens first so that interrupting
0019   0080               M  movwf INDF ; code of any sort will not overwrite the data. 
001A   3064           04013  movlw .100 
                      04014  PUSH
001B   0A84               M  incf FSR,f ; The "incf" op serves as an allocator; it happens first so that interrupting
001C   0080               M  movwf INDF ; code of any sort will not overwrite the data. 
                      04015  
                      04016  FAR_CALL printu,modu
001D   ????               M  pagesel modu
001E   2???               M  call modu
001F   ????               M  pagesel printu    ;This one restores the caller's code page
0020   300A           04017  movlw .10
                      04018  PUSH
0021   0A84               M  incf FSR,f ; The "incf" op serves as an allocator; it happens first so that interrupting
0022   0080               M  movwf INDF ; code of any sort will not overwrite the data. 
                      04019  
                      04020  FAR_CALL printu,divu
0023   ????               M  pagesel divu
0024   2???               M  call divu
0025   ????               M  pagesel printu    ;This one restores the caller's code page
                      04021  POP
0026   0800               M  movfw INDF ; preserve the safety of this code under interruptible conditions. 
0027   0384               M  decf FSR,f 
0028   3E30           04022  addlw '0' 
                      04023  PUSH
0029   0A84               M  incf FSR,f ; The "incf" op serves as an allocator; it happens first so that interrupting
MPASM  5.37                        TARGET.ASM   2-2-2013  15:45:46         PAGE 105


LOC  OBJECT CODE     LINE SOURCE TEXT
  VALUE

002A   0080               M  movwf INDF ; code of any sort will not overwrite the data. 
                      04024  
                      04025  FAR_CALL printu,printch
002B   ????               M  pagesel printch
002C   2???               M  call printch
002D   ????               M  pagesel printu    ;This one restores the caller's code page
002E   ???? ????      04026  banksel margpi
0030   08??           04027  movfw margpi
                      04028  PUSH
0031   0A84               M  incf FSR,f ; The "incf" op serves as an allocator; it happens first so that interrupting
0032   0080               M  movwf INDF ; code of any sort will not overwrite the data. 
0033   300A           04029  movlw .10 
                      04030  PUSH
0034   0A84               M  incf FSR,f ; The "incf" op serves as an allocator; it happens first so that interrupting
0035   0080               M  movwf INDF ; code of any sort will not overwrite the data. 
                      04031  
                      04032  FAR_CALL printu,modu
0036   ????               M  pagesel modu
0037   2???               M  call modu
0038   ????               M  pagesel printu    ;This one restores the caller's code page
                      04033  POP
0039   0800               M  movfw INDF ; preserve the safety of this code under interruptible conditions. 
003A   0384               M  decf FSR,f 
003B   3E30           04034  addlw '0' 
                      04035  PUSH
003C   0A84               M  incf FSR,f ; The "incf" op serves as an allocator; it happens first so that interrupting
003D   0080               M  movwf INDF ; code of any sort will not overwrite the data. 
                      04036  
                      04037  FAR_CALL printu,printch  
003E   ????               M  pagesel printch
003F   2???               M  call printch
0040   ????               M  pagesel printu    ;This one restores the caller's code page
0041   0008           04038  return
                      04039 
                      04040 
                      04041 
                      04042 #undefine margpi
                      04043 
                      04044 
                      04045 
                      04046 
                      04047 
                      04048 
                      04049 
                      04050  
                      04051 
                      04052  
                      04053 
                      04054 
                      04055 
                      04056 
                      04057 
                      04058 
MPASM  5.37                        TARGET.ASM   2-2-2013  15:45:46         PAGE 106


LOC  OBJECT CODE     LINE SOURCE TEXT
  VALUE

                      04059 
                      04060 
                      04061 
                      04062 
                      04063 
                      04064 
                      04065 
                      04066 
                      04067 
                      04068 
                      04069  
                      04070 ansiard CODE
                      04071 
                      04072 
                      04073 
                      04074 
                      04075 #define charx aart00
                      04076 
                      04077 
                      04078 #define ansiG aart01
                      04079 
                      04080 
0000                  04081 graphx:  
                      04082 #ifdef HLLMULTITASK
                      04083 #ifdef HLLGUARDaart 
                      04084  movf in_isr,f  
                      04085  btfsc STATUS,Z
                      04086  
                      04087 
                      04088 
                      04089  goto graphx0
                      04090 
                      04091 
                      04092 
                      04093  
                      04094  movlw 0x1b
                      04095  PUSH
                      04096  
                      04097  FAR_CALL graphx,printch
                      04098  movlw '['
                      04099  PUSH
                      04100  
                      04101  HALF_FAR_CALL printch
                      04102  
                      04103  FAR_CALL graphx,printu
                      04104  movlw ';'
                      04105  PUSH
                      04106  
                      04107  HALF_FAR_CALL printch
                      04108  
                      04109  FAR_CALL graphx,printu
                      04110  movlw 'H'
                      04111  PUSH
MPASM  5.37                        TARGET.ASM   2-2-2013  15:45:46         PAGE 107


LOC  OBJECT CODE     LINE SOURCE TEXT
  VALUE

                      04112  
                      04113  FAR_CALL graphx,printch
                      04114  
                      04115 
                      04116  POP
                      04117  banksel charx
                      04118  movwf charx
                      04119  
                      04120  xorlw .0 
                      04121  btfsc STATUS,Z
                      04122  goto allgxy
                      04123  banksel ansiG
                      04124  movwf ansiG
                      04125 lblgxy22:
                      04126  movlw 0xDB
                      04127  PUSH
                      04128  
                      04129  FAR_CALL graphx,printch
                      04130  banksel ansiG
                      04131  decfsz ansiG,f
                      04132  goto lblgxy22
                      04133  
                      04134 allgxy: 
                      04135  banksel charx
                      04136  movf charx,w
                      04137  subwf HLINDF,f
                      04138  POP
                      04139  xorlw .0 
                      04140  btfsc STATUS,Z
                      04141  goto retgxy
                      04142  banksel ansiG
                      04143  movwf ansiG
                      04144 lblgxy3:
                      04145  movlw 0xB0 
                      04146  PUSH
                      04147  
                      04148  FAR_CALL graphx,printch
                      04149  banksel ansiG
                      04150  decfsz ansiG,f
                      04151  goto lblgxy3
                      04152 retgxy:
                      04153 
                      04154  
                      04155  return
                      04156 
                      04157 
                      04158 
                      04159 #undefine charx
                      04160 
                      04161 
                      04162 #undefine ansiG
                      04163 
                      04164 
MPASM  5.37                        TARGET.ASM   2-2-2013  15:45:46         PAGE 108


LOC  OBJECT CODE     LINE SOURCE TEXT
  VALUE

                      04165 #define charx aart00+1
                      04166 
                      04167 
                      04168 #define ansiG aart01+1
                      04169 
                      04170 
                      04171 graphx0:
                      04172 #endif
                      04173 #endif
                      04174 
                      04175 
                      04176 
                      04177  
0000   301B           04178  movlw 0x1b
                      04179  PUSH
0001   0A84               M  incf FSR,f ; The "incf" op serves as an allocator; it happens first so that interrupting
0002   0080               M  movwf INDF ; code of any sort will not overwrite the data. 
                      04180  
                      04181  FAR_CALL graphx,printch
0003   ????               M  pagesel printch
0004   2???               M  call printch
0005   ????               M  pagesel graphx    ;This one restores the caller's code page
0006   305B           04182  movlw '['
                      04183  PUSH
0007   0A84               M  incf FSR,f ; The "incf" op serves as an allocator; it happens first so that interrupting
0008   0080               M  movwf INDF ; code of any sort will not overwrite the data. 
                      04184  
                      04185  HALF_FAR_CALL printch
0009   ????               M  pagesel printch        
000A   2???               M  call printch
                      04186  
                      04187  FAR_CALL graphx,printu
000B   ????               M  pagesel printu
000C   2???               M  call printu
000D   ????               M  pagesel graphx    ;This one restores the caller's code page
000E   303B           04188  movlw ';'
                      04189  PUSH
000F   0A84               M  incf FSR,f ; The "incf" op serves as an allocator; it happens first so that interrupting
0010   0080               M  movwf INDF ; code of any sort will not overwrite the data. 
                      04190  
                      04191  HALF_FAR_CALL printch
0011   ????               M  pagesel printch        
0012   2???               M  call printch
                      04192  
                      04193  FAR_CALL graphx,printu
0013   ????               M  pagesel printu
0014   2???               M  call printu
0015   ????               M  pagesel graphx    ;This one restores the caller's code page
0016   3048           04194  movlw 'H'
                      04195  PUSH
0017   0A84               M  incf FSR,f ; The "incf" op serves as an allocator; it happens first so that interrupting
0018   0080               M  movwf INDF ; code of any sort will not overwrite the data. 
                      04196  
MPASM  5.37                        TARGET.ASM   2-2-2013  15:45:46         PAGE 109


LOC  OBJECT CODE     LINE SOURCE TEXT
  VALUE

                      04197  FAR_CALL graphx,printch
0019   ????               M  pagesel printch
001A   2???               M  call printch
001B   ????               M  pagesel graphx    ;This one restores the caller's code page
                      04198  
                      04199 
                      04200  POP
001C   0800               M  movfw INDF ; preserve the safety of this code under interruptible conditions. 
001D   0384               M  decf FSR,f 
001E   ???? ????      04201  banksel charx
0020   00??           04202  movwf charx
                      04203  
0021   3A00           04204  xorlw .0 
0022   1903           04205  btfsc STATUS,Z
0023   2???           04206  goto hllBAAAA
0024   ???? ????      04207  banksel ansiG
0026   00??           04208  movwf ansiG
0027                  04209 hllAAAAA:
0027   30DB           04210  movlw 0xDB
                      04211  PUSH
0028   0A84               M  incf FSR,f ; The "incf" op serves as an allocator; it happens first so that interrupting
0029   0080               M  movwf INDF ; code of any sort will not overwrite the data. 
                      04212  
                      04213  FAR_CALL graphx,printch
002A   ????               M  pagesel printch
002B   2???               M  call printch
002C   ????               M  pagesel graphx    ;This one restores the caller's code page
002D   ???? ????      04214  banksel ansiG
002F   0B??           04215  decfsz ansiG,f
0030   2???           04216  goto hllAAAAA
                      04217  
0031                  04218 hllBAAAA: 
0031   ???? ????      04219  banksel charx
0033   08??           04220  movf charx,w
0034   0280           04221  subwf HLINDF,f
                      04222  POP
0035   0800               M  movfw INDF ; preserve the safety of this code under interruptible conditions. 
0036   0384               M  decf FSR,f 
0037   3A00           04223  xorlw .0 
0038   1903           04224  btfsc STATUS,Z
0039   2???           04225  goto hllDAAAA
003A   ???? ????      04226  banksel ansiG
003C   00??           04227  movwf ansiG
003D                  04228 hllCAAAA:
003D   30B0           04229  movlw 0xB0 
                      04230  PUSH
003E   0A84               M  incf FSR,f ; The "incf" op serves as an allocator; it happens first so that interrupting
003F   0080               M  movwf INDF ; code of any sort will not overwrite the data. 
                      04231  
                      04232  FAR_CALL graphx,printch
0040   ????               M  pagesel printch
0041   2???               M  call printch
0042   ????               M  pagesel graphx    ;This one restores the caller's code page
MPASM  5.37                        TARGET.ASM   2-2-2013  15:45:46         PAGE 110


LOC  OBJECT CODE     LINE SOURCE TEXT
  VALUE

0043   ???? ????      04233  banksel ansiG
0045   0B??           04234  decfsz ansiG,f
0046   2???           04235  goto hllCAAAA
0047                  04236 hllDAAAA:
                      04237 
                      04238  
0047   0008           04239  return
                      04240 
                      04241 
                      04242 
                      04243 #undefine charx
                      04244 
                      04245 
                      04246 #undefine ansiG
                      04247 
                      04248 
                      04249 
                      04250 
                      04251 
                      04252 
                      04253  
                      04254 
                      04255 
                      04256 hlog1a CODE
                      04257 
                      04258 
                      04259 
                      04260 #define margp2 hllblss00
                      04261 
                      04262 
0000                  04263 clearbit:  
                      04264 #ifdef HLLMULTITASK
                      04265 #ifdef HLLGUARDhllblss 
0000   08??           04266  movf in_isr,f  
0001   1903           04267  btfsc STATUS,Z
                      04268  
                      04269 
                      04270 
0002   2???           04271  goto clearbit0
                      04272 
                      04273  POP
0003   0800               M  movfw INDF ; preserve the safety of this code under interruptible conditions. 
0004   0384               M  decf FSR,f 
0005   ???? ????      04274  banksel margp2
0007   00??           04275  movwf margp2
                      04276  POP 
0008   0800               M  movfw INDF ; preserve the safety of this code under interruptible conditions. 
0009   0384               M  decf FSR,f 
000A   3A00           04277  xorlw .0
000B   1D03           04278  btfss STATUS,Z
000C   2???           04279  goto tff00h
                      04280  
000D   08??           04281  movfw margp2
MPASM  5.37                        TARGET.ASM   2-2-2013  15:45:46         PAGE 111


LOC  OBJECT CODE     LINE SOURCE TEXT
  VALUE

000E   39FE           04282  andlw .255-.1
000F   2???           04283  goto tff99h
0010                  04284 tff00h: 
                      04285  
0010   3A01           04286  xorlw .1
0011   1D03           04287  btfss STATUS,Z
0012   2???           04288  goto tff01h
                      04289  
0013   08??           04290  movfw margp2
0014   39FD           04291  andlw .255-.2
0015   2???           04292  goto tff99h
0016                  04293 tff01h: 
0016   3A01           04294  xorlw .1
0017   3A02           04295  xorlw .2
0018   1D03           04296  btfss STATUS,Z
0019   2???           04297  goto tff02h
                      04298  
001A   08??           04299  movfw margp2
001B   39FB           04300  andlw .255-.4
001C   2???           04301  goto tff99h
001D                  04302 tff02h: 
001D   3A02           04303  xorlw .2
001E   3A03           04304  xorlw .3
001F   1D03           04305  btfss STATUS,Z
0020   2???           04306  goto tff03h
                      04307  
0021   08??           04308  movfw margp2
0022   39F7           04309  andlw .255-.8
0023   2???           04310  goto tff99h
0024                  04311 tff03h: 
0024   3A03           04312  xorlw .3
0025   3A04           04313  xorlw .4
0026   1D03           04314  btfss STATUS,Z
0027   2???           04315  goto tff04h
                      04316  
0028   08??           04317  movfw margp2
0029   39EF           04318  andlw .255-.16
002A   2???           04319  goto tff99h
002B                  04320 tff04h: 
002B   3A04           04321  xorlw .4
002C   3A05           04322  xorlw .5
002D   1D03           04323  btfss STATUS,Z
002E   2???           04324  goto tff05h
                      04325  
002F   08??           04326  movfw margp2
0030   39DF           04327  andlw .255-.32
0031   2???           04328  goto tff99h
0032                  04329 tff05h: 
0032   3A05           04330  xorlw .5
0033   3A06           04331  xorlw .6
0034   1D03           04332  btfss STATUS,Z
0035   2???           04333  goto tff07h
                      04334  
MPASM  5.37                        TARGET.ASM   2-2-2013  15:45:46         PAGE 112


LOC  OBJECT CODE     LINE SOURCE TEXT
  VALUE

0036   08??           04335  movfw margp2
0037   39BF           04336  andlw .255-.64
0038   2???           04337  goto tff99h
0039                  04338 tff07h: 
                      04339  
0039   08??           04340  movfw margp2
003A   397F           04341  andlw .255-.128
003B                  04342 tff99h:  
                      04343  PUSH
003B   0A84               M  incf FSR,f ; The "incf" op serves as an allocator; it happens first so that interrupting
003C   0080               M  movwf INDF ; code of any sort will not overwrite the data. 
003D   0008           04344  return
                      04345 
                      04346 
                      04347 
                      04348 
                      04349 #undefine margp2
                      04350 
                      04351 
                      04352 #define margp2 hllblss00+1
                      04353 
                      04354 
003E                  04355 clearbit0:
                      04356 #endif
                      04357 #endif
                      04358 
                      04359  POP
003E   0800               M  movfw INDF ; preserve the safety of this code under interruptible conditions. 
003F   0384               M  decf FSR,f 
0040   ???? ????      04360  banksel margp2
0042   00??           04361  movwf margp2
                      04362  POP 
0043   0800               M  movfw INDF ; preserve the safety of this code under interruptible conditions. 
0044   0384               M  decf FSR,f 
0045   3A00           04363  xorlw .0
0046   1D03           04364  btfss STATUS,Z
0047   2???           04365  goto hllEAAAA
                      04366  
0048   08??           04367  movfw margp2
0049   39FE           04368  andlw .255-.1
004A   2???           04369  goto hllLAAAA
004B                  04370 hllEAAAA: 
                      04371  
004B   3A01           04372  xorlw .1
004C   1D03           04373  btfss STATUS,Z
004D   2???           04374  goto hllFAAAA
                      04375  
004E   08??           04376  movfw margp2
004F   39FD           04377  andlw .255-.2
0050   2???           04378  goto hllLAAAA
0051                  04379 hllFAAAA: 
0051   3A01           04380  xorlw .1
0052   3A02           04381  xorlw .2
MPASM  5.37                        TARGET.ASM   2-2-2013  15:45:46         PAGE 113


LOC  OBJECT CODE     LINE SOURCE TEXT
  VALUE

0053   1D03           04382  btfss STATUS,Z
0054   2???           04383  goto hllGAAAA
                      04384  
0055   08??           04385  movfw margp2
0056   39FB           04386  andlw .255-.4
0057   2???           04387  goto hllLAAAA
0058                  04388 hllGAAAA: 
0058   3A02           04389  xorlw .2
0059   3A03           04390  xorlw .3
005A   1D03           04391  btfss STATUS,Z
005B   2???           04392  goto hllHAAAA
                      04393  
005C   08??           04394  movfw margp2
005D   39F7           04395  andlw .255-.8
005E   2???           04396  goto hllLAAAA
005F                  04397 hllHAAAA: 
005F   3A03           04398  xorlw .3
0060   3A04           04399  xorlw .4
0061   1D03           04400  btfss STATUS,Z
0062   2???           04401  goto hllIAAAA
                      04402  
0063   08??           04403  movfw margp2
0064   39EF           04404  andlw .255-.16
0065   2???           04405  goto hllLAAAA
0066                  04406 hllIAAAA: 
0066   3A04           04407  xorlw .4
0067   3A05           04408  xorlw .5
0068   1D03           04409  btfss STATUS,Z
0069   2???           04410  goto hllJAAAA
                      04411  
006A   08??           04412  movfw margp2
006B   39DF           04413  andlw .255-.32
006C   2???           04414  goto hllLAAAA
006D                  04415 hllJAAAA: 
006D   3A05           04416  xorlw .5
006E   3A06           04417  xorlw .6
006F   1D03           04418  btfss STATUS,Z
0070   2???           04419  goto hllKAAAA
                      04420  
0071   08??           04421  movfw margp2
0072   39BF           04422  andlw .255-.64
0073   2???           04423  goto hllLAAAA
0074                  04424 hllKAAAA: 
                      04425  
0074   08??           04426  movfw margp2
0075   397F           04427  andlw .255-.128
0076                  04428 hllLAAAA:  
                      04429  PUSH
0076   0A84               M  incf FSR,f ; The "incf" op serves as an allocator; it happens first so that interrupting
0077   0080               M  movwf INDF ; code of any sort will not overwrite the data. 
0078   0008           04430  return
                      04431 
                      04432 
MPASM  5.37                        TARGET.ASM   2-2-2013  15:45:46         PAGE 114


LOC  OBJECT CODE     LINE SOURCE TEXT
  VALUE

                      04433 
                      04434 
                      04435 #undefine margp2
                      04436 
                      04437 
                      04438 
                      04439 
                      04440 
                      04441 
                      04442  
                      04443 
                      04444  
                      04445 ansiarb CODE
                      04446  
                      04447  
0000                  04448 cls:
                      04449  
0000   301B           04450  movlw 0x1b
                      04451  PUSH
0001   0A84               M  incf FSR,f ; The "incf" op serves as an allocator; it happens first so that interrupting
0002   0080               M  movwf INDF ; code of any sort will not overwrite the data. 
                      04452  
                      04453  FAR_CALL cls,printch
0003   ????               M  pagesel printch
0004   2???               M  call printch
0005   ????               M  pagesel cls       ;This one restores the caller's code page
0006   305B           04454  movlw '['
                      04455  PUSH
0007   0A84               M  incf FSR,f ; The "incf" op serves as an allocator; it happens first so that interrupting
0008   0080               M  movwf INDF ; code of any sort will not overwrite the data. 
                      04456  
                      04457  FAR_CALL cls,printch
0009   ????               M  pagesel printch
000A   2???               M  call printch
000B   ????               M  pagesel cls       ;This one restores the caller's code page
000C   3032           04458  movlw '2'
                      04459  PUSH
000D   0A84               M  incf FSR,f ; The "incf" op serves as an allocator; it happens first so that interrupting
000E   0080               M  movwf INDF ; code of any sort will not overwrite the data. 
                      04460  
                      04461  FAR_CALL cls,printch
000F   ????               M  pagesel printch
0010   2???               M  call printch
0011   ????               M  pagesel cls       ;This one restores the caller's code page
0012   304B           04462  movlw 'K'
                      04463  PUSH
0013   0A84               M  incf FSR,f ; The "incf" op serves as an allocator; it happens first so that interrupting
0014   0080               M  movwf INDF ; code of any sort will not overwrite the data. 
                      04464  
                      04465  FAR_CALL cls,printch
0015   ????               M  pagesel printch
0016   2???               M  call printch
0017   ????               M  pagesel cls       ;This one restores the caller's code page
MPASM  5.37                        TARGET.ASM   2-2-2013  15:45:46         PAGE 115


LOC  OBJECT CODE     LINE SOURCE TEXT
  VALUE

                      04466 
                      04467 
0018   301B           04468  movlw 0x1b
                      04469  PUSH
0019   0A84               M  incf FSR,f ; The "incf" op serves as an allocator; it happens first so that interrupting
001A   0080               M  movwf INDF ; code of any sort will not overwrite the data. 
                      04470  
                      04471  FAR_CALL cls,printch
001B   ????               M  pagesel printch
001C   2???               M  call printch
001D   ????               M  pagesel cls       ;This one restores the caller's code page
001E   305B           04472  movlw '['
                      04473  PUSH
001F   0A84               M  incf FSR,f ; The "incf" op serves as an allocator; it happens first so that interrupting
0020   0080               M  movwf INDF ; code of any sort will not overwrite the data. 
                      04474  
                      04475  FAR_CALL cls,printch
0021   ????               M  pagesel printch
0022   2???               M  call printch
0023   ????               M  pagesel cls       ;This one restores the caller's code page
0024   304A           04476  movlw 'J'
                      04477  PUSH
0025   0A84               M  incf FSR,f ; The "incf" op serves as an allocator; it happens first so that interrupting
0026   0080               M  movwf INDF ; code of any sort will not overwrite the data. 
                      04478  
                      04479  FAR_CALL cls,printch
0027   ????               M  pagesel printch
0028   2???               M  call printch
0029   ????               M  pagesel cls       ;This one restores the caller's code page
                      04480  
                      04481  
                      04482  
002A   301B           04483  movlw 0x1b
                      04484  PUSH
002B   0A84               M  incf FSR,f ; The "incf" op serves as an allocator; it happens first so that interrupting
002C   0080               M  movwf INDF ; code of any sort will not overwrite the data. 
                      04485  
                      04486  FAR_CALL cls,printch
002D   ????               M  pagesel printch
002E   2???               M  call printch
002F   ????               M  pagesel cls       ;This one restores the caller's code page
0030   305B           04487  movlw '['
                      04488  PUSH
0031   0A84               M  incf FSR,f ; The "incf" op serves as an allocator; it happens first so that interrupting
0032   0080               M  movwf INDF ; code of any sort will not overwrite the data. 
                      04489  
                      04490  FAR_CALL cls,printch
0033   ????               M  pagesel printch
0034   2???               M  call printch
0035   ????               M  pagesel cls       ;This one restores the caller's code page
0036   3031           04491  movlw '1'
                      04492  PUSH
0037   0A84               M  incf FSR,f ; The "incf" op serves as an allocator; it happens first so that interrupting
MPASM  5.37                        TARGET.ASM   2-2-2013  15:45:46         PAGE 116


LOC  OBJECT CODE     LINE SOURCE TEXT
  VALUE

0038   0080               M  movwf INDF ; code of any sort will not overwrite the data. 
                      04493  
                      04494  FAR_CALL cls,printch
0039   ????               M  pagesel printch
003A   2???               M  call printch
003B   ????               M  pagesel cls       ;This one restores the caller's code page
003C   304A           04495  movlw 'J'
                      04496  PUSH
003D   0A84               M  incf FSR,f ; The "incf" op serves as an allocator; it happens first so that interrupting
003E   0080               M  movwf INDF ; code of any sort will not overwrite the data. 
                      04497  
                      04498  FAR_CALL cls,printch
003F   ????               M  pagesel printch
0040   2???               M  call printch
0041   ????               M  pagesel cls       ;This one restores the caller's code page
                      04499 
                      04500 
0042   301B           04501  movlw 0x1b
                      04502  PUSH
0043   0A84               M  incf FSR,f ; The "incf" op serves as an allocator; it happens first so that interrupting
0044   0080               M  movwf INDF ; code of any sort will not overwrite the data. 
                      04503  
                      04504  FAR_CALL cls,printch
0045   ????               M  pagesel printch
0046   2???               M  call printch
0047   ????               M  pagesel cls       ;This one restores the caller's code page
0048   305B           04505  movlw '['
                      04506  PUSH
0049   0A84               M  incf FSR,f ; The "incf" op serves as an allocator; it happens first so that interrupting
004A   0080               M  movwf INDF ; code of any sort will not overwrite the data. 
                      04507  
                      04508  FAR_CALL cls,printch
004B   ????               M  pagesel printch
004C   2???               M  call printch
004D   ????               M  pagesel cls       ;This one restores the caller's code page
004E   3032           04509  movlw '2'
                      04510  PUSH
004F   0A84               M  incf FSR,f ; The "incf" op serves as an allocator; it happens first so that interrupting
0050   0080               M  movwf INDF ; code of any sort will not overwrite the data. 
                      04511  
                      04512  FAR_CALL cls,printch
0051   ????               M  pagesel printch
0052   2???               M  call printch
0053   ????               M  pagesel cls       ;This one restores the caller's code page
0054   304B           04513  movlw 'K'
                      04514  PUSH
0055   0A84               M  incf FSR,f ; The "incf" op serves as an allocator; it happens first so that interrupting
0056   0080               M  movwf INDF ; code of any sort will not overwrite the data. 
                      04515  
                      04516  FAR_CALL cls,printch
0057   ????               M  pagesel printch
0058   2???               M  call printch
0059   ????               M  pagesel cls       ;This one restores the caller's code page
MPASM  5.37                        TARGET.ASM   2-2-2013  15:45:46         PAGE 117


LOC  OBJECT CODE     LINE SOURCE TEXT
  VALUE

                      04517 
                      04518 
005A   301B           04519  movlw 0x1b
                      04520  PUSH
005B   0A84               M  incf FSR,f ; The "incf" op serves as an allocator; it happens first so that interrupting
005C   0080               M  movwf INDF ; code of any sort will not overwrite the data. 
                      04521  
                      04522  FAR_CALL cls,printch
005D   ????               M  pagesel printch
005E   2???               M  call printch
005F   ????               M  pagesel cls       ;This one restores the caller's code page
0060   305B           04523  movlw '['
                      04524  PUSH
0061   0A84               M  incf FSR,f ; The "incf" op serves as an allocator; it happens first so that interrupting
0062   0080               M  movwf INDF ; code of any sort will not overwrite the data. 
                      04525  
                      04526  FAR_CALL cls,printch
0063   ????               M  pagesel printch
0064   2???               M  call printch
0065   ????               M  pagesel cls       ;This one restores the caller's code page
0066   304A           04527  movlw 'J'
                      04528  PUSH
0067   0A84               M  incf FSR,f ; The "incf" op serves as an allocator; it happens first so that interrupting
0068   0080               M  movwf INDF ; code of any sort will not overwrite the data. 
                      04529  
                      04530  FAR_CALL cls,printch
0069   ????               M  pagesel printch
006A   2???               M  call printch
006B   ????               M  pagesel cls       ;This one restores the caller's code page
                      04531  
                      04532  
                      04533  
006C   301B           04534  movlw 0x1b
                      04535  PUSH
006D   0A84               M  incf FSR,f ; The "incf" op serves as an allocator; it happens first so that interrupting
006E   0080               M  movwf INDF ; code of any sort will not overwrite the data. 
                      04536  
                      04537  FAR_CALL cls,printch
006F   ????               M  pagesel printch
0070   2???               M  call printch
0071   ????               M  pagesel cls       ;This one restores the caller's code page
0072   305B           04538  movlw '['
                      04539  PUSH
0073   0A84               M  incf FSR,f ; The "incf" op serves as an allocator; it happens first so that interrupting
0074   0080               M  movwf INDF ; code of any sort will not overwrite the data. 
                      04540  
                      04541  FAR_CALL cls,printch
0075   ????               M  pagesel printch
0076   2???               M  call printch
0077   ????               M  pagesel cls       ;This one restores the caller's code page
0078   3031           04542  movlw '1'
                      04543  PUSH
0079   0A84               M  incf FSR,f ; The "incf" op serves as an allocator; it happens first so that interrupting
MPASM  5.37                        TARGET.ASM   2-2-2013  15:45:46         PAGE 118


LOC  OBJECT CODE     LINE SOURCE TEXT
  VALUE

007A   0080               M  movwf INDF ; code of any sort will not overwrite the data. 
                      04544  
                      04545  FAR_CALL cls,printch
007B   ????               M  pagesel printch
007C   2???               M  call printch
007D   ????               M  pagesel cls       ;This one restores the caller's code page
007E   304A           04546  movlw 'J'
                      04547  PUSH
007F   0A84               M  incf FSR,f ; The "incf" op serves as an allocator; it happens first so that interrupting
0080   0080               M  movwf INDF ; code of any sort will not overwrite the data. 
                      04548  
                      04549  FAR_CALL cls,printch
0081   ????               M  pagesel printch
0082   2???               M  call printch
0083   ????               M  pagesel cls       ;This one restores the caller's code page
                      04550 
0084   0008           04551  return
                      04552 
                      04553  
                      04554 
                      04555 
                      04556 
                      04557 
                      04558 
                      04559 
                      04560 
                      04561  
                      04562  
                      04563 
                      04564 hlpa22 CODE
                      04565 
                      04566 
0000                  04567 day:
                      04568  
                      04569  
0000   301B           04570  movlw 0x1b
                      04571  PUSH
0001   0A84               M  incf FSR,f ; The "incf" op serves as an allocator; it happens first so that interrupting
0002   0080               M  movwf INDF ; code of any sort will not overwrite the data. 
                      04572  
                      04573  FAR_CALL day,printch
0003   ????               M  pagesel printch
0004   2???               M  call printch
0005   ????               M  pagesel day       ;This one restores the caller's code page
0006   305B           04574  movlw '['
                      04575  PUSH
0007   0A84               M  incf FSR,f ; The "incf" op serves as an allocator; it happens first so that interrupting
0008   0080               M  movwf INDF ; code of any sort will not overwrite the data. 
                      04576  
                      04577  FAR_CALL day,printch
0009   ????               M  pagesel printch
000A   2???               M  call printch
000B   ????               M  pagesel day       ;This one restores the caller's code page
MPASM  5.37                        TARGET.ASM   2-2-2013  15:45:46         PAGE 119


LOC  OBJECT CODE     LINE SOURCE TEXT
  VALUE

                      04578 
000C   3030           04579  movlw '0'
                      04580  PUSH
000D   0A84               M  incf FSR,f ; The "incf" op serves as an allocator; it happens first so that interrupting
000E   0080               M  movwf INDF ; code of any sort will not overwrite the data. 
                      04581  
                      04582  FAR_CALL day,printch
000F   ????               M  pagesel printch
0010   2???               M  call printch
0011   ????               M  pagesel day       ;This one restores the caller's code page
0012   303B           04583  movlw ';'
                      04584  PUSH
0013   0A84               M  incf FSR,f ; The "incf" op serves as an allocator; it happens first so that interrupting
0014   0080               M  movwf INDF ; code of any sort will not overwrite the data. 
                      04585  
                      04586  FAR_CALL day,printch
0015   ????               M  pagesel printch
0016   2???               M  call printch
0017   ????               M  pagesel day       ;This one restores the caller's code page
                      04587 
0018   3034           04588  movlw '4'
                      04589  PUSH
0019   0A84               M  incf FSR,f ; The "incf" op serves as an allocator; it happens first so that interrupting
001A   0080               M  movwf INDF ; code of any sort will not overwrite the data. 
                      04590  
                      04591  FAR_CALL day,printch
001B   ????               M  pagesel printch
001C   2???               M  call printch
001D   ????               M  pagesel day       ;This one restores the caller's code page
001E   3037           04592  movlw '7'
                      04593  PUSH
001F   0A84               M  incf FSR,f ; The "incf" op serves as an allocator; it happens first so that interrupting
0020   0080               M  movwf INDF ; code of any sort will not overwrite the data. 
                      04594  
                      04595  FAR_CALL day,printch
0021   ????               M  pagesel printch
0022   2???               M  call printch
0023   ????               M  pagesel day       ;This one restores the caller's code page
0024   303B           04596  movlw ';'
                      04597  PUSH
0025   0A84               M  incf FSR,f ; The "incf" op serves as an allocator; it happens first so that interrupting
0026   0080               M  movwf INDF ; code of any sort will not overwrite the data. 
                      04598  
                      04599  FAR_CALL day,printch
0027   ????               M  pagesel printch
0028   2???               M  call printch
0029   ????               M  pagesel day       ;This one restores the caller's code page
002A   3033           04600  movlw '3'
                      04601  PUSH
002B   0A84               M  incf FSR,f ; The "incf" op serves as an allocator; it happens first so that interrupting
002C   0080               M  movwf INDF ; code of any sort will not overwrite the data. 
                      04602  
                      04603  FAR_CALL day,printch
MPASM  5.37                        TARGET.ASM   2-2-2013  15:45:46         PAGE 120


LOC  OBJECT CODE     LINE SOURCE TEXT
  VALUE

002D   ????               M  pagesel printch
002E   2???               M  call printch
002F   ????               M  pagesel day       ;This one restores the caller's code page
0030   3034           04604  movlw '4'
                      04605  PUSH
0031   0A84               M  incf FSR,f ; The "incf" op serves as an allocator; it happens first so that interrupting
0032   0080               M  movwf INDF ; code of any sort will not overwrite the data. 
                      04606  
                      04607  FAR_CALL day,printch
0033   ????               M  pagesel printch
0034   2???               M  call printch
0035   ????               M  pagesel day       ;This one restores the caller's code page
0036   306D           04608  movlw 'm'
                      04609  PUSH
0037   0A84               M  incf FSR,f ; The "incf" op serves as an allocator; it happens first so that interrupting
0038   0080               M  movwf INDF ; code of any sort will not overwrite the data. 
                      04610  
                      04611  FAR_CALL day,printch
0039   ????               M  pagesel printch
003A   2???               M  call printch
003B   ????               M  pagesel day       ;This one restores the caller's code page
                      04612  
003C   0008           04613  return
                      04614  
                      04615 
                      04616 
                      04617  
                      04618 
                      04619 
                      04620 
                      04621  
                      04622 
                      04623 
                      04624 
                      04625  
                      04626  
                      04627 
                      04628 hllcmppic CODE
                      04629 
                      04630 
                      04631 
                      04632 #define mkarg1 hllblss00
                      04633 
                      04634 
0000                  04635 geu:  
                      04636 #ifdef HLLMULTITASK
                      04637 #ifdef HLLGUARDhllblss 
0000   08??           04638  movf in_isr,f  
0001   1903           04639  btfsc STATUS,Z
                      04640  
                      04641 
                      04642 
0002   2???           04643  goto geu0
MPASM  5.37                        TARGET.ASM   2-2-2013  15:45:46         PAGE 121


LOC  OBJECT CODE     LINE SOURCE TEXT
  VALUE

                      04644 
                      04645 
                      04646  POP
0003   0800               M  movfw INDF ; preserve the safety of this code under interruptible conditions. 
0004   0384               M  decf FSR,f 
0005   ???? ????      04647  banksel mkarg1
0007   00??           04648  movwf mkarg1    
                      04649  POP
0008   0800               M  movfw INDF ; preserve the safety of this code under interruptible conditions. 
0009   0384               M  decf FSR,f 
000A   02??           04650  subwf mkarg1,w
000B   1903           04651  btfsc STATUS,Z
000C   2???           04652  goto mxhbl
000D   1803           04653  btfsc STATUS,C
000E   2???           04654  goto mxhbm
000F                  04655 mxhbl:
000F   3001           04656  movlw .1
                      04657  PUSH
0010   0A84               M  incf FSR,f ; The "incf" op serves as an allocator; it happens first so that interrupting
0011   0080               M  movwf INDF ; code of any sort will not overwrite the data. 
                      04658  
0012   0008           04659  return
0013                  04660 mxhbm:
0013   3000           04661  movlw .0
                      04662  PUSH
0014   0A84               M  incf FSR,f ; The "incf" op serves as an allocator; it happens first so that interrupting
0015   0080               M  movwf INDF ; code of any sort will not overwrite the data. 
                      04663  
0016   0008           04664  return
                      04665 
                      04666 
                      04667 
                      04668 #undefine mkarg1
                      04669 
                      04670 
                      04671 #define mkarg1 hllblss00+1
                      04672 
                      04673 
0017                  04674 geu0:
                      04675 #endif
                      04676 #endif
                      04677 
                      04678 
                      04679  POP
0017   0800               M  movfw INDF ; preserve the safety of this code under interruptible conditions. 
0018   0384               M  decf FSR,f 
0019   ???? ????      04680  banksel mkarg1
001B   00??           04681  movwf mkarg1    
                      04682  POP
001C   0800               M  movfw INDF ; preserve the safety of this code under interruptible conditions. 
001D   0384               M  decf FSR,f 
001E   02??           04683  subwf mkarg1,w
001F   1903           04684  btfsc STATUS,Z
MPASM  5.37                        TARGET.ASM   2-2-2013  15:45:46         PAGE 122


LOC  OBJECT CODE     LINE SOURCE TEXT
  VALUE

0020   2???           04685  goto hllMAAAA
0021   1803           04686  btfsc STATUS,C
0022   2???           04687  goto hllNAAAA
0023                  04688 hllMAAAA:
0023   3001           04689  movlw .1
                      04690  PUSH
0024   0A84               M  incf FSR,f ; The "incf" op serves as an allocator; it happens first so that interrupting
0025   0080               M  movwf INDF ; code of any sort will not overwrite the data. 
                      04691  
0026   0008           04692  return
0027                  04693 hllNAAAA:
0027   3000           04694  movlw .0
                      04695  PUSH
0028   0A84               M  incf FSR,f ; The "incf" op serves as an allocator; it happens first so that interrupting
0029   0080               M  movwf INDF ; code of any sort will not overwrite the data. 
                      04696  
002A   0008           04697  return
                      04698 
                      04699 
                      04700 
                      04701 #undefine mkarg1
                      04702 
                      04703 
                      04704 
                      04705 
                      04706 
                      04707 
                      04708 
                      04709  
                      04710 
                      04711 
                      04712 
                      04713 ukrnl2 UDATA
0000                  04714 stack res HLOE_STACK_SIZE
                      04715  
                      04716 ukrnl3 UDATA 
0000                  04717 alt_stack res HLOE_STACK2_SIZE
                      04718  
                      04719 
                      04720 
                      04721 ukernl udata 
                      04722 
                      04723 
                      04724 
                      04725 
                      04726 
0000                  04727 hllblss00 res 1           
                      04728 #ifdef HLLMULTITASK
                      04729 #ifdef HLLGUARDhllblss
0001                  04730 hllblss00isr res 1      
                      04731 #endif
                      04732 #endif
                      04733 
MPASM  5.37                        TARGET.ASM   2-2-2013  15:45:46         PAGE 123


LOC  OBJECT CODE     LINE SOURCE TEXT
  VALUE

0002                  04734 hllblss01 res 1    
                      04735 #ifdef HLLMULTITASK
                      04736 #ifdef HLLGUARDhllblss
0003                  04737 hllblss01isr res 1      
                      04738 #endif
                      04739 #endif
                      04740 
0004                  04741 hllblss02 res 1    
                      04742 #ifdef HLLMULTITASK
                      04743 #ifdef HLLGUARDhllblss
0005                  04744 hllblss02isr res 1      
                      04745 #endif
                      04746 #endif
                      04747   
                      04748 ukrshr udata_shr
                      04749 
                      04750 
0000                  04751 softstack0 res 1                
                      04752 #ifdef HLLMULTITASK
0001                  04753 softstack0isr res 1
                      04754 #endif
                      04755 
0002                  04756 softstack1 res 1                
                      04757 #ifdef HLLMULTITASK
0003                  04758 softstack1isr res 1
                      04759 #endif
                      04760 
0004                  04761 softstack2 res 1                
                      04762 #ifdef HLLMULTITASK
0005                  04763 softstack2isr res 1
                      04764 #endif
                      04765 
0006                  04766 alt_fsr res 1
0007                  04767 W_Save res 1 
0008                  04768 STATUS_Save res 1
0009                  04769 FSR_Save res 1
000A                  04770 ALT_Save res 1
000B                  04771 in_isr res 1
                      04772 
                      04773 hllkrna00 CODE
                      04774 
                      04775  
                      04776 
                      04777 
                      04778 #define mterm hllblss00
                      04779 
                      04780 
0000                  04781 mul:  
                      04782 #ifdef HLLMULTITASK
                      04783 #ifdef HLLGUARDhllblss 
0000   08??           04784  movf in_isr,f  
0001   1903           04785  btfsc STATUS,Z
                      04786  
MPASM  5.37                        TARGET.ASM   2-2-2013  15:45:46         PAGE 124


LOC  OBJECT CODE     LINE SOURCE TEXT
  VALUE

                      04787 
                      04788 
0002   2???           04789  goto mul0
                      04790 
                      04791  POP
0003   0800               M  movfw INDF ; preserve the safety of this code under interruptible conditions. 
0004   0384               M  decf FSR,f 
0005   ???? ????      04792  banksel mterm 
0007   00??           04793  movwf mterm
0008   0103           04794  clrw 
0009   0700           04795  addwf HLINDF,w 
000A   03??           04796  decf mterm,f 
000B   1D03           04797  btfss STATUS,Z 
000C   2???           04798  goto $-3
000D   0080           04799  movwf HLINDF
000E   0008           04800  return
                      04801 
                      04802 
                      04803 
                      04804 #undefine mterm
                      04805 
                      04806 
                      04807 #define mterm hllblss00+1
                      04808 
                      04809 
000F                  04810 mul0:
                      04811 #endif
                      04812 #endif
                      04813 
                      04814  POP
000F   0800               M  movfw INDF ; preserve the safety of this code under interruptible conditions. 
0010   0384               M  decf FSR,f 
0011   ???? ????      04815  banksel mterm 
0013   00??           04816  movwf mterm
0014   0103           04817  clrw 
0015   0700           04818  addwf HLINDF,w 
0016   03??           04819  decf mterm,f 
0017   1D03           04820  btfss STATUS,Z 
0018   2???           04821  goto $-3
0019   0080           04822  movwf HLINDF
001A   0008           04823  return
                      04824 
                      04825 
                      04826 
                      04827 #undefine mterm
                      04828 hllkrna01 CODE
                      04829 
0000                  04830 add: 
                      04831  POP
0000   0800               M  movfw INDF ; preserve the safety of this code under interruptible conditions. 
0001   0384               M  decf FSR,f 
0002   0700           04832  addwf HLINDF,w
0003   0384           04833  decf HLFSR,f 
MPASM  5.37                        TARGET.ASM   2-2-2013  15:45:46         PAGE 125


LOC  OBJECT CODE     LINE SOURCE TEXT
  VALUE

                      04834  PUSH
0004   0A84               M  incf FSR,f ; The "incf" op serves as an allocator; it happens first so that interrupting
0005   0080               M  movwf INDF ; code of any sort will not overwrite the data. 
0006   0008           04835  return
                      04836  
                      04837 hllkrna02 CODE 
                      04838 
0000                  04839 negti:  
0000   0980           04840  comf HLINDF,f
0001   0A80           04841  incf HLINDF,f
0002   0008           04842  return
                      04843  
                      04844 hllkrna03 CODE 
                      04845  
0000                  04846 printch:
                      04847  POP
0000   0800               M  movfw INDF ; preserve the safety of this code under interruptible conditions. 
0001   0384               M  decf FSR,f 
                      04848 #ifdef HLLMULTITASK 
                      04849  
0002   1283 1303      04850  banksel PIR1
0004   1E0C           04851  btfss PIR1,TXIF  
0005   2???           04852  goto $-1 
                      04853 #endif 
                      04854  
0006   1283 1303      04855  banksel TXREG
0008   0099           04856  movwf TXREG  
                      04857  
0009   1283 1303      04858  banksel PIR1
000B   1E0C           04859  btfss PIR1,TXIF  
000C   2???           04860  goto $-1  
000D   0008           04861  return  
                      04862  
                      04863 
                      04864 hllkrna04 CODE
                      04865  
                      04866 
                      04867 
                      04868 #define mterm hllblss00
                      04869 
                      04870 
                      04871 #define mdiv hllblss01
                      04872 
                      04873 
                      04874 #define mquot hllblss02
                      04875 
                      04876 
0000                  04877 modu:  
                      04878 #ifdef HLLMULTITASK
                      04879 #ifdef HLLGUARDhllblss 
0000   08??           04880  movf in_isr,f  
0001   1903           04881  btfsc STATUS,Z
                      04882  
MPASM  5.37                        TARGET.ASM   2-2-2013  15:45:46         PAGE 126


LOC  OBJECT CODE     LINE SOURCE TEXT
  VALUE

                      04883 
                      04884 
0002   2???           04885  goto modu0
                      04886 
0003   ???? ????      04887  banksel mquot 
0005   01??           04888  clrf mquot
                      04889  POP
0006   0800               M  movfw INDF ; preserve the safety of this code under interruptible conditions. 
0007   0384               M  decf FSR,f 
0008   00??           04890  movwf mdiv
                      04891  POP
0009   0800               M  movfw INDF ; preserve the safety of this code under interruptible conditions. 
000A   0384               M  decf FSR,f 
000B   00??           04892  movwf mterm
000C   08??           04893  movfw mdiv
000D   02??           04894  subwf mterm,f
000E   1C03           04895  btfss STATUS,C 
000F   2???           04896  goto $+3
0010   0A??           04897  incf mquot,f 
0011   2???           04898  goto $-4
0012   07??           04899  addwf mterm,w
                      04900  PUSH
0013   0A84               M  incf FSR,f ; The "incf" op serves as an allocator; it happens first so that interrupting
0014   0080               M  movwf INDF ; code of any sort will not overwrite the data. 
0015   0008           04901  return 
                      04902 
                      04903 
                      04904 
                      04905 #undefine mterm
                      04906 
                      04907 
                      04908 #undefine mdiv
                      04909 
                      04910 
                      04911 #undefine mquot
                      04912 
                      04913 
                      04914 #define mterm hllblss00+1
                      04915 
                      04916 
                      04917 #define mdiv hllblss01+1
                      04918 
                      04919 
                      04920 #define mquot hllblss02+1
                      04921 
                      04922 
0016                  04923 modu0:
                      04924 #endif
                      04925 #endif
                      04926 
0016   ???? ????      04927  banksel mquot 
0018   01??           04928  clrf mquot
                      04929  POP
MPASM  5.37                        TARGET.ASM   2-2-2013  15:45:46         PAGE 127


LOC  OBJECT CODE     LINE SOURCE TEXT
  VALUE

0019   0800               M  movfw INDF ; preserve the safety of this code under interruptible conditions. 
001A   0384               M  decf FSR,f 
001B   00??           04930  movwf mdiv
                      04931  POP
001C   0800               M  movfw INDF ; preserve the safety of this code under interruptible conditions. 
001D   0384               M  decf FSR,f 
001E   00??           04932  movwf mterm
001F   08??           04933  movfw mdiv
0020   02??           04934  subwf mterm,f
0021   1C03           04935  btfss STATUS,C 
0022   2???           04936  goto $+3
0023   0A??           04937  incf mquot,f 
0024   2???           04938  goto $-4
0025   07??           04939  addwf mterm,w
                      04940  PUSH
0026   0A84               M  incf FSR,f ; The "incf" op serves as an allocator; it happens first so that interrupting
0027   0080               M  movwf INDF ; code of any sort will not overwrite the data. 
0028   0008           04941  return 
                      04942 
                      04943 
                      04944 
                      04945 #undefine mterm
                      04946 
                      04947 
                      04948 #undefine mdiv
                      04949 
                      04950 
                      04951 #undefine mquot
                      04952 hllkrna05 CODE
                      04953 
                      04954 
                      04955 
                      04956 #define mterm hllblss00
                      04957 
                      04958 
                      04959 #define mdiv hllblss01
                      04960 
                      04961 
                      04962 #define mquot hllblss02
                      04963 
                      04964 
0000                  04965 divu:  
                      04966 #ifdef HLLMULTITASK
                      04967 #ifdef HLLGUARDhllblss 
0000   08??           04968  movf in_isr,f  
0001   1903           04969  btfsc STATUS,Z
                      04970  
                      04971 
                      04972 
0002   2???           04973  goto divu0
                      04974 
0003   ???? ????      04975  banksel mquot 
0005   01??           04976  clrf mquot
MPASM  5.37                        TARGET.ASM   2-2-2013  15:45:46         PAGE 128


LOC  OBJECT CODE     LINE SOURCE TEXT
  VALUE

                      04977  POP
0006   0800               M  movfw INDF ; preserve the safety of this code under interruptible conditions. 
0007   0384               M  decf FSR,f 
0008   00??           04978  movwf mdiv
                      04979  POP
0009   0800               M  movfw INDF ; preserve the safety of this code under interruptible conditions. 
000A   0384               M  decf FSR,f 
000B   00??           04980  movwf mterm
000C   08??           04981  movfw mdiv
000D   02??           04982  subwf mterm,f
000E   1C03           04983  btfss STATUS,C 
000F   2???           04984  goto $+3
0010   0A??           04985  incf mquot,f 
0011   2???           04986  goto $-4
0012   08??           04987  movfw mquot
                      04988  PUSH
0013   0A84               M  incf FSR,f ; The "incf" op serves as an allocator; it happens first so that interrupting
0014   0080               M  movwf INDF ; code of any sort will not overwrite the data. 
0015   0008           04989  return 
                      04990 
                      04991 
                      04992 
                      04993 #undefine mterm
                      04994 
                      04995 
                      04996 #undefine mdiv
                      04997 
                      04998 
                      04999 #undefine mquot
                      05000 
                      05001 
                      05002 #define mterm hllblss00+1
                      05003 
                      05004 
                      05005 #define mdiv hllblss01+1
                      05006 
                      05007 
                      05008 #define mquot hllblss02+1
                      05009 
                      05010 
0016                  05011 divu0:
                      05012 #endif
                      05013 #endif
                      05014 
0016   ???? ????      05015  banksel mquot 
0018   01??           05016  clrf mquot
                      05017  POP
0019   0800               M  movfw INDF ; preserve the safety of this code under interruptible conditions. 
001A   0384               M  decf FSR,f 
001B   00??           05018  movwf mdiv
                      05019  POP
001C   0800               M  movfw INDF ; preserve the safety of this code under interruptible conditions. 
001D   0384               M  decf FSR,f 
MPASM  5.37                        TARGET.ASM   2-2-2013  15:45:46         PAGE 129


LOC  OBJECT CODE     LINE SOURCE TEXT
  VALUE

001E   00??           05020  movwf mterm
001F   08??           05021  movfw mdiv
0020   02??           05022  subwf mterm,f
0021   1C03           05023  btfss STATUS,C 
0022   2???           05024  goto $+3
0023   0A??           05025  incf mquot,f 
0024   2???           05026  goto $-4
0025   08??           05027  movfw mquot
                      05028  PUSH
0026   0A84               M  incf FSR,f ; The "incf" op serves as an allocator; it happens first so that interrupting
0027   0080               M  movwf INDF ; code of any sort will not overwrite the data. 
0028   0008           05029  return 
                      05030 
                      05031 
                      05032 
                      05033 #undefine mterm
                      05034 
                      05035 
                      05036 #undefine mdiv
                      05037 
                      05038 
                      05039 #undefine mquot
                      05040 hllkrna06 CODE
                      05041 
                      05042  
                      05043  
                      05044  
0000                  05045 getch:
0000   1283 1303      05046  banksel PIR1
0002                  05047 geth2: 
0002   1E8C           05048  btfss PIR1,RCIF
0003   2???           05049  goto geth2
0004   1283 1303      05050  banksel RCREG
0006   081A           05051  movf RCREG,w
                      05052  PUSH 
0007   0A84               M  incf FSR,f ; The "incf" op serves as an allocator; it happens first so that interrupting
0008   0080               M  movwf INDF ; code of any sort will not overwrite the data. 
0009   0008           05053  return
                      05054  
                      05055 hllkrna07 CODE 
                      05056  
0000                  05057 eq: 
                      05058  POP 
0000   0800               M  movfw INDF ; preserve the safety of this code under interruptible conditions. 
0001   0384               M  decf FSR,f 
0002   0600           05059  xorwf HLINDF,w
0003   3001           05060  movlw .1 
0004   1D03           05061  btfss STATUS,Z
0005   3000           05062  movlw .0 
0006   0384           05063  decf HLFSR,f 
                      05064  PUSH 
0007   0A84               M  incf FSR,f ; The "incf" op serves as an allocator; it happens first so that interrupting
0008   0080               M  movwf INDF ; code of any sort will not overwrite the data. 
MPASM  5.37                        TARGET.ASM   2-2-2013  15:45:46         PAGE 130


LOC  OBJECT CODE     LINE SOURCE TEXT
  VALUE

0009   0008           05065  return
                      05066  
                      05067  
                      05068  
                      05069 
                      05070 #define sstack0 softstack0 
                      05071 #define sstack1 softstack1 
                      05072 #define sstack2 softstack2 
                      05073 
                      05074 hllparmcore macro 
                      05075  movwf sstack2
                      05076  movfw HLFSR 
                      05077            
                      05078                    
                      05079  movwf sstack0
                      05080  movfw HLINDF
                      05081  
                      05082  subwf sstack2,w
                      05083  movwf HLFSR 
                      05084  movfw HLINDF 
                      05085  
                      05086  movwf sstack1
                      05087  
                      05088  movfw sstack0
                      05089  movwf HLFSR 
                      05090  clrf sstack0
                      05091  movfw sstack1 
                      05092  movwf HLINDF
                      05093  
                      05094  movfw sstack2
                      05095  pagesel kpush
                      05096  goto kpush 
                      05097  endm
                      05098 
                      05099  
                      05100 hllkrna08 CODE  
0000                  05101 parm:
                      05102  KPOP 
0000   ????               M  bankisel alt_stack ;This is OK for interrupts... part of STATUS 
0001   08??               M  movf in_isr,f ;In shared RAM, no need for BANKSEL
0002   1903               M  btfsc STATUS,Z
0003   2???               M  goto $+0F
0004   0804               M  movfw FSR 
0005   00??               M  movwf softstack0+1 ;Save user stack ptr 
0006   08??               M  movfw alt_fsr ;Get second stack ptr 
0007   0084               M  movwf FSR 
0008   0800               M  movfw INDF ;Dereference it 
0009   0384               M  decf FSR,f ;Decrement it 
000A   00??               M  movwf softstack1+1  ;Save popped value for ret urn 
000B   0804               M  movfw FSR ;Save second stack ptr 
000C   00??               M  movwf alt_fsr 
000D   08??               M  movfw softstack0+1  ;Restore user stack ptr 
000E   0084               M  movwf FSR 
MPASM  5.37                        TARGET.ASM   2-2-2013  15:45:46         PAGE 131


LOC  OBJECT CODE     LINE SOURCE TEXT
  VALUE

000F   01??               M  clrf softstack0+1
0010   08??               M  movfw softstack1+1  ;Bring back popped value for ret urn 
0011   2???               M  goto $+0E
0012   0804               M  movfw FSR 
0013   00??               M  movwf softstack0 ;Save user stack ptr 
0014   08??               M  movfw alt_fsr ;Get second stack ptr 
0015   0084               M  movwf FSR 
0016   0800               M  movfw INDF ;Dereference it 
0017   0384               M  decf FSR,f ;Decrement it 
0018   00??               M  movwf softstack1  ;Save popped value for ret urn 
0019   0804               M  movfw FSR ;Save second stack ptr 
001A   00??               M  movwf alt_fsr 
001B   08??               M  movfw softstack0  ;Restore user stack ptr 
001C   0084               M  movwf FSR 
001D   01??               M  clrf softstack0
001E   08??               M  movfw softstack1  ;Bring back popped value for ret urn 
001F   ????               M  bankisel stack
                      05103  
                      05104 #ifdef HLLMULTITASK 
0020   08??           05105  movf in_isr,f 
0021   1D03           05106  btfss STATUS,Z
0022   2???           05107  goto parm4
                      05108  hllparmcore
0023   00??               M  movwf sstack2
0024   0804               M  movfw HLFSR 
                          M            
                          M                    
0025   00??               M  movwf sstack0
0026   0800               M  movfw HLINDF
                          M  
0027   02??               M  subwf sstack2,w
0028   0084               M  movwf HLFSR 
0029   0800               M  movfw HLINDF 
                          M  
002A   00??               M  movwf sstack1
                          M  
002B   08??               M  movfw sstack0
002C   0084               M  movwf HLFSR 
002D   01??               M  clrf sstack0
002E   08??               M  movfw sstack1 
002F   0080               M  movwf HLINDF
                          M  
0030   08??               M  movfw sstack2
0031   ????               M  pagesel kpush
0032   2???               M  goto kpush 
                      05109 #undefine sstack0 
                      05110 #undefine sstack1
                      05111 #undefine sstack2 
                      05112 #define sstack0 softstack0+1
                      05113 #define sstack1 softstack1+1
                      05114 #define sstack2 softstack2+1
0033                  05115 parm4:
                      05116 #endif 
MPASM  5.37                        TARGET.ASM   2-2-2013  15:45:46         PAGE 132


LOC  OBJECT CODE     LINE SOURCE TEXT
  VALUE

                      05117  hllparmcore
0033   00??               M  movwf sstack2
0034   0804               M  movfw HLFSR 
                          M            
                          M                    
0035   00??               M  movwf sstack0
0036   0800               M  movfw HLINDF
                          M  
0037   02??               M  subwf sstack2,w
0038   0084               M  movwf HLFSR 
0039   0800               M  movfw HLINDF 
                          M  
003A   00??               M  movwf sstack1
                          M  
003B   08??               M  movfw sstack0
003C   0084               M  movwf HLFSR 
003D   01??               M  clrf sstack0
003E   08??               M  movfw sstack1 
003F   0080               M  movwf HLINDF
                          M  
0040   08??               M  movfw sstack2
0041   ????               M  pagesel kpush
0042   2???               M  goto kpush 
                      05118 #undefine sstack0 
                      05119 #undefine sstack1
                      05120 #undefine sstack2 
                      05121  
                      05122 hllkrna09 CODE  
0000                  05123 kpop: 
                      05124  KPOP
0000   ????               M  bankisel alt_stack ;This is OK for interrupts... part of STATUS 
0001   08??               M  movf in_isr,f ;In shared RAM, no need for BANKSEL
0002   1903               M  btfsc STATUS,Z
0003   2???               M  goto $+0F
0004   0804               M  movfw FSR 
0005   00??               M  movwf softstack0+1 ;Save user stack ptr 
0006   08??               M  movfw alt_fsr ;Get second stack ptr 
0007   0084               M  movwf FSR 
0008   0800               M  movfw INDF ;Dereference it 
0009   0384               M  decf FSR,f ;Decrement it 
000A   00??               M  movwf softstack1+1  ;Save popped value for ret urn 
000B   0804               M  movfw FSR ;Save second stack ptr 
000C   00??               M  movwf alt_fsr 
000D   08??               M  movfw softstack0+1  ;Restore user stack ptr 
000E   0084               M  movwf FSR 
000F   01??               M  clrf softstack0+1
0010   08??               M  movfw softstack1+1  ;Bring back popped value for ret urn 
0011   2???               M  goto $+0E
0012   0804               M  movfw FSR 
0013   00??               M  movwf softstack0 ;Save user stack ptr 
0014   08??               M  movfw alt_fsr ;Get second stack ptr 
0015   0084               M  movwf FSR 
0016   0800               M  movfw INDF ;Dereference it 
MPASM  5.37                        TARGET.ASM   2-2-2013  15:45:46         PAGE 133


LOC  OBJECT CODE     LINE SOURCE TEXT
  VALUE

0017   0384               M  decf FSR,f ;Decrement it 
0018   00??               M  movwf softstack1  ;Save popped value for ret urn 
0019   0804               M  movfw FSR ;Save second stack ptr 
001A   00??               M  movwf alt_fsr 
001B   08??               M  movfw softstack0  ;Restore user stack ptr 
001C   0084               M  movwf FSR 
001D   01??               M  clrf softstack0
001E   08??               M  movfw softstack1  ;Bring back popped value for ret urn 
001F   ????               M  bankisel stack
0020   0008           05125  return 
                      05126  
                      05127 hllkrna10 CODE   
0000                  05128 kpush: 
                      05129  KPUSH
0000   ????               M  bankisel alt_stack ;This is OK for interrupts... part of STATUS 
0001   08??               M  movf in_isr,f ;In shared RAM, no need for BANKSEL
0002   1903               M  btfsc STATUS,Z
0003   2???               M  goto $+0E
0004   00??               M  movwf softstack1+1 ;softstack1 holds parm value being pushed
0005   0804               M  movfw FSR  
0006   00??               M  movwf softstack0+1  ;softstack0 holds FSR
0007   08??               M  movfw alt_fsr 
0008   0084               M  movwf FSR 
0009   08??               M  movfw softstack1+1
000A   0A??               M  incf alt_fsr,f 
000B   0A84               M  incf FSR,f ;The actual kernel push... preincrement for interrupt safety
000C   0080               M  movwf INDF 
000D   08??               M  movfw softstack0+1
000E   0084               M  movwf FSR 
000F   01??               M  clrf softstack0+1 
0010   2???               M  goto $+0D
0011   00??               M  movwf softstack1 ;softstack1 holds parm value being pushed
0012   0804               M  movfw FSR  
0013   00??               M  movwf softstack0  ;softstack0 holds FSR
0014   08??               M  movfw alt_fsr 
0015   0084               M  movwf FSR 
0016   08??               M  movfw softstack1
0017   0A??               M  incf alt_fsr,f 
0018   0A84               M  incf FSR,f ;The actual kernel push... preincrement for interrupt safety
0019   0080               M  movwf INDF 
001A   08??               M  movfw softstack0
001B   0084               M  movwf FSR 
001C   01??               M  clrf softstack0
001D   ????               M  bankisel stack
001E   0008           05130  return
                      05131 
                      05132 hllkrna11 CODE   
0000                  05133 dispose:
                      05134  DISCARD
0000   0384               M  decf FSR,f 
0001   0008           05135  return 
                      05136  
                      05137  
MPASM  5.37                        TARGET.ASM   2-2-2013  15:45:46         PAGE 134


LOC  OBJECT CODE     LINE SOURCE TEXT
  VALUE

                      05138 
                      05139 
                      05140 
                      05141 
                      05142 
                      05143 
                      05144 
                      05145  
                      05146 
                      05147 hlpal1 CODE
                      05148 
0000                  05149 night:
                      05150  
                      05151  
0000   301B           05152  movlw 0x1b
                      05153  PUSH
0001   0A84               M  incf FSR,f ; The "incf" op serves as an allocator; it happens first so that interrupting
0002   0080               M  movwf INDF ; code of any sort will not overwrite the data. 
                      05154  
                      05155  FAR_CALL night,printch
0003   ????               M  pagesel printch
0004   2???               M  call printch
0005   ????               M  pagesel night     ;This one restores the caller's code page
0006   305B           05156  movlw '['
                      05157  PUSH
0007   0A84               M  incf FSR,f ; The "incf" op serves as an allocator; it happens first so that interrupting
0008   0080               M  movwf INDF ; code of any sort will not overwrite the data. 
                      05158  
                      05159  FAR_CALL night,printch
0009   ????               M  pagesel printch
000A   2???               M  call printch
000B   ????               M  pagesel night     ;This one restores the caller's code page
                      05160 
000C   3030           05161  movlw '0'
                      05162  PUSH
000D   0A84               M  incf FSR,f ; The "incf" op serves as an allocator; it happens first so that interrupting
000E   0080               M  movwf INDF ; code of any sort will not overwrite the data. 
                      05163  
                      05164  FAR_CALL night,printch
000F   ????               M  pagesel printch
0010   2???               M  call printch
0011   ????               M  pagesel night     ;This one restores the caller's code page
0012   303B           05165  movlw ';'
                      05166  PUSH
0013   0A84               M  incf FSR,f ; The "incf" op serves as an allocator; it happens first so that interrupting
0014   0080               M  movwf INDF ; code of any sort will not overwrite the data. 
                      05167  
                      05168  FAR_CALL night,printch
0015   ????               M  pagesel printch
0016   2???               M  call printch
0017   ????               M  pagesel night     ;This one restores the caller's code page
                      05169 
0018   3033           05170  movlw '3'
MPASM  5.37                        TARGET.ASM   2-2-2013  15:45:46         PAGE 135


LOC  OBJECT CODE     LINE SOURCE TEXT
  VALUE

                      05171  PUSH
0019   0A84               M  incf FSR,f ; The "incf" op serves as an allocator; it happens first so that interrupting
001A   0080               M  movwf INDF ; code of any sort will not overwrite the data. 
                      05172  
                      05173  FAR_CALL night,printch
001B   ????               M  pagesel printch
001C   2???               M  call printch
001D   ????               M  pagesel night     ;This one restores the caller's code page
001E   3032           05174  movlw '2'
                      05175  PUSH
001F   0A84               M  incf FSR,f ; The "incf" op serves as an allocator; it happens first so that interrupting
0020   0080               M  movwf INDF ; code of any sort will not overwrite the data. 
                      05176  
                      05177  FAR_CALL night,printch
0021   ????               M  pagesel printch
0022   2???               M  call printch
0023   ????               M  pagesel night     ;This one restores the caller's code page
0024   303B           05178  movlw ';'
                      05179  PUSH
0025   0A84               M  incf FSR,f ; The "incf" op serves as an allocator; it happens first so that interrupting
0026   0080               M  movwf INDF ; code of any sort will not overwrite the data. 
                      05180  
                      05181  FAR_CALL night,printch
0027   ????               M  pagesel printch
0028   2???               M  call printch
0029   ????               M  pagesel night     ;This one restores the caller's code page
002A   3034           05182  movlw '4'
                      05183  PUSH
002B   0A84               M  incf FSR,f ; The "incf" op serves as an allocator; it happens first so that interrupting
002C   0080               M  movwf INDF ; code of any sort will not overwrite the data. 
                      05184  
                      05185  FAR_CALL night,printch
002D   ????               M  pagesel printch
002E   2???               M  call printch
002F   ????               M  pagesel night     ;This one restores the caller's code page
0030   3030           05186  movlw '0'
                      05187  PUSH
0031   0A84               M  incf FSR,f ; The "incf" op serves as an allocator; it happens first so that interrupting
0032   0080               M  movwf INDF ; code of any sort will not overwrite the data. 
                      05188  
                      05189  FAR_CALL night,printch
0033   ????               M  pagesel printch
0034   2???               M  call printch
0035   ????               M  pagesel night     ;This one restores the caller's code page
0036   306D           05190  movlw 'm'
                      05191  PUSH
0037   0A84               M  incf FSR,f ; The "incf" op serves as an allocator; it happens first so that interrupting
0038   0080               M  movwf INDF ; code of any sort will not overwrite the data. 
                      05192  
                      05193  FAR_CALL night,printch
0039   ????               M  pagesel printch
003A   2???               M  call printch
003B   ????               M  pagesel night     ;This one restores the caller's code page
MPASM  5.37                        TARGET.ASM   2-2-2013  15:45:46         PAGE 136


LOC  OBJECT CODE     LINE SOURCE TEXT
  VALUE

                      05194  
003C   0008           05195  return
                      05196 
                      05197 
                      05198 
                      05199 
                      05200  
                      05201 
                      05202 
                      05203 
                      05204 
                      05205 
                      05206 
                      05207 
                      05208 hllkrn444 CODE    
0000                  05209 safepush: 
                      05210  PUSH
0000   0A84               M  incf FSR,f ; The "incf" op serves as an allocator; it happens first so that interrupting
0001   0080               M  movwf INDF ; code of any sort will not overwrite the data. 
                      05211  
                      05212  
                      05213  
0002   0804           05214  movf HLFSR,w
0003   3C??           05215  sublw stack  
0004   1903           05216  btfsc STATUS,Z
0005   2???           05217  goto kspox5 
0006   1803           05218  btfsc STATUS,C 
0007   2???           05219  goto sperr11 
0008                  05220 kspox5:
                      05221   
                      05222 
0008   0804           05223  movf HLFSR,w
0009   3E01           05224  addlw .1
000A   3C??           05225  sublw (stack+HLOE_STACK_SIZE)  
000B   1C03           05226  btfss STATUS,C
000C   2???           05227  goto sperr11
000D   0800           05228  movf HLINDF,w
000E   0008           05229  return
000F                  05230 sperr11:
000F   138B           05231  BCF INTCON,GIE 
                      05232  DISCARD 
0010   0384               M  decf FSR,f 
0011                  05233 dmm445:
0011   3021           05234  movlw '!' 
                      05235  PUSH
0012   0A84               M  incf FSR,f ; The "incf" op serves as an allocator; it happens first so that interrupting
0013   0080               M  movwf INDF ; code of any sort will not overwrite the data. 
                      05236  
                      05237  FAR_CALL safepush,printch
0014   ????               M  pagesel printch
0015   2???               M  call printch
0016   ????               M  pagesel safepush  ;This one restores the caller's code page
0017   2???           05238  goto dmm445
MPASM  5.37                        TARGET.ASM   2-2-2013  15:45:46         PAGE 137


LOC  OBJECT CODE     LINE SOURCE TEXT
  VALUE

                      05239  
                      05240  
                      05241 
                      05242 
                      05243 
                      05244 
                      05245 
                      05246  
                      05247  
                      05248 
                      05249  
                      05250 hlog1b CODE
                      05251 
                      05252 
                      05253 #define margp2 hllblss00
                      05254 
                      05255 
0000                  05256 setbit:  
                      05257 #ifdef HLLMULTITASK
                      05258 #ifdef HLLGUARDhllblss 
0000   08??           05259  movf in_isr,f  
0001   1903           05260  btfsc STATUS,Z
                      05261  
                      05262 
                      05263 
0002   2???           05264  goto setbit0
                      05265 
                      05266  POP
0003   0800               M  movfw INDF ; preserve the safety of this code under interruptible conditions. 
0004   0384               M  decf FSR,f 
0005   ???? ????      05267  banksel margp2
0007   00??           05268  movwf  margp2
                      05269  POP
0008   0800               M  movfw INDF ; preserve the safety of this code under interruptible conditions. 
0009   0384               M  decf FSR,f 
000A   3A00           05270  xorlw .0
000B   1D03           05271  btfss STATUS,Z
000C   2???           05272  goto tcf00h
                      05273  
000D   08??           05274  movfw  margp2
000E   3801           05275  iorlw .1
000F   2???           05276  goto tcf99h
0010                  05277 tcf00h: 
                      05278  
0010   3A01           05279  xorlw .1
0011   1D03           05280  btfss STATUS,Z
0012   2???           05281  goto tcf01h
                      05282  
0013   08??           05283  movfw  margp2
0014   3802           05284  iorlw .2
0015   2???           05285  goto tcf99h
0016                  05286 tcf01h: 
0016   3A01           05287  xorlw .1
MPASM  5.37                        TARGET.ASM   2-2-2013  15:45:46         PAGE 138


LOC  OBJECT CODE     LINE SOURCE TEXT
  VALUE

0017   3A02           05288  xorlw .2
0018   1D03           05289  btfss STATUS,Z
0019   2???           05290  goto tcf02h
                      05291  
001A   08??           05292  movfw margp2
001B   3804           05293  iorlw .4
001C   2???           05294  goto tcf99h
001D                  05295 tcf02h: 
001D   3A02           05296  xorlw .2
001E   3A03           05297  xorlw .3
001F   1D03           05298  btfss STATUS,Z
0020   2???           05299  goto tcf03h
                      05300  
0021   08??           05301  movfw margp2
0022   3808           05302  iorlw .8
0023   2???           05303  goto tcf99h
0024                  05304 tcf03h: 
0024   3A03           05305  xorlw .3
0025   3A04           05306  xorlw .4
0026   1D03           05307  btfss STATUS,Z
0027   2???           05308  goto tcf04h
                      05309  
0028   08??           05310  movfw margp2
0029   3810           05311  iorlw .16
002A   2???           05312  goto tcf99h
002B                  05313 tcf04h: 
002B   3A04           05314  xorlw .4
002C   3A05           05315  xorlw .5
002D   1D03           05316  btfss STATUS,Z
002E   2???           05317  goto tcf05h
                      05318  
002F   08??           05319  movfw margp2
0030   3820           05320  iorlw .32
0031   2???           05321  goto tcf99h
0032                  05322 tcf05h: 
0032   3A05           05323  xorlw .5
0033   3A06           05324  xorlw .6
0034   1D03           05325  btfss STATUS,Z
0035   2???           05326  goto tcf07h
                      05327  
0036   08??           05328  movfw margp2
0037   3840           05329  iorlw .64
0038   2???           05330  goto tcf99h
0039                  05331 tcf07h: 
                      05332  
0039   08??           05333  movfw margp2
003A   3880           05334  iorlw .128 
003B                  05335 tcf99h:  
                      05336  PUSH 
003B   0A84               M  incf FSR,f ; The "incf" op serves as an allocator; it happens first so that interrupting
003C   0080               M  movwf INDF ; code of any sort will not overwrite the data. 
003D   0008           05337  return
                      05338 
MPASM  5.37                        TARGET.ASM   2-2-2013  15:45:46         PAGE 139


LOC  OBJECT CODE     LINE SOURCE TEXT
  VALUE

                      05339 
                      05340 
                      05341 
                      05342 #undefine margp2
                      05343 
                      05344 
                      05345 #define margp2 hllblss00+1
                      05346 
                      05347 
003E                  05348 setbit0:
                      05349 #endif
                      05350 #endif
                      05351 
                      05352  POP
003E   0800               M  movfw INDF ; preserve the safety of this code under interruptible conditions. 
003F   0384               M  decf FSR,f 
0040   ???? ????      05353  banksel margp2
0042   00??           05354  movwf  margp2
                      05355  POP
0043   0800               M  movfw INDF ; preserve the safety of this code under interruptible conditions. 
0044   0384               M  decf FSR,f 
0045   3A00           05356  xorlw .0
0046   1D03           05357  btfss STATUS,Z
0047   2???           05358  goto hllOAAAA
                      05359  
0048   08??           05360  movfw  margp2
0049   3801           05361  iorlw .1
004A   2???           05362  goto hllVAAAA
004B                  05363 hllOAAAA: 
                      05364  
004B   3A01           05365  xorlw .1
004C   1D03           05366  btfss STATUS,Z
004D   2???           05367  goto hllPAAAA
                      05368  
004E   08??           05369  movfw  margp2
004F   3802           05370  iorlw .2
0050   2???           05371  goto hllVAAAA
0051                  05372 hllPAAAA: 
0051   3A01           05373  xorlw .1
0052   3A02           05374  xorlw .2
0053   1D03           05375  btfss STATUS,Z
0054   2???           05376  goto hllQAAAA
                      05377  
0055   08??           05378  movfw margp2
0056   3804           05379  iorlw .4
0057   2???           05380  goto hllVAAAA
0058                  05381 hllQAAAA: 
0058   3A02           05382  xorlw .2
0059   3A03           05383  xorlw .3
005A   1D03           05384  btfss STATUS,Z
005B   2???           05385  goto hllRAAAA
                      05386  
005C   08??           05387  movfw margp2
MPASM  5.37                        TARGET.ASM   2-2-2013  15:45:46         PAGE 140


LOC  OBJECT CODE     LINE SOURCE TEXT
  VALUE

005D   3808           05388  iorlw .8
005E   2???           05389  goto hllVAAAA
005F                  05390 hllRAAAA: 
005F   3A03           05391  xorlw .3
0060   3A04           05392  xorlw .4
0061   1D03           05393  btfss STATUS,Z
0062   2???           05394  goto hllSAAAA
                      05395  
0063   08??           05396  movfw margp2
0064   3810           05397  iorlw .16
0065   2???           05398  goto hllVAAAA
0066                  05399 hllSAAAA: 
0066   3A04           05400  xorlw .4
0067   3A05           05401  xorlw .5
0068   1D03           05402  btfss STATUS,Z
0069   2???           05403  goto hllTAAAA
                      05404  
006A   08??           05405  movfw margp2
006B   3820           05406  iorlw .32
006C   2???           05407  goto hllVAAAA
006D                  05408 hllTAAAA: 
006D   3A05           05409  xorlw .5
006E   3A06           05410  xorlw .6
006F   1D03           05411  btfss STATUS,Z
0070   2???           05412  goto hllUAAAA
                      05413  
0071   08??           05414  movfw margp2
0072   3840           05415  iorlw .64
0073   2???           05416  goto hllVAAAA
0074                  05417 hllUAAAA: 
                      05418  
0074   08??           05419  movfw margp2
0075   3880           05420  iorlw .128 
0076                  05421 hllVAAAA:  
                      05422  PUSH 
0076   0A84               M  incf FSR,f ; The "incf" op serves as an allocator; it happens first so that interrupting
0077   0080               M  movwf INDF ; code of any sort will not overwrite the data. 
0078   0008           05423  return
                      05424 
                      05425 
                      05426 
                      05427 
                      05428 #undefine margp2
                      05429 
                      05430 
                      05431 
                      05432 
                      05433 
                      05434 
                      05435 sfpu UDATA
                      05436  
                      05437  
                      05438  
MPASM  5.37                        TARGET.ASM   2-2-2013  15:45:46         PAGE 141


LOC  OBJECT CODE     LINE SOURCE TEXT
  VALUE

                      05439  
0000                  05440 sfploc00 res .1
0001                  05441 sfpaux00 res .1
                      05442 
                      05443 #ifdef HLLMULTITASK   
                      05444 #ifdef HLLGUARDsfploc
                      05445 sfploc00isr res .1
                      05446 sfpaux00isr res .1
                      05447 #endif
                      05448 #endif
                      05449 
0002                  05450 sfploc01 res .1
0003                  05451 sfpaux01 res .1
                      05452 
                      05453 #ifdef HLLMULTITASK
                      05454 #ifdef HLLGUARDsfploc
                      05455 sfploc01isr res .1
                      05456 sfpaux01isr res .1
                      05457 #endif
                      05458 #endif
                      05459 
                      05460 
0004                  05461 sfploc02 res .1
0005                  05462 sfpaux02 res .1
                      05463 
                      05464 #ifdef HLLMULTITASK
                      05465 #ifdef HLLGUARDsfploc
                      05466 sfploc02isr res .1
                      05467 sfpaux02isr res .1
                      05468 #endif
                      05469 #endif
                      05470 
                      05471 
0006                  05472 sfploc03 res .1
0007                  05473 sfpaux03 res .1
                      05474 
                      05475 #ifdef HLLMULTITASK
                      05476 #ifdef HLLGUARDsfploc
                      05477 sfploc03isr res .1
                      05478 sfpaux03isr res .1
                      05479 #endif
                      05480 #endif
                      05481 
                      05482 
0008                  05483 sfploc04 res .1
                      05484 
                      05485 #ifdef HLLMULTITASK
                      05486 #ifdef HLLGUARDsfploc
                      05487 sfploc04isr res .1
                      05488 #endif
                      05489 #endif
                      05490 
                      05491 
MPASM  5.37                        TARGET.ASM   2-2-2013  15:45:46         PAGE 142


LOC  OBJECT CODE     LINE SOURCE TEXT
  VALUE

0009                  05492 sfploc05 res .1
                      05493 
                      05494 #ifdef HLLMULTITASK
                      05495 #ifdef HLLGUARDsfploc
                      05496 sfploc05isr res .1
                      05497 #endif
                      05498 #endif
                      05499 
                      05500 
000A                  05501 sfploc06 res .1
                      05502 
                      05503 #ifdef HLLMULTITASK
                      05504 #ifdef HLLGUARDsfploc
                      05505 sfploc06isr res .1
                      05506 #endif
                      05507 #endif
                      05508 
                      05509 
000B                  05510 sfploc07 res .1
                      05511 
                      05512 #ifdef HLLMULTITASK
                      05513 #ifdef HLLGUARDsfploc
                      05514 sfploc07isr res .1
                      05515 #endif
                      05516 #endif
                      05517 
                      05518 
000C                  05519 sfploc08 res .1
                      05520 
                      05521 #ifdef HLLMULTITASK
                      05522 #ifdef HLLGUARDsfploc
                      05523 sfploc08isr res .1
                      05524 #endif
                      05525 #endif
                      05526 
                      05527 
000D                  05528 sfploc09 res .1
                      05529 
                      05530 #ifdef HLLMULTITASK
                      05531 #ifdef HLLGUARDsfploc
                      05532 sfploc09isr res .1
                      05533 #endif
                      05534 #endif
                      05535 
                      05536 
000E                  05537 sfploc10 res .1
                      05538 
                      05539 #ifdef HLLMULTITASK
                      05540 #ifdef HLLGUARDsfploc
                      05541 sfploc10isr res .1
                      05542 #endif
                      05543 #endif
                      05544 
MPASM  5.37                        TARGET.ASM   2-2-2013  15:45:46         PAGE 143


LOC  OBJECT CODE     LINE SOURCE TEXT
  VALUE

                      05545 
000F                  05546 sfploc11 res .1
                      05547 
                      05548 #ifdef HLLMULTITASK
                      05549 #ifdef HLLGUARDsfploc
                      05550 sfploc11isr res .1
                      05551 #endif
                      05552 #endif
                      05553 
                      05554 
0010                  05555 sfploc12 res .1
                      05556 
                      05557 #ifdef HLLMULTITASK
                      05558 #ifdef HLLGUARDsfploc
                      05559 sfploc12isr res .1
                      05560 #endif
                      05561 #endif
                      05562 
                      05563 
0011                  05564 sfploc13 res .1
                      05565 
                      05566 #ifdef HLLMULTITASK
                      05567 #ifdef HLLGUARDsfploc
                      05568 sfploc13isr res .1
                      05569 #endif
                      05570 #endif
                      05571 
                      05572 
0012                  05573 sfploc14 res .1
                      05574 
                      05575 #ifdef HLLMULTITASK
                      05576 #ifdef HLLGUARDsfploc
                      05577 sfploc14isr res .1
                      05578 #endif
                      05579 #endif
                      05580 
                      05581 
0013                  05582 sfploc15 res .1
                      05583 
                      05584 #ifdef HLLMULTITASK
                      05585 #ifdef HLLGUARDsfploc
                      05586 sfploc15isr res .1
                      05587 #endif
                      05588 #endif
                      05589 
                      05590 
0014                  05591 sfploc16 res .1
                      05592 
                      05593 #ifdef HLLMULTITASK
                      05594 #ifdef HLLGUARDsfploc
                      05595 sfploc16isr res .1
                      05596 #endif
                      05597 #endif
MPASM  5.37                        TARGET.ASM   2-2-2013  15:45:46         PAGE 144


LOC  OBJECT CODE     LINE SOURCE TEXT
  VALUE

                      05598 
                      05599 
0015                  05600 sfploc17 res .1 
                      05601 
                      05602 #ifdef HLLMULTITASK
                      05603 #ifdef HLLGUARDsfploc
                      05604 sfploc17isr res .1
                      05605 #endif
                      05606 #endif
                      05607 
                      05608 
                      05609  
                      05610 
                      05611 
                      05612 
                      05613 
                      05614 
                      05615 
                      05616 
                      05617 
                      05618  
                      05619  
                      05620 
                      05621 sfp_add CODE
                      05622 
                      05623 
                      05624 
                      05625 
                      05626 #define mout_hi sfploc00
                      05627 
                      05628 
                      05629 #define big_c sfploc01
                      05630 
                      05631 
                      05632 #define min2_lower sfploc02
                      05633 
                      05634 
                      05635 #define minres sfploc03
                      05636 
                      05637 
                      05638 #define fulmin2H sfploc04
                      05639 
                      05640 
                      05641 #define fulminH sfploc05
                      05642 
                      05643 
                      05644 #define min_lower sfploc06
                      05645 
                      05646 
                      05647 #define rev sfploc07
                      05648 
                      05649 
                      05650 #define fulmin2 sfploc08
MPASM  5.37                        TARGET.ASM   2-2-2013  15:45:46         PAGE 145


LOC  OBJECT CODE     LINE SOURCE TEXT
  VALUE

                      05651 
                      05652 
                      05653 #define fulmin sfploc09
                      05654 
                      05655 
                      05656 #define multiplier sfploc10
                      05657 
                      05658 
                      05659 #define mout sfploc11
                      05660 
                      05661 
                      05662 #define util sfploc12
                      05663 
                      05664 
                      05665 #define neg sfploc13
                      05666 
                      05667 
                      05668 #define ein2 sfploc14
                      05669 
                      05670 
                      05671 #define min2 sfploc15
                      05672 
                      05673 
                      05674 #define ein1 sfploc16
                      05675 
                      05676 
                      05677 #define min sfploc17
                      05678 
                      05679 
0000                  05680 addf:  
                      05681 #ifdef HLLMULTITASK
                      05682 #ifdef HLLGUARDsfploc 
                      05683  movf in_isr,f  
                      05684  btfsc STATUS,Z
                      05685  
                      05686 
                      05687 
                      05688  goto addf0
                      05689 
                      05690 
                      05691  
                      05692  
                      05693  
                      05694  
                      05695  
                      05696  
                      05697  
                      05698  
                      05699  POP
                      05700  banksel min
                      05701  movwf ein2 
                      05702  POP
                      05703  banksel min
MPASM  5.37                        TARGET.ASM   2-2-2013  15:45:46         PAGE 146


LOC  OBJECT CODE     LINE SOURCE TEXT
  VALUE

                      05704  movwf min2 
                      05705 
                      05706  POP
                      05707  banksel min
                      05708  movwf ein1 
                      05709 
                      05710  POP
                      05711  banksel min
                      05712  movwf min 
                      05713  
                      05714  
                      05715  
                      05716  
                      05717  bcf minres,0 
                      05718  
                      05719  
                      05720  
                      05721  clrf mout 
                      05722  
                      05723  
                      05724  
                      05725  
                      05726  
                      05727  clrf neg
                      05728  btfsc min,7
                      05729  bsf neg,0
                      05730  
                      05731  
                      05732  
                      05733  btfsc min2,7
                      05734  bsf neg,1
                      05735  
                      05736 
                      05737 
                      05738 
                      05739  btfsc ein2,7  
                      05740  goto yzpt44
                      05741  
                      05742  btfss ein1,7
                      05743  goto yzpt65
                      05744  
                      05745  goto ein_lt_ein2
                      05746 yzpt65: 
                      05747  
                      05748  movfw ein1
                      05749  subwf ein2,w    
                      05750  btfss STATUS,C 
                      05751  goto ein_lt_ein1  
                      05752 lz_ein15:
                      05753  goto ein_lt_ein2  
                      05754 yzpt44:   
                      05755  
                      05756  
MPASM  5.37                        TARGET.ASM   2-2-2013  15:45:46         PAGE 147


LOC  OBJECT CODE     LINE SOURCE TEXT
  VALUE

                      05757  btfsc ein1,7
                      05758  goto yzpt65  
                      05759 ein_lt_ein1:  
                      05760  
                      05761  
                      05762 
                      05763 
                      05764  movf ein2,w
                      05765  xorwf ein1,f
                      05766 
                      05767  movf ein1,w
                      05768  xorwf ein2,f
                      05769 
                      05770  movf ein2,w
                      05771  xorwf ein1,f
                      05772 
                      05773 
                      05774  movf min2,w
                      05775  xorwf min,f
                      05776 
                      05777  movf min,w
                      05778  xorwf min2,f
                      05779 
                      05780  movf min2,w
                      05781  xorwf min,f
                      05782  
                      05783  
                      05784  
                      05785  bsf rev,0 
                      05786  
                      05787  
                      05788  
                      05789  goto ein_lt_ein2_done 
                      05790 ein_lt_ein2: 
                      05791  
                      05792  
                      05793  
                      05794  clrf rev 
                      05795 ein_lt_ein2_done: 
                      05796  
                      05797  
                      05798  
                      05799  
                      05800  movfw min 
                      05801  andlw .127 
                      05802  movwf min 
                      05803  
                      05804  
                      05805  
                      05806  movfw min2 
                      05807  andlw .127 
                      05808  movwf min2 
                      05809  
MPASM  5.37                        TARGET.ASM   2-2-2013  15:45:46         PAGE 148


LOC  OBJECT CODE     LINE SOURCE TEXT
  VALUE

                      05810  
                      05811  
                      05812  clrf fulminH 
                      05813  movfw min 
                      05814  addlw .128 
                      05815  btfsc STATUS,C 
                      05816  incf fulminH,f 
                      05817  
                      05818  
                      05819  movwf fulmin 
                      05820  
                      05821  
                      05822  
                      05823  clrf fulmin2H 
                      05824  movfw min2 
                      05825  addlw .128 
                      05826  btfsc STATUS,C 
                      05827  incf fulmin2H,f 
                      05828  
                      05829  movwf fulmin2 
                      05830  
                      05831         
                      05832         
                      05833         
                      05834         
                      05835         
                      05836 
                      05837 
                      05838  clrf min_lower
                      05839 
                      05840  clrf min2_lower
                      05841  
                      05842 whi77:
                      05843 
                      05844 
                      05845  movfw ein1 
                      05846  xorwf ein2,w 
                      05847  btfsc STATUS,Z 
                      05848  goto eein2outw  
                      05849  
                      05850 
                      05851 
                      05852  bcf STATUS,C
                      05853  rrf min_lower,f
                      05854 
                      05855 
                      05856 
                      05857  bcf STATUS,C
                      05858  rrf fulmin,f
                      05859 
                      05860 
                      05861  btfss STATUS,C
                      05862  goto nocar001
MPASM  5.37                        TARGET.ASM   2-2-2013  15:45:46         PAGE 149


LOC  OBJECT CODE     LINE SOURCE TEXT
  VALUE

                      05863  
                      05864 
                      05865  bsf min_lower,7
                      05866 nocar001:
                      05867 
                      05868 
                      05869 
                      05870 
                      05871  incf ein1,f
                      05872 
                      05873 
                      05874  goto whi77
                      05875  
                      05876 
                      05877 eein2outw:      
                      05878 
                      05879  
                      05880  
                      05881  
                      05882  
                      05883  
                      05884  btfss rev,0 
                      05885  goto if_2_done 
                      05886 
                      05887 
                      05888 
                      05889  movf fulmin2,w
                      05890  xorwf fulmin,f
                      05891 
                      05892  movf fulmin,w
                      05893  xorwf fulmin2,f
                      05894 
                      05895  movf fulmin2,w
                      05896  xorwf fulmin,f 
                      05897  
                      05898  
                      05899  movfw min_lower 
                      05900  movwf min2_lower 
                      05901  
                      05902  clrf min_lower
                      05903  
                      05904  
                      05905  
                      05906  
                      05907  
                      05908 if_2_done: 
                      05909 
                      05910  banksel min_lower
                      05911 
                      05912  
                      05913  
                      05914 
                      05915 nrev0:  
MPASM  5.37                        TARGET.ASM   2-2-2013  15:45:46         PAGE 150


LOC  OBJECT CODE     LINE SOURCE TEXT
  VALUE

                      05916 
                      05917  btfss neg,0
                      05918  goto nextspeci0
                      05919  
                      05920 
                      05921  btfss neg,1
                      05922  goto nextspeci0
                      05923 
                      05924 
                      05925 
                      05926 
                      05927  bsf minres,0
                      05928 
                      05929  goto nextspeci2
                      05930 
                      05931  
                      05932  
                      05933  
                      05934  
                      05935 nextspeci0:
                      05936  
                      05937 
                      05938  btfss neg,0
                      05939  goto nextspeci1 
                      05940 
                      05941  
                      05942 rrrout0:
                      05943 
                      05944         
                      05945         
                      05946         
                      05947  movfw fulmin 
                      05948  subwf fulmin2,w 
                      05949  movwf mout 
                      05950  
                      05951  
                      05952  btfsc STATUS,C
                      05953  goto nc11rr            
                      05954                 
                      05955         
                      05956  bsf minres,0   
                      05957         
                      05958         
                      05959  goto rrrout1   
                      05960         
                      05961 nc11rr:
                      05962 
                      05963         
                      05964  movf mout,f
                      05965  btfsc STATUS,Z
                      05966  goto specidone0        
                      05967 mouty:
                      05968 
MPASM  5.37                        TARGET.ASM   2-2-2013  15:45:46         PAGE 151


LOC  OBJECT CODE     LINE SOURCE TEXT
  VALUE

                      05969         
                      05970  btfsc mout,7   
                      05971  goto nn91   
                      05972         
                      05973         
                      05974     
                      05975  bcf STATUS,C
                      05976  rlf mout,f
                      05977         
                      05978         
                      05979  btfss min_lower,7      
                      05980  goto yym43   
                      05981 
                      05982  
                      05983  decf mout,f    
                      05984 
                      05985         
                      05986  movlw .255
                      05987  xorwf mout,w
                      05988  btfss STATUS,Z
                      05989  goto yym43     
                      05990         
                      05991      
                      05992  bsf minres,0
                      05993  
                      05994          
                      05995  goto rrrout1
                      05996          
                      05997 
                      05998 yym43:
                      05999 
                      06000    
                      06001  bcf STATUS,C
                      06002  rlf min_lower,f 
                      06003 
                      06004         
                      06005  decf ein1,f    
                      06006 
                      06007         
                      06008  goto mouty
                      06009 
                      06010 nn91:
                      06011         
                      06012  btfss min_lower,7      
                      06013  goto trup5   
                      06014                 
                      06015         
                      06016  decf mout,f
                      06017 
                      06018         
                      06019  movlw .255
                      06020  xorwf mout,w
                      06021  btfss STATUS,Z
MPASM  5.37                        TARGET.ASM   2-2-2013  15:45:46         PAGE 152


LOC  OBJECT CODE     LINE SOURCE TEXT
  VALUE

                      06022  goto fltu54    
                      06023                 
                      06024      
                      06025  bsf minres,0    
                      06026          
                      06027          
                      06028  goto rrrout1    
                      06029          
                      06030          
                      06031 fltu54:
                      06032         
                      06033  movlw .127
                      06034  xorwf mout,w
                      06035  btfss STATUS,Z
                      06036  goto trup5     
                      06037         
                      06038         
                      06039         
                      06040         
                      06041  bcf STATUS,C
                      06042  rlf mout,f
                      06043 
                      06044         
                      06045  decf ein1,f    
                      06046         
                      06047         
                      06048  btfsc min_lower,6
                      06049  goto trup5 
                      06050         
                      06051         
                      06052  incf mout,f    
                      06053         
                      06054 trup5:
                      06055         
                      06056  goto specidone0
                      06057 nextspeci1:
                      06058  
                      06059 
                      06060         
                      06061  btfss neg,1
                      06062  goto nextspeci2 
                      06063  
                      06064         
                      06065 rrrout1:
                      06066 
                      06067         
                      06068  movfw fulmin2
                      06069  subwf fulmin,w 
                      06070  movwf mout 
                      06071 
                      06072  
                      06073  btfsc STATUS,C
                      06074  goto rmxd3             
MPASM  5.37                        TARGET.ASM   2-2-2013  15:45:46         PAGE 153


LOC  OBJECT CODE     LINE SOURCE TEXT
  VALUE

                      06075         
                      06076         
                      06077         
                      06078         
                      06079  bsf minres,0
                      06080         
                      06081         
                      06082  goto rrrout0   
                      06083 
                      06084 rmxd3:
                      06085 
                      06086         
                      06087  movf mout,f 
                      06088  btfsc STATUS,Z 
                      06089  goto specidone0 
                      06090         
                      06091 moutx:
                      06092 
                      06093         
                      06094  btfsc mout,7
                      06095  goto nn91b
                      06096  
                      06097         
                      06098         
                      06099     
                      06100  bcf STATUS,C
                      06101  rlf mout,f 
                      06102         
                      06103         
                      06104  btfss min2_lower,7
                      06105  goto spyr5
                      06106 
                      06107         
                      06108         
                      06109  decf mout,f    
                      06110         
                      06111         
                      06112  movlw .255
                      06113  xorwf mout,w
                      06114  btfss STATUS,Z
                      06115  goto spyr5     
                      06116         
                      06117 
                      06118  bsf minres,0
                      06119         
                      06120 
                      06121  goto rrrout0
                      06122         
                      06123 spyr5:
                      06124 
                      06125  
                      06126  bcf STATUS,C
                      06127  rlf min2_lower,f
MPASM  5.37                        TARGET.ASM   2-2-2013  15:45:46         PAGE 154


LOC  OBJECT CODE     LINE SOURCE TEXT
  VALUE

                      06128  
                      06129 
                      06130  decf ein1,f
                      06131    
                      06132         
                      06133  goto moutx     
                      06134 nn91b:
                      06135 
                      06136         
                      06137  btfss min2_lower,7
                      06138  goto cxaa
                      06139 
                      06140         
                      06141  decf mout,f    
                      06142         
                      06143         
                      06144  movlw .255
                      06145  xorwf mout,w
                      06146  btfss STATUS,Z
                      06147  goto iwrtt     
                      06148                 
                      06149         
                      06150  bsf minres,0
                      06151  
                      06152         
                      06153  goto rrrout0
                      06154 iwrtt:
                      06155 
                      06156 
                      06157         
                      06158  movlw .127
                      06159  xorwf mout,w
                      06160  btfss STATUS,Z
                      06161  goto cxaa      
                      06162                 
                      06163         
                      06164         
                      06165         
                      06166  bcf STATUS,C
                      06167  rlf mout,f 
                      06168 
                      06169         
                      06170  decf ein1,f    
                      06171 
                      06172         
                      06173  btfsc min2_lower,6
                      06174  goto cxaa 
                      06175  
                      06176         
                      06177         
                      06178  incf mout,f    
                      06179         
                      06180 cxaa:
MPASM  5.37                        TARGET.ASM   2-2-2013  15:45:46         PAGE 155


LOC  OBJECT CODE     LINE SOURCE TEXT
  VALUE

                      06181 
                      06182         
                      06183  goto specidone0
                      06184 
                      06185 tpc0lea:
                      06186          
                      06187  movfw fulmin
                      06188  subwf fulmin2,w 
                      06189  movwf mout 
                      06190          
                      06191          
                      06192          
                      06193      
                      06194  bsf minres,0    
                      06195         
                      06196  goto specidone0
                      06197 
                      06198         
                      06199 nextspeci2:
                      06200 
                      06201 
                      06202  
                      06203 
                      06204         
                      06205  clrf mout_hi
                      06206         
                      06207         
                      06208         
                      06209  movf fulmin,w
                      06210  addwf fulmin2,w
                      06211  movwf mout
                      06212         
                      06213         
                      06214 
                      06215         
                      06216  btfss STATUS,C 
                      06217  goto cxab                      
                      06218         
                      06219         
                      06220  incf mout_hi,f 
                      06221         
                      06222 cxab:
                      06223 
                      06224 
                      06225 
                      06226         
                      06227  movf min_lower,w
                      06228  addwf min2_lower,w
                      06229  btfsc STATUS,C
                      06230  goto bihhg   
                      06231  
                      06232 
                      06233         
MPASM  5.37                        TARGET.ASM   2-2-2013  15:45:46         PAGE 156


LOC  OBJECT CODE     LINE SOURCE TEXT
  VALUE

                      06234         
                      06235  andlw .128     
                      06236  btfss STATUS,Z
                      06237  goto bihhg       
                      06238         
                      06239         
                      06240  goto bihh0     
                      06241         
                      06242 bihhg:
                      06243 
                      06244 
                      06245         
                      06246  incf mout,f    
                      06247         
                      06248         
                      06249  movf mout,f
                      06250  btfss STATUS,Z
                      06251  goto bihh0 
                      06252 
                      06253         
                      06254  incf mout_hi,f
                      06255 
                      06256 bihh0:
                      06257         
                      06258  movf mout_hi,f
                      06259  btfsc STATUS,Z
                      06260  goto specidone0 
                      06261 
                      06262         
                      06263         
                      06264         
                      06265         
                      06266  clrf big_c
                      06267  bcf STATUS,C
                      06268  rrf fulmin,f
                      06269  btfsc STATUS,C
                      06270  bsf big_c,0
                      06271         
                      06272         
                      06273  bcf STATUS,C
                      06274  rrf min_lower,f
                      06275 
                      06276         
                      06277         
                      06278  btfss big_c,0
                      06279  goto ddnyy
                      06280         
                      06281         
                      06282         
                      06283  bsf min_lower,7        
                      06284         
                      06285 ddnyy:
                      06286 
MPASM  5.37                        TARGET.ASM   2-2-2013  15:45:46         PAGE 157


LOC  OBJECT CODE     LINE SOURCE TEXT
  VALUE

                      06287         
                      06288         
                      06289  clrf big_c
                      06290  bcf STATUS,C
                      06291  rrf fulmin2,f
                      06292  btfsc STATUS,C
                      06293  bsf big_c,0
                      06294         
                      06295         
                      06296         
                      06297         
                      06298  bcf STATUS,C
                      06299  rrf min2_lower,f
                      06300         
                      06301         
                      06302         
                      06303  btfss big_c,0
                      06304  goto ddnzz
                      06305 
                      06306         
                      06307         
                      06308         
                      06309  bsf min_lower,7                
                      06310         
                      06311 ddnzz:
                      06312 
                      06313         
                      06314  incf ein1,f    
                      06315         
                      06316         
                      06317  goto nextspeci2
                      06318 
                      06319 
                      06320 specidone0:
                      06321 
                      06322  movfw mout 
                      06323  
                      06324  
                      06325  btfss STATUS,Z 
                      06326  goto nomoutzeer 
                      06327  
                      06328  
                      06329  
                      06330  movlw .0 
                      06331 
                      06332  PUSH
                      06333  
                      06334  
                      06335  
                      06336  movlw 0x80 
                      06337  PUSH
                      06338  
                      06339  
MPASM  5.37                        TARGET.ASM   2-2-2013  15:45:46         PAGE 158


LOC  OBJECT CODE     LINE SOURCE TEXT
  VALUE

                      06340  
                      06341  goto re455tu
                      06342  
                      06343  
                      06344  
                      06345 nomoutzeer: 
                      06346  
                      06347  
                      06348  
                      06349  
                      06350  movfw mout
                      06351  addlw -.128 
                      06352  movwf mout 
                      06353 
                      06354  
                      06355  
                      06356  
                      06357  btfsc minres,0 
                      06358  bsf mout,7
                      06359  
                      06360  movfw mout 
                      06361  PUSH
                      06362  
                      06363  
                      06364  
                      06365  banksel min
                      06366  movfw ein1 
                      06367 
                      06368  PUSH
                      06369  
                      06370 re455tu:
                      06371  
                      06372  return 
                      06373 
                      06374  
                      06375 
                      06376 
                      06377 #undefine mout_hi
                      06378 
                      06379 
                      06380 #undefine big_c
                      06381 
                      06382 
                      06383 #undefine min2_lower
                      06384 
                      06385 
                      06386 #undefine minres
                      06387 
                      06388 
                      06389 #undefine fulmin2H
                      06390 
                      06391 
                      06392 #undefine fulminH
MPASM  5.37                        TARGET.ASM   2-2-2013  15:45:46         PAGE 159


LOC  OBJECT CODE     LINE SOURCE TEXT
  VALUE

                      06393 
                      06394 
                      06395 #undefine min_lower
                      06396 
                      06397 
                      06398 #undefine rev
                      06399 
                      06400 
                      06401 #undefine fulmin2
                      06402 
                      06403 
                      06404 #undefine fulmin
                      06405 
                      06406 
                      06407 #undefine multiplier
                      06408 
                      06409 
                      06410 #undefine mout
                      06411 
                      06412 
                      06413 #undefine util
                      06414 
                      06415 
                      06416 #undefine neg
                      06417 
                      06418 
                      06419 #undefine ein2
                      06420 
                      06421 
                      06422 #undefine min2
                      06423 
                      06424 
                      06425 #undefine ein1
                      06426 
                      06427 
                      06428 #undefine min
                      06429 
                      06430 
                      06431 #define mout_hi sfploc00+1
                      06432 
                      06433 
                      06434 #define big_c sfploc01+1
                      06435 
                      06436 
                      06437 #define min2_lower sfploc02+1
                      06438 
                      06439 
                      06440 #define minres sfploc03+1
                      06441 
                      06442 
                      06443 #define fulmin2H sfploc04+1
                      06444 
                      06445 
MPASM  5.37                        TARGET.ASM   2-2-2013  15:45:46         PAGE 160


LOC  OBJECT CODE     LINE SOURCE TEXT
  VALUE

                      06446 #define fulminH sfploc05+1
                      06447 
                      06448 
                      06449 #define min_lower sfploc06+1
                      06450 
                      06451 
                      06452 #define rev sfploc07+1
                      06453 
                      06454 
                      06455 #define fulmin2 sfploc08+1
                      06456 
                      06457 
                      06458 #define fulmin sfploc09+1
                      06459 
                      06460 
                      06461 #define multiplier sfploc10+1
                      06462 
                      06463 
                      06464 #define mout sfploc11+1
                      06465 
                      06466 
                      06467 #define util sfploc12+1
                      06468 
                      06469 
                      06470 #define neg sfploc13+1
                      06471 
                      06472 
                      06473 #define ein2 sfploc14+1
                      06474 
                      06475 
                      06476 #define min2 sfploc15+1
                      06477 
                      06478 
                      06479 #define ein1 sfploc16+1
                      06480 
                      06481 
                      06482 #define min sfploc17+1
                      06483 
                      06484 
                      06485 addf0:
                      06486 #endif
                      06487 #endif
                      06488 
                      06489 
                      06490  
                      06491  
                      06492  
                      06493  
                      06494  
                      06495  
                      06496  
                      06497  
                      06498  POP
MPASM  5.37                        TARGET.ASM   2-2-2013  15:45:46         PAGE 161


LOC  OBJECT CODE     LINE SOURCE TEXT
  VALUE

0000   0800               M  movfw INDF ; preserve the safety of this code under interruptible conditions. 
0001   0384               M  decf FSR,f 
0002   ???? ????      06499  banksel min
0004   00??           06500  movwf ein2 
                      06501  POP
0005   0800               M  movfw INDF ; preserve the safety of this code under interruptible conditions. 
0006   0384               M  decf FSR,f 
0007   ???? ????      06502  banksel min
0009   00??           06503  movwf min2 
                      06504 
                      06505  POP
000A   0800               M  movfw INDF ; preserve the safety of this code under interruptible conditions. 
000B   0384               M  decf FSR,f 
000C   ???? ????      06506  banksel min
000E   00??           06507  movwf ein1 
                      06508 
                      06509  POP
000F   0800               M  movfw INDF ; preserve the safety of this code under interruptible conditions. 
0010   0384               M  decf FSR,f 
0011   ???? ????      06510  banksel min
0013   00??           06511  movwf min 
                      06512  
                      06513  
                      06514  
                      06515  
0014   1000           06516  bcf minres,0 
                      06517  
                      06518  
                      06519  
0015   01??           06520  clrf mout 
                      06521  
                      06522  
                      06523  
                      06524  
                      06525  
0016   01??           06526  clrf neg
0017   1B80           06527  btfsc min,7
0018   1400           06528  bsf neg,0
                      06529  
                      06530  
                      06531  
0019   1B80           06532  btfsc min2,7
001A   1480           06533  bsf neg,1
                      06534  
                      06535 
                      06536 
                      06537 
001B   1B80           06538  btfsc ein2,7  
001C   2???           06539  goto hllYAAAA
                      06540  
001D   1F80           06541  btfss ein1,7
001E   2???           06542  goto hllWAAAA
                      06543  
MPASM  5.37                        TARGET.ASM   2-2-2013  15:45:46         PAGE 162


LOC  OBJECT CODE     LINE SOURCE TEXT
  VALUE

001F   2???           06544  goto hllABAAA
0020                  06545 hllWAAAA: 
                      06546  
0020   08??           06547  movfw ein1
0021   02??           06548  subwf ein2,w    
0022   1C03           06549  btfss STATUS,C 
0023   2???           06550  goto hllZAAAA  
0024                  06551 hllXAAAA:
0024   2???           06552  goto hllABAAA  
0025                  06553 hllYAAAA:   
                      06554  
                      06555  
0025   1B80           06556  btfsc ein1,7
0026   2???           06557  goto hllWAAAA  
0027                  06558 hllZAAAA:  
                      06559  
                      06560  
                      06561 
                      06562 
0027   08??           06563  movf ein2,w
0028   06??           06564  xorwf ein1,f
                      06565 
0029   08??           06566  movf ein1,w
002A   06??           06567  xorwf ein2,f
                      06568 
002B   08??           06569  movf ein2,w
002C   06??           06570  xorwf ein1,f
                      06571 
                      06572 
002D   08??           06573  movf min2,w
002E   06??           06574  xorwf min,f
                      06575 
002F   08??           06576  movf min,w
0030   06??           06577  xorwf min2,f
                      06578 
0031   08??           06579  movf min2,w
0032   06??           06580  xorwf min,f
                      06581  
                      06582  
                      06583  
0033   1400           06584  bsf rev,0 
                      06585  
                      06586  
                      06587  
0034   2???           06588  goto hllABAAA_done 
0035                  06589 hllABAAA: 
                      06590  
                      06591  
                      06592  
0035   01??           06593  clrf rev 
0036                  06594 hllABAAA_done: 
                      06595  
                      06596  
MPASM  5.37                        TARGET.ASM   2-2-2013  15:45:46         PAGE 163


LOC  OBJECT CODE     LINE SOURCE TEXT
  VALUE

                      06597  
                      06598  
0036   08??           06599  movfw min 
0037   397F           06600  andlw .127 
0038   00??           06601  movwf min 
                      06602  
                      06603  
                      06604  
0039   08??           06605  movfw min2 
003A   397F           06606  andlw .127 
003B   00??           06607  movwf min2 
                      06608  
                      06609  
                      06610  
003C   01??           06611  clrf fulminH 
003D   08??           06612  movfw min 
003E   3E80           06613  addlw .128 
003F   1803           06614  btfsc STATUS,C 
0040   0A??           06615  incf fulminH,f 
                      06616  
                      06617  
0041   00??           06618  movwf fulmin 
                      06619  
                      06620  
                      06621  
0042   01??           06622  clrf fulmin2H 
0043   08??           06623  movfw min2 
0044   3E80           06624  addlw .128 
0045   1803           06625  btfsc STATUS,C 
0046   0A??           06626  incf fulmin2H,f 
                      06627  
0047   00??           06628  movwf fulmin2 
                      06629  
                      06630         
                      06631         
                      06632         
                      06633         
                      06634         
                      06635 
                      06636 
0048   01??           06637  clrf min_lower
                      06638 
0049   01??           06639  clrf min2_lower
                      06640  
004A                  06641 hllCBAAA:
                      06642 
                      06643 
004A   08??           06644  movfw ein1 
004B   06??           06645  xorwf ein2,w 
004C   1903           06646  btfsc STATUS,Z 
004D   2???           06647  goto hllEBAAA  
                      06648  
                      06649 
MPASM  5.37                        TARGET.ASM   2-2-2013  15:45:46         PAGE 164


LOC  OBJECT CODE     LINE SOURCE TEXT
  VALUE

                      06650 
004E   1003           06651  bcf STATUS,C
004F   0C??           06652  rrf min_lower,f
                      06653 
                      06654 
                      06655 
0050   1003           06656  bcf STATUS,C
0051   0C??           06657  rrf fulmin,f
                      06658 
                      06659 
0052   1C03           06660  btfss STATUS,C
0053   2???           06661  goto hllDBAAA
                      06662  
                      06663 
0054   1780           06664  bsf min_lower,7
0055                  06665 hllDBAAA:
                      06666 
                      06667 
                      06668 
                      06669 
0055   0A??           06670  incf ein1,f
                      06671 
                      06672 
0056   2???           06673  goto hllCBAAA
                      06674  
                      06675 
0057                  06676 hllEBAAA:       
                      06677 
                      06678  
                      06679  
                      06680  
                      06681  
                      06682  
0057   1C00           06683  btfss rev,0 
0058   2???           06684  goto hllFBAAA 
                      06685 
                      06686 
                      06687 
0059   08??           06688  movf fulmin2,w
005A   06??           06689  xorwf fulmin,f
                      06690 
005B   08??           06691  movf fulmin,w
005C   06??           06692  xorwf fulmin2,f
                      06693 
005D   08??           06694  movf fulmin2,w
005E   06??           06695  xorwf fulmin,f 
                      06696  
                      06697  
005F   08??           06698  movfw min_lower 
0060   00??           06699  movwf min2_lower 
                      06700  
0061   01??           06701  clrf min_lower
                      06702  
MPASM  5.37                        TARGET.ASM   2-2-2013  15:45:46         PAGE 165


LOC  OBJECT CODE     LINE SOURCE TEXT
  VALUE

                      06703  
                      06704  
                      06705  
                      06706  
0062                  06707 hllFBAAA: 
                      06708 
0062   ???? ????      06709  banksel min_lower
                      06710 
                      06711  
                      06712  
                      06713 
0064                  06714 hllGBAAA:       
                      06715 
0064   1C00           06716  btfss neg,0
0065   2???           06717  goto hllHBAAA
                      06718  
                      06719 
0066   1C80           06720  btfss neg,1
0067   2???           06721  goto hllHBAAA
                      06722 
                      06723 
                      06724 
                      06725 
0068   1400           06726  bsf minres,0
                      06727 
0069   2???           06728  goto hllYBAAA
                      06729 
                      06730  
                      06731  
                      06732  
                      06733  
006A                  06734 hllHBAAA:
                      06735  
                      06736 
006A   1C00           06737  btfss neg,0
006B   2???           06738  goto hllPBAAA 
                      06739 
                      06740  
006C                  06741 hllIBAAA:
                      06742 
                      06743         
                      06744         
                      06745         
006C   08??           06746  movfw fulmin 
006D   02??           06747  subwf fulmin2,w 
006E   00??           06748  movwf mout 
                      06749  
                      06750  
006F   1803           06751  btfsc STATUS,C
0070   2???           06752  goto hllJBAAA          
                      06753                 
                      06754         
0071   1400           06755  bsf minres,0   
MPASM  5.37                        TARGET.ASM   2-2-2013  15:45:46         PAGE 166


LOC  OBJECT CODE     LINE SOURCE TEXT
  VALUE

                      06756         
                      06757         
0072   2???           06758  goto hllQBAAA  
                      06759         
0073                  06760 hllJBAAA:
                      06761 
                      06762         
0073   08??           06763  movf mout,f
0074   1903           06764  btfsc STATUS,Z
0075   2???           06765  goto hllECAAA  
0076                  06766 hllKBAAA:
                      06767 
                      06768         
0076   1B80           06769  btfsc mout,7   
0077   2???           06770  goto hllMBAAA   
                      06771         
                      06772         
                      06773     
0078   1003           06774  bcf STATUS,C
0079   0D??           06775  rlf mout,f
                      06776         
                      06777         
007A   1F80           06778  btfss min_lower,7      
007B   2???           06779  goto hllLBAAA   
                      06780 
                      06781  
007C   03??           06782  decf mout,f    
                      06783 
                      06784         
007D   30FF           06785  movlw .255
007E   06??           06786  xorwf mout,w
007F   1D03           06787  btfss STATUS,Z
0080   2???           06788  goto hllLBAAA  
                      06789         
                      06790      
0081   1400           06791  bsf minres,0
                      06792  
                      06793          
0082   2???           06794  goto hllQBAAA
                      06795          
                      06796 
0083                  06797 hllLBAAA:
                      06798 
                      06799    
0083   1003           06800  bcf STATUS,C
0084   0D??           06801  rlf min_lower,f 
                      06802 
                      06803         
0085   03??           06804  decf ein1,f    
                      06805 
                      06806         
0086   2???           06807  goto hllKBAAA
                      06808 
MPASM  5.37                        TARGET.ASM   2-2-2013  15:45:46         PAGE 167


LOC  OBJECT CODE     LINE SOURCE TEXT
  VALUE

0087                  06809 hllMBAAA:
                      06810         
0087   1F80           06811  btfss min_lower,7      
0088   2???           06812  goto hllOBAAA   
                      06813                 
                      06814         
0089   03??           06815  decf mout,f
                      06816 
                      06817         
008A   30FF           06818  movlw .255
008B   06??           06819  xorwf mout,w
008C   1D03           06820  btfss STATUS,Z
008D   2???           06821  goto hllNBAAA  
                      06822                 
                      06823      
008E   1400           06824  bsf minres,0    
                      06825          
                      06826          
008F   2???           06827  goto hllQBAAA   
                      06828          
                      06829          
0090                  06830 hllNBAAA:
                      06831         
0090   307F           06832  movlw .127
0091   06??           06833  xorwf mout,w
0092   1D03           06834  btfss STATUS,Z
0093   2???           06835  goto hllOBAAA  
                      06836         
                      06837         
                      06838         
                      06839         
0094   1003           06840  bcf STATUS,C
0095   0D??           06841  rlf mout,f
                      06842 
                      06843         
0096   03??           06844  decf ein1,f    
                      06845         
                      06846         
0097   1B00           06847  btfsc min_lower,6
0098   2???           06848  goto hllOBAAA 
                      06849         
                      06850         
0099   0A??           06851  incf mout,f    
                      06852         
009A                  06853 hllOBAAA:
                      06854         
009A   2???           06855  goto hllECAAA
009B                  06856 hllPBAAA:
                      06857  
                      06858 
                      06859         
009B   1C80           06860  btfss neg,1
009C   2???           06861  goto hllYBAAA 
MPASM  5.37                        TARGET.ASM   2-2-2013  15:45:46         PAGE 168


LOC  OBJECT CODE     LINE SOURCE TEXT
  VALUE

                      06862  
                      06863         
009D                  06864 hllQBAAA:
                      06865 
                      06866         
009D   08??           06867  movfw fulmin2
009E   02??           06868  subwf fulmin,w 
009F   00??           06869  movwf mout 
                      06870 
                      06871  
00A0   1803           06872  btfsc STATUS,C
00A1   2???           06873  goto hllRBAAA          
                      06874         
                      06875         
                      06876         
                      06877         
00A2   1400           06878  bsf minres,0
                      06879         
                      06880         
00A3   2???           06881  goto hllIBAAA  
                      06882 
00A4                  06883 hllRBAAA:
                      06884 
                      06885         
00A4   08??           06886  movf mout,f 
00A5   1903           06887  btfsc STATUS,Z 
00A6   2???           06888  goto hllECAAA 
                      06889         
00A7                  06890 hllSBAAA:
                      06891 
                      06892         
00A7   1B80           06893  btfsc mout,7
00A8   2???           06894  goto hllMBAAAb
                      06895  
                      06896         
                      06897         
                      06898     
00A9   1003           06899  bcf STATUS,C
00AA   0D??           06900  rlf mout,f 
                      06901         
                      06902         
00AB   1F80           06903  btfss min2_lower,7
00AC   2???           06904  goto hllTBAAA
                      06905 
                      06906         
                      06907         
00AD   03??           06908  decf mout,f    
                      06909         
                      06910         
00AE   30FF           06911  movlw .255
00AF   06??           06912  xorwf mout,w
00B0   1D03           06913  btfss STATUS,Z
00B1   2???           06914  goto hllTBAAA  
MPASM  5.37                        TARGET.ASM   2-2-2013  15:45:46         PAGE 169


LOC  OBJECT CODE     LINE SOURCE TEXT
  VALUE

                      06915         
                      06916 
00B2   1400           06917  bsf minres,0
                      06918         
                      06919 
00B3   2???           06920  goto hllIBAAA
                      06921         
00B4                  06922 hllTBAAA:
                      06923 
                      06924  
00B4   1003           06925  bcf STATUS,C
00B5   0D??           06926  rlf min2_lower,f
                      06927  
                      06928 
00B6   03??           06929  decf ein1,f
                      06930    
                      06931         
00B7   2???           06932  goto hllSBAAA  
00B8                  06933 hllMBAAAb:
                      06934 
                      06935         
00B8   1F80           06936  btfss min2_lower,7
00B9   2???           06937  goto hllWBAAA
                      06938 
                      06939         
00BA   03??           06940  decf mout,f    
                      06941         
                      06942         
00BB   30FF           06943  movlw .255
00BC   06??           06944  xorwf mout,w
00BD   1D03           06945  btfss STATUS,Z
00BE   2???           06946  goto hllVBAAA  
                      06947                 
                      06948         
00BF   1400           06949  bsf minres,0
                      06950  
                      06951         
00C0   2???           06952  goto hllIBAAA
00C1                  06953 hllVBAAA:
                      06954 
                      06955 
                      06956         
00C1   307F           06957  movlw .127
00C2   06??           06958  xorwf mout,w
00C3   1D03           06959  btfss STATUS,Z
00C4   2???           06960  goto hllWBAAA  
                      06961                 
                      06962         
                      06963         
                      06964         
00C5   1003           06965  bcf STATUS,C
00C6   0D??           06966  rlf mout,f 
                      06967 
MPASM  5.37                        TARGET.ASM   2-2-2013  15:45:46         PAGE 170


LOC  OBJECT CODE     LINE SOURCE TEXT
  VALUE

                      06968         
00C7   03??           06969  decf ein1,f    
                      06970 
                      06971         
00C8   1B00           06972  btfsc min2_lower,6
00C9   2???           06973  goto hllWBAAA 
                      06974  
                      06975         
                      06976         
00CA   0A??           06977  incf mout,f    
                      06978         
00CB                  06979 hllWBAAA:
                      06980 
                      06981         
00CB   2???           06982  goto hllECAAA
                      06983 
00CC                  06984 hllXBAAA:
                      06985          
00CC   08??           06986  movfw fulmin
00CD   02??           06987  subwf fulmin2,w 
00CE   00??           06988  movwf mout 
                      06989          
                      06990          
                      06991          
                      06992      
00CF   1400           06993  bsf minres,0    
                      06994         
00D0   2???           06995  goto hllECAAA
                      06996 
                      06997         
00D1                  06998 hllYBAAA:
                      06999 
                      07000 
                      07001  
                      07002 
                      07003         
00D1   01??           07004  clrf mout_hi
                      07005         
                      07006         
                      07007         
00D2   08??           07008  movf fulmin,w
00D3   07??           07009  addwf fulmin2,w
00D4   00??           07010  movwf mout
                      07011         
                      07012         
                      07013 
                      07014         
00D5   1C03           07015  btfss STATUS,C 
00D6   2???           07016  goto hllZBAAA                  
                      07017         
                      07018         
00D7   0A??           07019  incf mout_hi,f 
                      07020         
MPASM  5.37                        TARGET.ASM   2-2-2013  15:45:46         PAGE 171


LOC  OBJECT CODE     LINE SOURCE TEXT
  VALUE

00D8                  07021 hllZBAAA:
                      07022 
                      07023 
                      07024 
                      07025         
00D8   08??           07026  movf min_lower,w
00D9   07??           07027  addwf min2_lower,w
00DA   1803           07028  btfsc STATUS,C
00DB   2???           07029  goto hllACAAA   
                      07030  
                      07031 
                      07032         
                      07033         
00DC   3980           07034  andlw .128     
00DD   1D03           07035  btfss STATUS,Z
00DE   2???           07036  goto hllACAAA    
                      07037         
                      07038         
00DF   2???           07039  goto hllBCAAA  
                      07040         
00E0                  07041 hllACAAA:
                      07042 
                      07043 
                      07044         
00E0   0A??           07045  incf mout,f    
                      07046         
                      07047         
00E1   08??           07048  movf mout,f
00E2   1D03           07049  btfss STATUS,Z
00E3   2???           07050  goto hllBCAAA 
                      07051 
                      07052         
00E4   0A??           07053  incf mout_hi,f
                      07054 
00E5                  07055 hllBCAAA:
                      07056         
00E5   08??           07057  movf mout_hi,f
00E6   1903           07058  btfsc STATUS,Z
00E7   2???           07059  goto hllECAAA 
                      07060 
                      07061         
                      07062         
                      07063         
                      07064         
00E8   01??           07065  clrf big_c
00E9   1003           07066  bcf STATUS,C
00EA   0C??           07067  rrf fulmin,f
00EB   1803           07068  btfsc STATUS,C
00EC   1400           07069  bsf big_c,0
                      07070         
                      07071         
00ED   1003           07072  bcf STATUS,C
00EE   0C??           07073  rrf min_lower,f
MPASM  5.37                        TARGET.ASM   2-2-2013  15:45:46         PAGE 172


LOC  OBJECT CODE     LINE SOURCE TEXT
  VALUE

                      07074 
                      07075         
                      07076         
00EF   1C00           07077  btfss big_c,0
00F0   2???           07078  goto hllCCAAA
                      07079         
                      07080         
                      07081         
00F1   1780           07082  bsf min_lower,7        
                      07083         
00F2                  07084 hllCCAAA:
                      07085 
                      07086         
                      07087         
00F2   01??           07088  clrf big_c
00F3   1003           07089  bcf STATUS,C
00F4   0C??           07090  rrf fulmin2,f
00F5   1803           07091  btfsc STATUS,C
00F6   1400           07092  bsf big_c,0
                      07093         
                      07094         
                      07095         
                      07096         
00F7   1003           07097  bcf STATUS,C
00F8   0C??           07098  rrf min2_lower,f
                      07099         
                      07100         
                      07101         
00F9   1C00           07102  btfss big_c,0
00FA   2???           07103  goto hllDCAAA
                      07104 
                      07105         
                      07106         
                      07107         
00FB   1780           07108  bsf min_lower,7                
                      07109         
00FC                  07110 hllDCAAA:
                      07111 
                      07112         
00FC   0A??           07113  incf ein1,f    
                      07114         
                      07115         
00FD   2???           07116  goto hllYBAAA
                      07117 
                      07118 
00FE                  07119 hllECAAA:
                      07120 
00FE   08??           07121  movfw mout 
                      07122  
                      07123  
00FF   1D03           07124  btfss STATUS,Z 
0100   2???           07125  goto hllFCAAA 
                      07126  
MPASM  5.37                        TARGET.ASM   2-2-2013  15:45:46         PAGE 173


LOC  OBJECT CODE     LINE SOURCE TEXT
  VALUE

                      07127  
                      07128  
0101   3000           07129  movlw .0 
                      07130 
                      07131  PUSH
0102   0A84               M  incf FSR,f ; The "incf" op serves as an allocator; it happens first so that interrupting
0103   0080               M  movwf INDF ; code of any sort will not overwrite the data. 
                      07132  
                      07133  
                      07134  
0104   3080           07135  movlw 0x80 
                      07136  PUSH
0105   0A84               M  incf FSR,f ; The "incf" op serves as an allocator; it happens first so that interrupting
0106   0080               M  movwf INDF ; code of any sort will not overwrite the data. 
                      07137  
                      07138  
                      07139  
0107   2???           07140  goto hllGCAAA
                      07141  
                      07142  
                      07143  
0108                  07144 hllFCAAA: 
                      07145  
                      07146  
                      07147  
                      07148  
0108   08??           07149  movfw mout
0109   3E80           07150  addlw -.128 
010A   00??           07151  movwf mout 
                      07152 
                      07153  
                      07154  
                      07155  
010B   1800           07156  btfsc minres,0 
010C   1780           07157  bsf mout,7
                      07158  
010D   08??           07159  movfw mout 
                      07160  PUSH
010E   0A84               M  incf FSR,f ; The "incf" op serves as an allocator; it happens first so that interrupting
010F   0080               M  movwf INDF ; code of any sort will not overwrite the data. 
                      07161  
                      07162  
                      07163  
0110   ???? ????      07164  banksel min
0112   08??           07165  movfw ein1 
                      07166 
                      07167  PUSH
0113   0A84               M  incf FSR,f ; The "incf" op serves as an allocator; it happens first so that interrupting
0114   0080               M  movwf INDF ; code of any sort will not overwrite the data. 
                      07168  
0115                  07169 hllGCAAA:
                      07170  
0115   0008           07171  return 
MPASM  5.37                        TARGET.ASM   2-2-2013  15:45:46         PAGE 174


LOC  OBJECT CODE     LINE SOURCE TEXT
  VALUE

                      07172 
                      07173  
                      07174 
                      07175 
                      07176 #undefine mout_hi
                      07177 
                      07178 
                      07179 #undefine big_c
                      07180 
                      07181 
                      07182 #undefine min2_lower
                      07183 
                      07184 
                      07185 #undefine minres
                      07186 
                      07187 
                      07188 #undefine fulmin2H
                      07189 
                      07190 
                      07191 #undefine fulminH
                      07192 
                      07193 
                      07194 #undefine min_lower
                      07195 
                      07196 
                      07197 #undefine rev
                      07198 
                      07199 
                      07200 #undefine fulmin2
                      07201 
                      07202 
                      07203 #undefine fulmin
                      07204 
                      07205 
                      07206 #undefine multiplier
                      07207 
                      07208 
                      07209 #undefine mout
                      07210 
                      07211 
                      07212 #undefine util
                      07213 
                      07214 
                      07215 #undefine neg
                      07216 
                      07217 
                      07218 #undefine ein2
                      07219 
                      07220 
                      07221 #undefine min2
                      07222 
                      07223 
                      07224 #undefine ein1
MPASM  5.37                        TARGET.ASM   2-2-2013  15:45:46         PAGE 175


LOC  OBJECT CODE     LINE SOURCE TEXT
  VALUE

                      07225 
                      07226 
                      07227 #undefine min
                      07228 
                      07229 
                      07230 
                      07231 
                      07232 
                      07233 
                      07234 
                      07235 
                      07236 
                      07237 
                      07238 
                      07239   
                      07240  
                      07241 
                      07242 sfp_div CODE 
                      07243 
                      07244 
                      07245 #define rounded sfploc00
                      07246 
                      07247 
                      07248 #define big_c sfploc01
                      07249 
                      07250 
                      07251 #define a_hi_msb sfploc02
                      07252 
                      07253 
                      07254 #define loop_count sfploc03
                      07255 
                      07256 
                      07257 #define run_total sfploc04
                      07258 
                      07259 
                      07260 #define min2_lower sfploc05
                      07261 
                      07262 
                      07263 #define subtrahend sfploc06
                      07264 
                      07265 
                      07266 #define quotient_lo sfploc07
                      07267 
                      07268 
                      07269 #define term sfploc08
                      07270 
                      07271 
                      07272 #define exam sfploc09
                      07273 
                      07274 
                      07275 #define multiplier sfploc10
                      07276 
                      07277 
MPASM  5.37                        TARGET.ASM   2-2-2013  15:45:46         PAGE 176


LOC  OBJECT CODE     LINE SOURCE TEXT
  VALUE

                      07278 #define mout sfploc11
                      07279 
                      07280 
                      07281 #define util sfploc12
                      07282 
                      07283 
                      07284 #define neg sfploc13
                      07285 
                      07286 
                      07287 #define ein2 sfploc14
                      07288 
                      07289 
                      07290 #define min2 sfploc15
                      07291 
                      07292 
                      07293 #define ein sfploc16
                      07294 
                      07295 
                      07296 #define min sfploc17
                      07297 
                      07298 
0000                  07299 divf:  
                      07300 #ifdef HLLMULTITASK
                      07301 #ifdef HLLGUARDsfploc 
                      07302  movf in_isr,f  
                      07303  btfsc STATUS,Z
                      07304  
                      07305 
                      07306 
                      07307  goto divf0
                      07308 
                      07309 
                      07310 
                      07311 
                      07312 
                      07313 
                      07314 
                      07315 
                      07316 
                      07317 
                      07318 
                      07319 
                      07320 
                      07321 
                      07322 
                      07323  POP
                      07324 
                      07325  banksel min
                      07326  movwf ein2 
                      07327  clrf neg 
                      07328 
                      07329 
                      07330  POP
MPASM  5.37                        TARGET.ASM   2-2-2013  15:45:46         PAGE 177


LOC  OBJECT CODE     LINE SOURCE TEXT
  VALUE

                      07331 
                      07332  banksel min
                      07333  movwf min2 
                      07334 
                      07335 
                      07336  btfsc min2,7
                      07337  bsf neg,1
                      07338  bcf min2,7 
                      07339 
                      07340  POP
                      07341 
                      07342  banksel min
                      07343  movwf ein 
                      07344 
                      07345  POP
                      07346 
                      07347  banksel min
                      07348  movwf min 
                      07349  btfsc min,7
                      07350  bsf neg,0 
                      07351  bcf min,7 
                      07352  movfw ein 
                      07353  movwf util 
                      07354  movfw ein2 
                      07355  subwf util,f 
                      07356 
                      07357  clrf exam 
                      07358 
                      07359  
                      07360  movfw min 
                      07361  addlw .128 
                      07362  movwf min 
                      07363 
                      07364  movfw min2 
                      07365  addlw .128 
                      07366  movwf min2 
                      07367 
                      07368  
                      07369  
                      07370 
                      07371  
                      07372  movwf term 
                      07373 
                      07374 
                      07375 
                      07376 
                      07377  clrf quotient_lo
                      07378 
                      07379 
                      07380  clrf subtrahend
                      07381 
                      07382 
                      07383  clrf min2_lower
MPASM  5.37                        TARGET.ASM   2-2-2013  15:45:46         PAGE 178


LOC  OBJECT CODE     LINE SOURCE TEXT
  VALUE

                      07384 
                      07385 
                      07386  clrf run_total
                      07387 
                      07388 
                      07389  clrf loop_count
                      07390 
                      07391 f4tp:
                      07392 
                      07393  movf loop_count,w
                      07394  xorlw .16
                      07395  btfsc STATUS,Z
                      07396  goto f4dn
                      07397 
                      07398 
                      07399  movf min,w
                      07400  andlw .128
                      07401  movwf a_hi_msb
                      07402  
                      07403 
                      07404  bcf STATUS,C
                      07405  rlf min2_lower,f
                      07406 
                      07407 
                      07408 
                      07409  bcf STATUS,C
                      07410  rlf run_total,f
                      07411 
                      07412 
                      07413  btfss STATUS,C
                      07414  goto que4
                      07415 
                      07416 
                      07417  incf min2_lower,f
                      07418 
                      07419 que4:
                      07420 
                      07421 
                      07422  bcf STATUS,C
                      07423  rlf min,f 
                      07424 
                      07425 
                      07426 
                      07427  bcf STATUS,C
                      07428  rlf quotient_lo,f
                      07429 
                      07430 
                      07431  btfsc STATUS,C
                      07432 
                      07433 
                      07434 
                      07435  incf min,f
                      07436 
MPASM  5.37                        TARGET.ASM   2-2-2013  15:45:46         PAGE 179


LOC  OBJECT CODE     LINE SOURCE TEXT
  VALUE

                      07437 
                      07438  movf a_hi_msb,f
                      07439  btfsc STATUS,Z
                      07440  goto nry4
                      07441 
                      07442 
                      07443  incf run_total,f
                      07444 
                      07445 
                      07446  btfsc STATUS,Z
                      07447  incf min2_lower,f
                      07448 
                      07449 nry4:
                      07450 
                      07451 
                      07452  clrf big_c 
                      07453  movfw min2
                      07454  subwf run_total,w 
                      07455  btfss STATUS,C 
                      07456  bsf big_c,0 
                      07457 
                      07458 
                      07459  movf subtrahend,w
                      07460  subwf min2_lower,f 
                      07461 
                      07462 
                      07463  movf min2,w
                      07464  subwf run_total,f
                      07465 
                      07466 
                      07467  btfsc big_c,0 
                      07468  decf min2_lower,f
                      07469 
                      07470 
                      07471  btfss min2_lower,7
                      07472  goto ga4g0
                      07473 
                      07474 
                      07475 
                      07476  movf min2,w
                      07477  addwf run_total,w
                      07478  clrf big_c
                      07479  btfsc STATUS,C
                      07480  bsf big_c,0
                      07481 
                      07482 
                      07483  movf subtrahend,w
                      07484  addwf min2_lower,f
                      07485 
                      07486 
                      07487  movf min2,w
                      07488  addwf run_total,f
                      07489 
MPASM  5.37                        TARGET.ASM   2-2-2013  15:45:46         PAGE 180


LOC  OBJECT CODE     LINE SOURCE TEXT
  VALUE

                      07490 
                      07491 
                      07492  btfsc big_c,0 
                      07493  incf min2_lower,f
                      07494 
                      07495 
                      07496 
                      07497  movlw .254
                      07498  andwf quotient_lo,f
                      07499 
                      07500 
                      07501  goto ga5g0
                      07502 ga4g0:
                      07503 
                      07504 
                      07505  movlw .1
                      07506  iorwf quotient_lo,f
                      07507 ga5g0:
                      07508 
                      07509 
                      07510 
                      07511  incf loop_count,f
                      07512 
                      07513 
                      07514  goto f4tp
                      07515 
                      07516 f4dn:
                      07517 
                      07518 
                      07519  movf quotient_lo,w
                      07520  movwf mout
                      07521 
                      07522 
                      07523  clrf multiplier
                      07524  btfsc min,0
                      07525  bsf multiplier,0
                      07526 
                      07527  
                      07528  bcf STATUS,C
                      07529  rrf term,f
                      07530 
                      07531  clrf rounded
                      07532  movfw run_total
                      07533  subwf term,w    
                      07534  btfsc STATUS,C 
                      07535  goto fr9rh   
                      07536  incf mout,f 
                      07537  bsf rounded,0 
                      07538  
                      07539 fr9rh:
                      07540  
                      07541 
                      07542 
MPASM  5.37                        TARGET.ASM   2-2-2013  15:45:46         PAGE 181


LOC  OBJECT CODE     LINE SOURCE TEXT
  VALUE

                      07543  movf multiplier,f
                      07544  btfsc STATUS,Z
                      07545  goto notmult0
                      07546  
                      07547 
                      07548 
                      07549 
                      07550 
                      07551  
                      07552  btfss mout,0
                      07553  goto prpg1
                      07554 
                      07555  
                      07556  btfsc rounded,0
                      07557  goto prpg1
                      07558  
                      07559  
                      07560 
                      07561  bcf STATUS,C
                      07562  rrf mout,f
                      07563 
                      07564 
                      07565  incf mout,f
                      07566 
                      07567 
                      07568  goto prpgm
                      07569 
                      07570 prpg1:
                      07571 
                      07572 
                      07573  bcf STATUS,C 
                      07574  rrf mout,f
                      07575 
                      07576 prpgm:
                      07577 
                      07578 
                      07579  bsf mout,7
                      07580 
                      07581  goto notmult1
                      07582 notmult0:
                      07583  decf util,f 
                      07584 notmult1:
                      07585  movfw mout 
                      07586 
                      07587 retrydvif1: 
                      07588 
                      07589   addlw -.128 
                      07590   movwf exam 
                      07591   btfss exam,7 
                      07592   goto nodivfcarr2 
                      07593   addlw .128    
                      07594 
                      07595  
MPASM  5.37                        TARGET.ASM   2-2-2013  15:45:46         PAGE 182


LOC  OBJECT CODE     LINE SOURCE TEXT
  VALUE

                      07596  decf util,f 
                      07597  bcf STATUS,C 
                      07598  
                      07599  
                      07600  
                      07601  rlf mout,f 
                      07602  movfw mout 
                      07603  goto retrydvif1 
                      07604 
                      07605 nodivfcarr2: 
                      07606 
                      07607 
                      07608  movwf mout
                      07609 
                      07610 
                      07611 
                      07612  
                      07613  
                      07614  btfsc neg,0
                      07615  goto ita33nq 
                      07616  btfss neg,1
                      07617  goto div_sames 
                      07618  goto div_dif5 
                      07619 ita33nq: 
                      07620  btfsc neg,1
                      07621  goto div_sames 
                      07622 
                      07623 div_dif5: 
                      07624 
                      07625  
                      07626  
                      07627  
                      07628  
                      07629  movfw mout 
                      07630  iorlw .128 
                      07631  movwf mout 
                      07632  
                      07633 
                      07634 div_sames: 
                      07635  movfw mout 
                      07636  PUSH
                      07637  banksel min
                      07638  movfw util 
                      07639  PUSH
                      07640  
                      07641  return 
                      07642 
                      07643  
                      07644  
                      07645 
                      07646 
                      07647 #undefine rounded
                      07648 
MPASM  5.37                        TARGET.ASM   2-2-2013  15:45:46         PAGE 183


LOC  OBJECT CODE     LINE SOURCE TEXT
  VALUE

                      07649 
                      07650 #undefine big_c
                      07651 
                      07652 
                      07653 #undefine a_hi_msb
                      07654 
                      07655 
                      07656 #undefine loop_count
                      07657 
                      07658 
                      07659 #undefine run_total
                      07660 
                      07661 
                      07662 #undefine min2_lower
                      07663 
                      07664 
                      07665 #undefine subtrahend
                      07666 
                      07667 
                      07668 #undefine quotient_lo
                      07669 
                      07670 
                      07671 #undefine term
                      07672 
                      07673 
                      07674 #undefine exam
                      07675 
                      07676 
                      07677 #undefine multiplier
                      07678 
                      07679 
                      07680 #undefine mout
                      07681 
                      07682 
                      07683 #undefine util
                      07684 
                      07685 
                      07686 #undefine neg
                      07687 
                      07688 
                      07689 #undefine ein2
                      07690 
                      07691 
                      07692 #undefine min2
                      07693 
                      07694 
                      07695 #undefine ein
                      07696 
                      07697 
                      07698 #undefine min
                      07699 
                      07700 
                      07701 #define rounded sfploc00+1
MPASM  5.37                        TARGET.ASM   2-2-2013  15:45:46         PAGE 184


LOC  OBJECT CODE     LINE SOURCE TEXT
  VALUE

                      07702 
                      07703 
                      07704 #define big_c sfploc01+1
                      07705 
                      07706 
                      07707 #define a_hi_msb sfploc02+1
                      07708 
                      07709 
                      07710 #define loop_count sfploc03+1
                      07711 
                      07712 
                      07713 #define run_total sfploc04+1
                      07714 
                      07715 
                      07716 #define min2_lower sfploc05+1
                      07717 
                      07718 
                      07719 #define subtrahend sfploc06+1
                      07720 
                      07721 
                      07722 #define quotient_lo sfploc07+1
                      07723 
                      07724 
                      07725 #define term sfploc08+1
                      07726 
                      07727 
                      07728 #define exam sfploc09+1
                      07729 
                      07730 
                      07731 #define multiplier sfploc10+1
                      07732 
                      07733 
                      07734 #define mout sfploc11+1
                      07735 
                      07736 
                      07737 #define util sfploc12+1
                      07738 
                      07739 
                      07740 #define neg sfploc13+1
                      07741 
                      07742 
                      07743 #define ein2 sfploc14+1
                      07744 
                      07745 
                      07746 #define min2 sfploc15+1
                      07747 
                      07748 
                      07749 #define ein sfploc16+1
                      07750 
                      07751 
                      07752 #define min sfploc17+1
                      07753 
                      07754 
MPASM  5.37                        TARGET.ASM   2-2-2013  15:45:46         PAGE 185


LOC  OBJECT CODE     LINE SOURCE TEXT
  VALUE

                      07755 divf0:
                      07756 #endif
                      07757 #endif
                      07758 
                      07759 
                      07760 
                      07761 
                      07762 
                      07763 
                      07764 
                      07765 
                      07766 
                      07767 
                      07768 
                      07769 
                      07770 
                      07771 
                      07772 
                      07773  POP
0000   0800               M  movfw INDF ; preserve the safety of this code under interruptible conditions. 
0001   0384               M  decf FSR,f 
                      07774 
0002   ???? ????      07775  banksel min
0004   00??           07776  movwf ein2 
0005   01??           07777  clrf neg 
                      07778 
                      07779 
                      07780  POP
0006   0800               M  movfw INDF ; preserve the safety of this code under interruptible conditions. 
0007   0384               M  decf FSR,f 
                      07781 
0008   ???? ????      07782  banksel min
000A   00??           07783  movwf min2 
                      07784 
                      07785 
000B   1B80           07786  btfsc min2,7
000C   1480           07787  bsf neg,1
000D   1380           07788  bcf min2,7 
                      07789 
                      07790  POP
000E   0800               M  movfw INDF ; preserve the safety of this code under interruptible conditions. 
000F   0384               M  decf FSR,f 
                      07791 
0010   ???? ????      07792  banksel min
0012   00??           07793  movwf ein 
                      07794 
                      07795  POP
0013   0800               M  movfw INDF ; preserve the safety of this code under interruptible conditions. 
0014   0384               M  decf FSR,f 
                      07796 
0015   ???? ????      07797  banksel min
0017   00??           07798  movwf min 
0018   1B80           07799  btfsc min,7
MPASM  5.37                        TARGET.ASM   2-2-2013  15:45:46         PAGE 186


LOC  OBJECT CODE     LINE SOURCE TEXT
  VALUE

0019   1400           07800  bsf neg,0 
001A   1380           07801  bcf min,7 
001B   08??           07802  movfw ein 
001C   00??           07803  movwf util 
001D   08??           07804  movfw ein2 
001E   02??           07805  subwf util,f 
                      07806 
001F   01??           07807  clrf exam 
                      07808 
                      07809  
0020   08??           07810  movfw min 
0021   3E80           07811  addlw .128 
0022   00??           07812  movwf min 
                      07813 
0023   08??           07814  movfw min2 
0024   3E80           07815  addlw .128 
0025   00??           07816  movwf min2 
                      07817 
                      07818  
                      07819  
                      07820 
                      07821  
0026   00??           07822  movwf term 
                      07823 
                      07824 
                      07825 
                      07826 
0027   01??           07827  clrf quotient_lo
                      07828 
                      07829 
0028   01??           07830  clrf subtrahend
                      07831 
                      07832 
0029   01??           07833  clrf min2_lower
                      07834 
                      07835 
002A   01??           07836  clrf run_total
                      07837 
                      07838 
002B   01??           07839  clrf loop_count
                      07840 
002C                  07841 hllHCAAA:
                      07842 
002C   08??           07843  movf loop_count,w
002D   3A10           07844  xorlw .16
002E   1903           07845  btfsc STATUS,Z
002F   2???           07846  goto hllMCAAA
                      07847 
                      07848 
0030   08??           07849  movf min,w
0031   3980           07850  andlw .128
0032   00??           07851  movwf a_hi_msb
                      07852  
MPASM  5.37                        TARGET.ASM   2-2-2013  15:45:46         PAGE 187


LOC  OBJECT CODE     LINE SOURCE TEXT
  VALUE

                      07853 
0033   1003           07854  bcf STATUS,C
0034   0D??           07855  rlf min2_lower,f
                      07856 
                      07857 
                      07858 
0035   1003           07859  bcf STATUS,C
0036   0D??           07860  rlf run_total,f
                      07861 
                      07862 
0037   1C03           07863  btfss STATUS,C
0038   2???           07864  goto hllICAAA
                      07865 
                      07866 
0039   0A??           07867  incf min2_lower,f
                      07868 
003A                  07869 hllICAAA:
                      07870 
                      07871 
003A   1003           07872  bcf STATUS,C
003B   0D??           07873  rlf min,f 
                      07874 
                      07875 
                      07876 
003C   1003           07877  bcf STATUS,C
003D   0D??           07878  rlf quotient_lo,f
                      07879 
                      07880 
003E   1803           07881  btfsc STATUS,C
                      07882 
                      07883 
                      07884 
003F   0A??           07885  incf min,f
                      07886 
                      07887 
0040   08??           07888  movf a_hi_msb,f
0041   1903           07889  btfsc STATUS,Z
0042   2???           07890  goto hllJCAAA
                      07891 
                      07892 
0043   0A??           07893  incf run_total,f
                      07894 
                      07895 
0044   1903           07896  btfsc STATUS,Z
0045   0A??           07897  incf min2_lower,f
                      07898 
0046                  07899 hllJCAAA:
                      07900 
                      07901 
0046   01??           07902  clrf big_c 
0047   08??           07903  movfw min2
0048   02??           07904  subwf run_total,w 
0049   1C03           07905  btfss STATUS,C 
MPASM  5.37                        TARGET.ASM   2-2-2013  15:45:46         PAGE 188


LOC  OBJECT CODE     LINE SOURCE TEXT
  VALUE

004A   1400           07906  bsf big_c,0 
                      07907 
                      07908 
004B   08??           07909  movf subtrahend,w
004C   02??           07910  subwf min2_lower,f 
                      07911 
                      07912 
004D   08??           07913  movf min2,w
004E   02??           07914  subwf run_total,f
                      07915 
                      07916 
004F   1800           07917  btfsc big_c,0 
0050   03??           07918  decf min2_lower,f
                      07919 
                      07920 
0051   1F80           07921  btfss min2_lower,7
0052   2???           07922  goto hllKCAAA
                      07923 
                      07924 
                      07925 
0053   08??           07926  movf min2,w
0054   07??           07927  addwf run_total,w
0055   01??           07928  clrf big_c
0056   1803           07929  btfsc STATUS,C
0057   1400           07930  bsf big_c,0
                      07931 
                      07932 
0058   08??           07933  movf subtrahend,w
0059   07??           07934  addwf min2_lower,f
                      07935 
                      07936 
005A   08??           07937  movf min2,w
005B   07??           07938  addwf run_total,f
                      07939 
                      07940 
                      07941 
005C   1800           07942  btfsc big_c,0 
005D   0A??           07943  incf min2_lower,f
                      07944 
                      07945 
                      07946 
005E   30FE           07947  movlw .254
005F   05??           07948  andwf quotient_lo,f
                      07949 
                      07950 
0060   2???           07951  goto hllLCAAA
0061                  07952 hllKCAAA:
                      07953 
                      07954 
0061   3001           07955  movlw .1
0062   04??           07956  iorwf quotient_lo,f
0063                  07957 hllLCAAA:
                      07958 
MPASM  5.37                        TARGET.ASM   2-2-2013  15:45:46         PAGE 189


LOC  OBJECT CODE     LINE SOURCE TEXT
  VALUE

                      07959 
                      07960 
0063   0A??           07961  incf loop_count,f
                      07962 
                      07963 
0064   2???           07964  goto hllHCAAA
                      07965 
0065                  07966 hllMCAAA:
                      07967 
                      07968 
0065   08??           07969  movf quotient_lo,w
0066   00??           07970  movwf mout
                      07971 
                      07972 
0067   01??           07973  clrf multiplier
0068   1800           07974  btfsc min,0
0069   1400           07975  bsf multiplier,0
                      07976 
                      07977  
006A   1003           07978  bcf STATUS,C
006B   0C??           07979  rrf term,f
                      07980 
006C   01??           07981  clrf rounded
006D   08??           07982  movfw run_total
006E   02??           07983  subwf term,w    
006F   1803           07984  btfsc STATUS,C 
0070   2???           07985  goto hllNCAAA   
0071   0A??           07986  incf mout,f 
0072   1400           07987  bsf rounded,0 
                      07988  
0073                  07989 hllNCAAA:
                      07990  
                      07991 
                      07992 
0073   08??           07993  movf multiplier,f
0074   1903           07994  btfsc STATUS,Z
0075   2???           07995  goto hllQCAAA
                      07996  
                      07997 
                      07998 
                      07999 
                      08000 
                      08001  
0076   1C00           08002  btfss mout,0
0077   2???           08003  goto hllOCAAA
                      08004 
                      08005  
0078   1800           08006  btfsc rounded,0
0079   2???           08007  goto hllOCAAA
                      08008  
                      08009  
                      08010 
007A   1003           08011  bcf STATUS,C
MPASM  5.37                        TARGET.ASM   2-2-2013  15:45:46         PAGE 190


LOC  OBJECT CODE     LINE SOURCE TEXT
  VALUE

007B   0C??           08012  rrf mout,f
                      08013 
                      08014 
007C   0A??           08015  incf mout,f
                      08016 
                      08017 
007D   2???           08018  goto hllPCAAA
                      08019 
007E                  08020 hllOCAAA:
                      08021 
                      08022 
007E   1003           08023  bcf STATUS,C 
007F   0C??           08024  rrf mout,f
                      08025 
0080                  08026 hllPCAAA:
                      08027 
                      08028 
0080   1780           08029  bsf mout,7
                      08030 
0081   2???           08031  goto hllRCAAA
0082                  08032 hllQCAAA:
0082   03??           08033  decf util,f 
0083                  08034 hllRCAAA:
0083   08??           08035  movfw mout 
                      08036 
0084                  08037 hllSCAAA: 
                      08038 
0084   3E80           08039   addlw -.128 
0085   00??           08040   movwf exam 
0086   1F80           08041   btfss exam,7 
0087   2???           08042   goto hllTCAAA 
0088   3E80           08043   addlw .128    
                      08044 
                      08045  
0089   03??           08046  decf util,f 
008A   1003           08047  bcf STATUS,C 
                      08048  
                      08049  
                      08050  
008B   0D??           08051  rlf mout,f 
008C   08??           08052  movfw mout 
008D   2???           08053  goto hllSCAAA 
                      08054 
008E                  08055 hllTCAAA: 
                      08056 
                      08057 
008E   00??           08058  movwf mout
                      08059 
                      08060 
                      08061 
                      08062  
                      08063  
008F   1800           08064  btfsc neg,0
MPASM  5.37                        TARGET.ASM   2-2-2013  15:45:46         PAGE 191


LOC  OBJECT CODE     LINE SOURCE TEXT
  VALUE

0090   2???           08065  goto hllUCAAA 
0091   1C80           08066  btfss neg,1
0092   2???           08067  goto hllWCAAA 
0093   2???           08068  goto hllVCAAA 
0094                  08069 hllUCAAA: 
0094   1880           08070  btfsc neg,1
0095   2???           08071  goto hllWCAAA 
                      08072 
0096                  08073 hllVCAAA: 
                      08074 
                      08075  
                      08076  
                      08077  
                      08078  
0096   08??           08079  movfw mout 
0097   3880           08080  iorlw .128 
0098   00??           08081  movwf mout 
                      08082  
                      08083 
0099                  08084 hllWCAAA: 
0099   08??           08085  movfw mout 
                      08086  PUSH
009A   0A84               M  incf FSR,f ; The "incf" op serves as an allocator; it happens first so that interrupting
009B   0080               M  movwf INDF ; code of any sort will not overwrite the data. 
009C   ???? ????      08087  banksel min
009E   08??           08088  movfw util 
                      08089  PUSH
009F   0A84               M  incf FSR,f ; The "incf" op serves as an allocator; it happens first so that interrupting
00A0   0080               M  movwf INDF ; code of any sort will not overwrite the data. 
                      08090  
00A1   0008           08091  return 
                      08092 
                      08093  
                      08094  
                      08095 
                      08096 
                      08097 #undefine rounded
                      08098 
                      08099 
                      08100 #undefine big_c
                      08101 
                      08102 
                      08103 #undefine a_hi_msb
                      08104 
                      08105 
                      08106 #undefine loop_count
                      08107 
                      08108 
                      08109 #undefine run_total
                      08110 
                      08111 
                      08112 #undefine min2_lower
                      08113 
MPASM  5.37                        TARGET.ASM   2-2-2013  15:45:46         PAGE 192


LOC  OBJECT CODE     LINE SOURCE TEXT
  VALUE

                      08114 
                      08115 #undefine subtrahend
                      08116 
                      08117 
                      08118 #undefine quotient_lo
                      08119 
                      08120 
                      08121 #undefine term
                      08122 
                      08123 
                      08124 #undefine exam
                      08125 
                      08126 
                      08127 #undefine multiplier
                      08128 
                      08129 
                      08130 #undefine mout
                      08131 
                      08132 
                      08133 #undefine util
                      08134 
                      08135 
                      08136 #undefine neg
                      08137 
                      08138 
                      08139 #undefine ein2
                      08140 
                      08141 
                      08142 #undefine min2
                      08143 
                      08144 
                      08145 #undefine ein
                      08146 
                      08147 
                      08148 #undefine min
                      08149 
                      08150 
                      08151 
                      08152 
                      08153 
                      08154 
                      08155 
                      08156  
                      08157 
                      08158 
                      08159 sfp_tou CODE 
                      08160 
                      08161 
                      08162 
                      08163 #define util sfploc00
                      08164 
                      08165 
                      08166 #define divisor sfploc01
MPASM  5.37                        TARGET.ASM   2-2-2013  15:45:46         PAGE 193


LOC  OBJECT CODE     LINE SOURCE TEXT
  VALUE

                      08167 
                      08168 
                      08169 #define karg2 sfploc02
                      08170 
                      08171 
                      08172 #define karg1 sfploc03
                      08173 
                      08174 
0000                  08175 ftou:  
                      08176 #ifdef HLLMULTITASK
                      08177 #ifdef HLLGUARDsfploc 
                      08178  movf in_isr,f  
                      08179  btfsc STATUS,Z
                      08180  
                      08181 
                      08182 
                      08183  goto ftou0
                      08184 
                      08185 
                      08186 
                      08187 
                      08188 
                      08189 
                      08190  POP
                      08191  banksel karg2
                      08192  movwf karg2 
                      08193  clrf karg1 
                      08194  
                      08195  
                      08196  
                      08197  
                      08198  btfss karg2,7
                      08199  goto re55zek
                      08200  POP
                      08201  goto re55zer 
                      08202 re55zek:
                      08203  
                      08204  POP
                      08205  addlw .128
                      08206  banksel karg1
                      08207  movwf karg1 
                      08208  
                      08209  movfw karg2
                      08210  sublw .7
                      08211  
                      08212  movwf divisor 
                      08213 
                      08214  movlw high FPRollTbl3 
                      08215  movwf PCLATH 
                      08216  movlw low FPRollTbl3
                      08217  addwf divisor,w 
                      08218  btfsc STATUS,C 
                      08219  incf PCLATH,f 
MPASM  5.37                        TARGET.ASM   2-2-2013  15:45:46         PAGE 194


LOC  OBJECT CODE     LINE SOURCE TEXT
  VALUE

                      08220  movwf PCL 
                      08221 
                      08222 
                      08223 FPRollTbl3:
                      08224  goto shift0
                      08225  goto shift1
                      08226  goto shift2 
                      08227  goto shift3
                      08228  goto shift4
                      08229  goto shift5
                      08230  goto shift6
                      08231  goto shift7
                      08232  
                      08233 shift7:
                      08234  bcf STATUS,C 
                      08235  rrf karg1,f
                      08236  rrf util,f
                      08237 shift6:
                      08238  bcf STATUS,C 
                      08239  rrf karg1,f
                      08240  rrf util,f
                      08241 shift5:
                      08242  bcf STATUS,C 
                      08243  rrf karg1,f
                      08244  rrf util,f
                      08245 shift4:
                      08246  bcf STATUS,C 
                      08247  rrf karg1,f
                      08248  rrf util,f
                      08249 shift3:
                      08250  bcf STATUS,C 
                      08251  rrf karg1,f
                      08252  rrf util,f
                      08253 shift2:
                      08254  bcf STATUS,C 
                      08255  rrf karg1,f
                      08256  rrf util,f
                      08257 shift1:
                      08258  bcf STATUS,C 
                      08259  rrf karg1,f
                      08260  rrf util,f
                      08261 shift0:
                      08262 
                      08263 re55zer:
                      08264  banksel karg1
                      08265  movfw karg1 
                      08266  PUSH
                      08267  
                      08268  
                      08269  return
                      08270 
                      08271 
                      08272 
MPASM  5.37                        TARGET.ASM   2-2-2013  15:45:46         PAGE 195


LOC  OBJECT CODE     LINE SOURCE TEXT
  VALUE

                      08273 
                      08274 #undefine util
                      08275 
                      08276 
                      08277 #undefine divisor
                      08278 
                      08279 
                      08280 #undefine karg2
                      08281 
                      08282 
                      08283 #undefine karg1
                      08284 
                      08285 
                      08286 #define util sfploc00+1
                      08287 
                      08288 
                      08289 #define divisor sfploc01+1
                      08290 
                      08291 
                      08292 #define karg2 sfploc02+1
                      08293 
                      08294 
                      08295 #define karg1 sfploc03+1
                      08296 
                      08297 
                      08298 ftou0:
                      08299 #endif
                      08300 #endif
                      08301 
                      08302 
                      08303 
                      08304 
                      08305 
                      08306 
                      08307  POP
0000   0800               M  movfw INDF ; preserve the safety of this code under interruptible conditions. 
0001   0384               M  decf FSR,f 
0002   ???? ????      08308  banksel karg2
0004   00??           08309  movwf karg2 
0005   01??           08310  clrf karg1 
                      08311  
                      08312  
                      08313  
                      08314  
0006   1F80           08315  btfss karg2,7
0007   2???           08316  goto hllXCAAA
                      08317  POP
0008   0800               M  movfw INDF ; preserve the safety of this code under interruptible conditions. 
0009   0384               M  decf FSR,f 
000A   2???           08318  goto hllHDAAA 
000B                  08319 hllXCAAA:
                      08320  
                      08321  POP
MPASM  5.37                        TARGET.ASM   2-2-2013  15:45:46         PAGE 196


LOC  OBJECT CODE     LINE SOURCE TEXT
  VALUE

000B   0800               M  movfw INDF ; preserve the safety of this code under interruptible conditions. 
000C   0384               M  decf FSR,f 
000D   3E80           08322  addlw .128
000E   ???? ????      08323  banksel karg1
0010   00??           08324  movwf karg1 
                      08325  
0011   08??           08326  movfw karg2
0012   3C07           08327  sublw .7
                      08328  
0013   00??           08329  movwf divisor 
                      08330 
0014   30??           08331  movlw high hllYCAAA 
0015   008A           08332  movwf PCLATH 
0016   30??           08333  movlw low hllYCAAA
0017   07??           08334  addwf divisor,w 
0018   1803           08335  btfsc STATUS,C 
0019   0A8A           08336  incf PCLATH,f 
001A   0082           08337  movwf PCL 
                      08338 
                      08339 
001B                  08340 hllYCAAA:
001B   2???           08341  goto hllGDAAA
001C   2???           08342  goto hllFDAAA
001D   2???           08343  goto hllEDAAA 
001E   2???           08344  goto hllDDAAA
001F   2???           08345  goto hllCDAAA
0020   2???           08346  goto hllBDAAA
0021   2???           08347  goto hllADAAA
0022   2???           08348  goto hllZCAAA
                      08349  
0023                  08350 hllZCAAA:
0023   1003           08351  bcf STATUS,C 
0024   0C??           08352  rrf karg1,f
0025   0C??           08353  rrf util,f
0026                  08354 hllADAAA:
0026   1003           08355  bcf STATUS,C 
0027   0C??           08356  rrf karg1,f
0028   0C??           08357  rrf util,f
0029                  08358 hllBDAAA:
0029   1003           08359  bcf STATUS,C 
002A   0C??           08360  rrf karg1,f
002B   0C??           08361  rrf util,f
002C                  08362 hllCDAAA:
002C   1003           08363  bcf STATUS,C 
002D   0C??           08364  rrf karg1,f
002E   0C??           08365  rrf util,f
002F                  08366 hllDDAAA:
002F   1003           08367  bcf STATUS,C 
0030   0C??           08368  rrf karg1,f
0031   0C??           08369  rrf util,f
0032                  08370 hllEDAAA:
0032   1003           08371  bcf STATUS,C 
0033   0C??           08372  rrf karg1,f
MPASM  5.37                        TARGET.ASM   2-2-2013  15:45:46         PAGE 197


LOC  OBJECT CODE     LINE SOURCE TEXT
  VALUE

0034   0C??           08373  rrf util,f
0035                  08374 hllFDAAA:
0035   1003           08375  bcf STATUS,C 
0036   0C??           08376  rrf karg1,f
0037   0C??           08377  rrf util,f
0038                  08378 hllGDAAA:
                      08379 
0038                  08380 hllHDAAA:
0038   ???? ????      08381  banksel karg1
003A   08??           08382  movfw karg1 
                      08383  PUSH
003B   0A84               M  incf FSR,f ; The "incf" op serves as an allocator; it happens first so that interrupting
003C   0080               M  movwf INDF ; code of any sort will not overwrite the data. 
                      08384  
                      08385  
003D   0008           08386  return
                      08387 
                      08388 
                      08389 
                      08390 
                      08391 #undefine util
                      08392 
                      08393 
                      08394 #undefine divisor
                      08395 
                      08396 
                      08397 #undefine karg2
                      08398 
                      08399 
                      08400 #undefine karg1
                      08401 
                      08402 
                      08403 
                      08404 
                      08405  
                      08406 
                      08407 sfp_gt CODE
                      08408 
                      08409 
                      08410 
                      08411 #define karg4 sfploc00
                      08412 
                      08413 
                      08414 #define karg3 sfploc01
                      08415 
                      08416 
                      08417 #define karg2 sfploc02
                      08418 
                      08419 
                      08420 #define karg1 sfploc03
                      08421 
                      08422 
                      08423 #define neg2 sfploc04
MPASM  5.37                        TARGET.ASM   2-2-2013  15:45:46         PAGE 198


LOC  OBJECT CODE     LINE SOURCE TEXT
  VALUE

                      08424 
                      08425 
                      08426 #define neg sfploc05
                      08427 
                      08428 
0000                  08429 gtf:  
                      08430 #ifdef HLLMULTITASK
                      08431 #ifdef HLLGUARDsfploc 
                      08432  movf in_isr,f  
                      08433  btfsc STATUS,Z
                      08434  
                      08435 
                      08436 
                      08437  goto gtf0
                      08438 
                      08439  
                      08440  
                      08441  
                      08442  
                      08443  
                      08444 
                      08445  
                      08446  
                      08447  
                      08448  
                      08449  
                      08450  POP
                      08451  banksel karg4
                      08452  movwf karg4 
                      08453 
                      08454  POP
                      08455 
                      08456  movwf karg3 
                      08457  
                      08458  POP
                      08459 
                      08460  movwf karg2 
                      08461 
                      08462  POP
                      08463 
                      08464  movwf karg1 
                      08465  
                      08466  
                      08467  
                      08468  clrf neg 
                      08469  clrf neg2 
                      08470 
                      08471  btfsc karg1,7
                      08472  bsf neg,0 
                      08473  btfsc karg3,7
                      08474  bsf neg2,0 
                      08475 
                      08476 
MPASM  5.37                        TARGET.ASM   2-2-2013  15:45:46         PAGE 199


LOC  OBJECT CODE     LINE SOURCE TEXT
  VALUE

                      08477  
                      08478  btfss neg,0
                      08479  goto tsok7
                      08480  btfsc neg2,0
                      08481  goto tsok7
                      08482  movlw .0
                      08483 
                      08484  PUSH
                      08485  
                      08486  goto retok7
                      08487 tsok7:
                      08488 
                      08489 
                      08490 
                      08491 
                      08492 
                      08493 
                      08494  
                      08495  btfsc neg,0
                      08496  goto tsok8
                      08497  btfss neg2,0
                      08498  goto tsok8
                      08499  movlw .1 
                      08500  PUSH
                      08501  
                      08502  goto retok7
                      08503 tsok8:
                      08504 
                      08505 
                      08506 
                      08507  
                      08508  
                      08509  bcf karg1,7
                      08510  bcf karg3,7
                      08511 
                      08512 
                      08513  
                      08514  
                      08515  
                      08516  
                      08517 
                      08518  
                      08519  
                      08520  
                      08521  
                      08522  
                      08523  
                      08524 
                      08525  btfsc karg4,7 
                      08526  goto nxclg55
                      08527  movf karg4,f
                      08528  btfsc STATUS,Z 
                      08529  goto nxclg55 
MPASM  5.37                        TARGET.ASM   2-2-2013  15:45:46         PAGE 200


LOC  OBJECT CODE     LINE SOURCE TEXT
  VALUE

                      08530  
                      08531 
                      08532  movf karg2,f
                      08533  btfsc STATUS,Z
                      08534  goto iiout4
                      08535  btfsc karg2,7
                      08536  goto iiout4
                      08537  goto iistl3
                      08538  
                      08539 nxclg55: 
                      08540 
                      08541  btfsc karg2,7 
                      08542  goto iiout4
                      08543  movf karg2,f
                      08544  btfsc STATUS,Z 
                      08545  goto iiout4 
                      08546  goto retnn
                      08547 iistl3: 
                      08548  movfw  karg2                   
                      08549  subwf karg4,w    
                      08550  btfsc STATUS,C    
                      08551  goto iiout4
                      08552  goto retnn
                      08553 
                      08554 
                      08555 
                      08556 iiout4: 
                      08557 
                      08558 
                      08559 
                      08560  
                      08561 
                      08562 
                      08563 
                      08564 
                      08565 
                      08566  btfsc karg2,7 
                      08567  goto nzxlg55
                      08568  movf karg2,f
                      08569  btfsc STATUS,Z 
                      08570  goto nzxlg55 
                      08571  
                      08572 
                      08573  movf karg4,f
                      08574  btfsc STATUS,Z
                      08575  goto izxut4
                      08576  btfsc karg4,7
                      08577  goto izxut4
                      08578  goto izxtl3
                      08579  
                      08580 nzxlg55: 
                      08581 
                      08582  btfsc karg4,7 
MPASM  5.37                        TARGET.ASM   2-2-2013  15:45:46         PAGE 201


LOC  OBJECT CODE     LINE SOURCE TEXT
  VALUE

                      08583  goto izxut4
                      08584  movf karg4,f
                      08585  btfsc STATUS,Z 
                      08586  goto izxut4 
                      08587  goto retin
                      08588 izxtl3: 
                      08589  movfw  karg4                   
                      08590  subwf karg2,w    
                      08591  btfsc STATUS,C    
                      08592  goto izxut4
                      08593  goto retin
                      08594 izxut4: 
                      08595 
                      08596 
                      08597 
                      08598 
                      08599 
                      08600 
                      08601 
                      08602 
                      08603  
                      08604  
                      08605  
                      08606  
                      08607  movfw karg1
                      08608  subwf karg3,w
                      08609  btfss STATUS,C 
                      08610  goto retnn 
                      08611  
                      08612  movfw karg3
                      08613  subwf karg1,w
                      08614  btfss STATUS,C 
                      08615  goto retin
                      08616 
                      08617  
                      08618  movlw .0 
                      08619  PUSH
                      08620  
                      08621  goto retok7 
                      08622 
                      08623  
                      08624 retin:
                      08625  banksel neg
                      08626  movlw .0 
                      08627  btfsc neg,0
                      08628  movlw .1 
                      08629  PUSH
                      08630  
                      08631  goto retok7 
                      08632 retnn:
                      08633  banksel neg
                      08634  movlw .0 
                      08635  btfss neg,0
MPASM  5.37                        TARGET.ASM   2-2-2013  15:45:46         PAGE 202


LOC  OBJECT CODE     LINE SOURCE TEXT
  VALUE

                      08636  movlw .1
                      08637  PUSH
                      08638  
                      08639 retok7:
                      08640  
                      08641  return 
                      08642  
                      08643 
                      08644 
                      08645 
                      08646 #undefine karg4
                      08647 
                      08648 
                      08649 #undefine karg3
                      08650 
                      08651 
                      08652 #undefine karg2
                      08653 
                      08654 
                      08655 #undefine karg1
                      08656 
                      08657 
                      08658 #undefine neg2
                      08659 
                      08660 
                      08661 #undefine neg
                      08662 
                      08663 
                      08664 #define karg4 sfploc00+1
                      08665 
                      08666 
                      08667 #define karg3 sfploc01+1
                      08668 
                      08669 
                      08670 #define karg2 sfploc02+1
                      08671 
                      08672 
                      08673 #define karg1 sfploc03+1
                      08674 
                      08675 
                      08676 #define neg2 sfploc04+1
                      08677 
                      08678 
                      08679 #define neg sfploc05+1
                      08680 
                      08681 
                      08682 gtf0:
                      08683 #endif
                      08684 #endif
                      08685 
                      08686  
                      08687  
                      08688  
MPASM  5.37                        TARGET.ASM   2-2-2013  15:45:46         PAGE 203


LOC  OBJECT CODE     LINE SOURCE TEXT
  VALUE

                      08689  
                      08690  
                      08691 
                      08692  
                      08693  
                      08694  
                      08695  
                      08696  
                      08697  POP
0000   0800               M  movfw INDF ; preserve the safety of this code under interruptible conditions. 
0001   0384               M  decf FSR,f 
0002   ???? ????      08698  banksel karg4
0004   00??           08699  movwf karg4 
                      08700 
                      08701  POP
0005   0800               M  movfw INDF ; preserve the safety of this code under interruptible conditions. 
0006   0384               M  decf FSR,f 
                      08702 
0007   00??           08703  movwf karg3 
                      08704  
                      08705  POP
0008   0800               M  movfw INDF ; preserve the safety of this code under interruptible conditions. 
0009   0384               M  decf FSR,f 
                      08706 
000A   00??           08707  movwf karg2 
                      08708 
                      08709  POP
000B   0800               M  movfw INDF ; preserve the safety of this code under interruptible conditions. 
000C   0384               M  decf FSR,f 
                      08710 
000D   00??           08711  movwf karg1 
                      08712  
                      08713  
                      08714  
000E   01??           08715  clrf neg 
000F   01??           08716  clrf neg2 
                      08717 
0010   1B80           08718  btfsc karg1,7
0011   1400           08719  bsf neg,0 
0012   1B80           08720  btfsc karg3,7
0013   1400           08721  bsf neg2,0 
                      08722 
                      08723 
                      08724  
0014   1C00           08725  btfss neg,0
0015   2???           08726  goto hllIDAAA
0016   1800           08727  btfsc neg2,0
0017   2???           08728  goto hllIDAAA
0018   3000           08729  movlw .0
                      08730 
                      08731  PUSH
0019   0A84               M  incf FSR,f ; The "incf" op serves as an allocator; it happens first so that interrupting
001A   0080               M  movwf INDF ; code of any sort will not overwrite the data. 
MPASM  5.37                        TARGET.ASM   2-2-2013  15:45:46         PAGE 204


LOC  OBJECT CODE     LINE SOURCE TEXT
  VALUE

                      08732  
001B   2???           08733  goto hllSDAAA
001C                  08734 hllIDAAA:
                      08735 
                      08736 
                      08737 
                      08738 
                      08739 
                      08740 
                      08741  
001C   1800           08742  btfsc neg,0
001D   2???           08743  goto hllJDAAA
001E   1C00           08744  btfss neg2,0
001F   2???           08745  goto hllJDAAA
0020   3001           08746  movlw .1 
                      08747  PUSH
0021   0A84               M  incf FSR,f ; The "incf" op serves as an allocator; it happens first so that interrupting
0022   0080               M  movwf INDF ; code of any sort will not overwrite the data. 
                      08748  
0023   2???           08749  goto hllSDAAA
0024                  08750 hllJDAAA:
                      08751 
                      08752 
                      08753 
                      08754  
                      08755  
0024   1380           08756  bcf karg1,7
0025   1380           08757  bcf karg3,7
                      08758 
                      08759 
                      08760  
                      08761  
                      08762  
                      08763  
                      08764 
                      08765  
                      08766  
                      08767  
                      08768  
                      08769  
                      08770  
                      08771 
0026   1B80           08772  btfsc karg4,7 
0027   2???           08773  goto hllKDAAA
0028   08??           08774  movf karg4,f
0029   1903           08775  btfsc STATUS,Z 
002A   2???           08776  goto hllKDAAA 
                      08777  
                      08778 
002B   08??           08779  movf karg2,f
002C   1903           08780  btfsc STATUS,Z
002D   2???           08781  goto hllMDAAA
002E   1B80           08782  btfsc karg2,7
MPASM  5.37                        TARGET.ASM   2-2-2013  15:45:46         PAGE 205


LOC  OBJECT CODE     LINE SOURCE TEXT
  VALUE

002F   2???           08783  goto hllMDAAA
0030   2???           08784  goto hllLDAAA
                      08785  
0031                  08786 hllKDAAA: 
                      08787 
0031   1B80           08788  btfsc karg2,7 
0032   2???           08789  goto hllMDAAA
0033   08??           08790  movf karg2,f
0034   1903           08791  btfsc STATUS,Z 
0035   2???           08792  goto hllMDAAA 
0036   2???           08793  goto hllRDAAA
0037                  08794 hllLDAAA: 
0037   08??           08795  movfw  karg2                   
0038   02??           08796  subwf karg4,w    
0039   1803           08797  btfsc STATUS,C    
003A   2???           08798  goto hllMDAAA
003B   2???           08799  goto hllRDAAA
                      08800 
                      08801 
                      08802 
003C                  08803 hllMDAAA: 
                      08804 
                      08805 
                      08806 
                      08807  
                      08808 
                      08809 
                      08810 
                      08811 
                      08812 
003C   1B80           08813  btfsc karg2,7 
003D   2???           08814  goto hllNDAAA
003E   08??           08815  movf karg2,f
003F   1903           08816  btfsc STATUS,Z 
0040   2???           08817  goto hllNDAAA 
                      08818  
                      08819 
0041   08??           08820  movf karg4,f
0042   1903           08821  btfsc STATUS,Z
0043   2???           08822  goto hllPDAAA
0044   1B80           08823  btfsc karg4,7
0045   2???           08824  goto hllPDAAA
0046   2???           08825  goto hllODAAA
                      08826  
0047                  08827 hllNDAAA: 
                      08828 
0047   1B80           08829  btfsc karg4,7 
0048   2???           08830  goto hllPDAAA
0049   08??           08831  movf karg4,f
004A   1903           08832  btfsc STATUS,Z 
004B   2???           08833  goto hllPDAAA 
004C   2???           08834  goto hllQDAAA
004D                  08835 hllODAAA: 
MPASM  5.37                        TARGET.ASM   2-2-2013  15:45:46         PAGE 206


LOC  OBJECT CODE     LINE SOURCE TEXT
  VALUE

004D   08??           08836  movfw  karg4                   
004E   02??           08837  subwf karg2,w    
004F   1803           08838  btfsc STATUS,C    
0050   2???           08839  goto hllPDAAA
0051   2???           08840  goto hllQDAAA
0052                  08841 hllPDAAA: 
                      08842 
                      08843 
                      08844 
                      08845 
                      08846 
                      08847 
                      08848 
                      08849 
                      08850  
                      08851  
                      08852  
                      08853  
0052   08??           08854  movfw karg1
0053   02??           08855  subwf karg3,w
0054   1C03           08856  btfss STATUS,C 
0055   2???           08857  goto hllRDAAA 
                      08858  
0056   08??           08859  movfw karg3
0057   02??           08860  subwf karg1,w
0058   1C03           08861  btfss STATUS,C 
0059   2???           08862  goto hllQDAAA
                      08863 
                      08864  
005A   3000           08865  movlw .0 
                      08866  PUSH
005B   0A84               M  incf FSR,f ; The "incf" op serves as an allocator; it happens first so that interrupting
005C   0080               M  movwf INDF ; code of any sort will not overwrite the data. 
                      08867  
005D   2???           08868  goto hllSDAAA 
                      08869 
                      08870  
005E                  08871 hllQDAAA:
005E   ???? ????      08872  banksel neg
0060   3000           08873  movlw .0 
0061   1800           08874  btfsc neg,0
0062   3001           08875  movlw .1 
                      08876  PUSH
0063   0A84               M  incf FSR,f ; The "incf" op serves as an allocator; it happens first so that interrupting
0064   0080               M  movwf INDF ; code of any sort will not overwrite the data. 
                      08877  
0065   2???           08878  goto hllSDAAA 
0066                  08879 hllRDAAA:
0066   ???? ????      08880  banksel neg
0068   3000           08881  movlw .0 
0069   1C00           08882  btfss neg,0
006A   3001           08883  movlw .1
                      08884  PUSH
MPASM  5.37                        TARGET.ASM   2-2-2013  15:45:46         PAGE 207


LOC  OBJECT CODE     LINE SOURCE TEXT
  VALUE

006B   0A84               M  incf FSR,f ; The "incf" op serves as an allocator; it happens first so that interrupting
006C   0080               M  movwf INDF ; code of any sort will not overwrite the data. 
                      08885  
006D                  08886 hllSDAAA:
                      08887  
006D   0008           08888  return 
                      08889  
                      08890 
                      08891 
                      08892 
                      08893 #undefine karg4
                      08894 
                      08895 
                      08896 #undefine karg3
                      08897 
                      08898 
                      08899 #undefine karg2
                      08900 
                      08901 
                      08902 #undefine karg1
                      08903 
                      08904 
                      08905 #undefine neg2
                      08906 
                      08907 
                      08908 #undefine neg
                      08909 
                      08910 
                      08911 
                      08912 
                      08913 
                      08914 
                      08915 
                      08916 
                      08917  
                      08918  
                      08919 
                      08920 sfp_mul CODE
                      08921 
                      08922 
                      08923 
                      08924 
                      08925 #define savelsb sfploc00
                      08926 
                      08927 
                      08928 #define iterator sfploc01
                      08929 
                      08930 
                      08931 #define hi_byte sfploc02
                      08932 
                      08933 
                      08934 #define make_mout sfploc03
                      08935 
MPASM  5.37                        TARGET.ASM   2-2-2013  15:45:46         PAGE 208


LOC  OBJECT CODE     LINE SOURCE TEXT
  VALUE

                      08936 
                      08937 #define factor2 sfploc04
                      08938 
                      08939 
                      08940 #define factor1 sfploc05
                      08941 
                      08942 
                      08943 #define mulhi sfploc06
                      08944 
                      08945 
                      08946 #define mout sfploc07
                      08947 
                      08948 
                      08949 #define util sfploc08
                      08950 
                      08951 
                      08952 #define neg sfploc09
                      08953 
                      08954 
                      08955 #define ein2 sfploc10
                      08956 
                      08957 
                      08958 #define min2 sfploc11
                      08959 
                      08960 
                      08961 #define ein sfploc12
                      08962 
                      08963 
                      08964 #define min sfploc13
                      08965 
                      08966 
0000                  08967 mulf:  
                      08968 #ifdef HLLMULTITASK
                      08969 #ifdef HLLGUARDsfploc 
                      08970  movf in_isr,f  
                      08971  btfsc STATUS,Z
                      08972  
                      08973 
                      08974 
                      08975  goto mulf0
                      08976 
                      08977 
                      08978  
                      08979  POP
                      08980 
                      08981  
                      08982  banksel ein2
                      08983  movwf ein2 
                      08984  xorlw .128 
                      08985  btfss STATUS,Z
                      08986  goto mulf_zokr1
                      08987  movlw .127     
                      08988  
MPASM  5.37                        TARGET.ASM   2-2-2013  15:45:46         PAGE 209


LOC  OBJECT CODE     LINE SOURCE TEXT
  VALUE

                      08989  andwf HLINDF,w 
                      08990  
                      08991  btfsc STATUS,Z
                      08992  goto mulf_zeer1
                      08993  
                      08994 mulf_zokr1: 
                      08995 
                      08996  
                      08997  
                      08998  clrf neg 
                      08999  
                      09000  
                      09001  
                      09002  POP
                      09003 
                      09004  
                      09005  banksel min2
                      09006  movwf min2 
                      09007  btfsc min2,7
                      09008  bsf neg,1      
                      09009 
                      09010  
                      09011  bcf min2,7 
                      09012 
                      09013  POP
                      09014 
                      09015  banksel ein
                      09016  movwf ein
                      09017  xorlw .128 
                      09018  btfss STATUS,Z
                      09019  goto mulf_zokr2
                      09020  movlw .127
                      09021 
                      09022  andwf HLINDF,w 
                      09023  btfsc STATUS,Z
                      09024  goto mulf_zeer2
                      09025 mulf_zokr2:
                      09026 
                      09027  POP
                      09028 
                      09029  
                      09030  banksel min
                      09031  movwf min 
                      09032  btfsc min,7
                      09033  bsf neg,0
                      09034 
                      09035  
                      09036  bcf min,7 
                      09037  
                      09038  
                      09039  
                      09040  movfw ein 
                      09041 
MPASM  5.37                        TARGET.ASM   2-2-2013  15:45:46         PAGE 210


LOC  OBJECT CODE     LINE SOURCE TEXT
  VALUE

                      09042  
                      09043  movwf util 
                      09044 
                      09045  
                      09046  movfw ein2 
                      09047 
                      09048  
                      09049  addwf util,f 
                      09050  
                      09051  
                      09052  movfw min 
                      09053 
                      09054  
                      09055  addlw .128 
                      09056 
                      09057  
                      09058  PUSH
                      09059  banksel min2
                      09060  movfw min2 
                      09061  addlw .128 
                      09062 
                      09063  PUSH
                      09064  goto kmul16 
                      09065 
                      09066 bmul16:
                      09067 
                      09068  
                      09069  POP
                      09070 
                      09071 
                      09072  banksel mout
                      09073  movwf mout 
                      09074 
                      09075  
                      09076  btfss mout,7 
                      09077  goto no_mulf_carry 
                      09078 
                      09079  
                      09080  POP
                      09081 
                      09082  
                      09083  banksel util
                      09084  incf util,f 
                      09085 
                      09086 
                      09087  
                      09088  andlw .128 
                      09089  btfss STATUS,Z
                      09090  incf mout,f
                      09091 
                      09092  goto mulf_if1_done 
                      09093 
                      09094 
MPASM  5.37                        TARGET.ASM   2-2-2013  15:45:46         PAGE 211


LOC  OBJECT CODE     LINE SOURCE TEXT
  VALUE

                      09095 no_mulf_carry: 
                      09096 
                      09097  
                      09098  
                      09099  
                      09100  
                      09101  
                      09102 
                      09103  
                      09104  bcf STATUS,C 
                      09105 
                      09106  
                      09107  POP
                      09108 
                      09109  banksel savelsb
                      09110  movwf savelsb
                      09111  
                      09112  
                      09113  andlw .128 
                      09114  btfss STATUS,Z 
                      09115  bsf STATUS,C 
                      09116 
                      09117  
                      09118  
                      09119  banksel mout
                      09120  rlf mout,f 
                      09121 
                      09122  
                      09123  
                      09124  
                      09125  movf savelsb,w
                      09126 
                      09127  banksel mout
                      09128  andlw .64
                      09129  btfss STATUS,Z
                      09130  incf mout,f
                      09131  
                      09132 
                      09133 
                      09134 mulf_if1_done: 
                      09135 
                      09136  
                      09137  movfw mout 
                      09138 
                      09139  
                      09140  addlw -.128 
                      09141 
                      09142  
                      09143  movwf mout 
                      09144 
                      09145  
                      09146  btfsc neg,0
                      09147  goto ita22nq 
MPASM  5.37                        TARGET.ASM   2-2-2013  15:45:46         PAGE 212


LOC  OBJECT CODE     LINE SOURCE TEXT
  VALUE

                      09148  btfss neg,1
                      09149  goto mul_sames 
                      09150  goto mul_dif5 
                      09151 ita22nq: 
                      09152  btfsc neg,1
                      09153  goto mul_sames 
                      09154 
                      09155 mul_dif5: 
                      09156 
                      09157  
                      09158  movfw mout 
                      09159 
                      09160  
                      09161  iorlw .128 
                      09162 
                      09163  
                      09164  movwf mout 
                      09165 
                      09166 
                      09167 mul_sames: 
                      09168 
                      09169  
                      09170  movfw mout 
                      09171 
                      09172  
                      09173  PUSH
                      09174 
                      09175  
                      09176  banksel util
                      09177  movfw util 
                      09178  PUSH
                      09179  
                      09180  goto reto9k 
                      09181 
                      09182 mulf_zeer1: 
                      09183 
                      09184  POP
                      09185  POP
                      09186 
                      09187 
                      09188 mulf_zeer2:
                      09189  POP
                      09190 
                      09191  
                      09192  movlw .128
                      09193  PUSH
                      09194  PUSH
                      09195 
                      09196  
                      09197  
                      09198 reto9k:
                      09199  
                      09200  return
MPASM  5.37                        TARGET.ASM   2-2-2013  15:45:46         PAGE 213


LOC  OBJECT CODE     LINE SOURCE TEXT
  VALUE

                      09201  
                      09202  
                      09203  
                      09204  
                      09205 kmul16: 
                      09206 
                      09207  POP
                      09208  banksel factor1
                      09209  movwf factor1
                      09210 
                      09211  POP
                      09212  banksel factor2
                      09213  movwf factor2
                      09214 
                      09215 
                      09216  
                      09217  clrf hi_byte
                      09218  
                      09219  clrf make_mout
                      09220  
                      09221  clrf iterator
                      09222 
                      09223 bptz2:
                      09224 
                      09225  
                      09226  btfss factor1,0
                      09227  goto nyyu11
                      09228 
                      09229  
                      09230  
                      09231  movfw factor2
                      09232  addwf make_mout,f
                      09233 
                      09234  
                      09235  btfsc STATUS,C
                      09236  incf hi_byte,f
                      09237 
                      09238 
                      09239 nyyu11:
                      09240  
                      09241  
                      09242  bcf STATUS,C
                      09243  rrf factor1,f
                      09244  
                      09245  
                      09246  
                      09247  bcf STATUS,C
                      09248  rrf hi_byte,f
                      09249 
                      09250  
                      09251  
                      09252  
                      09253  
MPASM  5.37                        TARGET.ASM   2-2-2013  15:45:46         PAGE 214


LOC  OBJECT CODE     LINE SOURCE TEXT
  VALUE

                      09254  
                      09255  rrf make_mout,f
                      09256 
                      09257 
                      09258  
                      09259  
                      09260  
                      09261  
                      09262  
                      09263  
                      09264  
                      09265  
                      09266  
                      09267  
                      09268  
                      09269  
                      09270  btfsc STATUS,C
                      09271  bsf factor1,7 
                      09272 
                      09273 
                      09274  incf iterator,f
                      09275 
                      09276 
                      09277  movlw .8
                      09278  xorwf iterator,w
                      09279  btfss STATUS,Z
                      09280  goto bptz2
                      09281 
                      09282  
                      09283  movfw factor1 
                      09284  PUSH
                      09285 
                      09286  
                      09287  banksel make_mout
                      09288  movfw make_mout
                      09289  PUSH
                      09290 
                      09291  goto bmul16 
                      09292 
                      09293 
                      09294 
                      09295 
                      09296 
                      09297 #undefine savelsb
                      09298 
                      09299 
                      09300 #undefine iterator
                      09301 
                      09302 
                      09303 #undefine hi_byte
                      09304 
                      09305 
                      09306 #undefine make_mout
MPASM  5.37                        TARGET.ASM   2-2-2013  15:45:46         PAGE 215


LOC  OBJECT CODE     LINE SOURCE TEXT
  VALUE

                      09307 
                      09308 
                      09309 #undefine factor2
                      09310 
                      09311 
                      09312 #undefine factor1
                      09313 
                      09314 
                      09315 #undefine mulhi
                      09316 
                      09317 
                      09318 #undefine mout
                      09319 
                      09320 
                      09321 #undefine util
                      09322 
                      09323 
                      09324 #undefine neg
                      09325 
                      09326 
                      09327 #undefine ein2
                      09328 
                      09329 
                      09330 #undefine min2
                      09331 
                      09332 
                      09333 #undefine ein
                      09334 
                      09335 
                      09336 #undefine min
                      09337 
                      09338 
                      09339 #define savelsb sfploc00+1
                      09340 
                      09341 
                      09342 #define iterator sfploc01+1
                      09343 
                      09344 
                      09345 #define hi_byte sfploc02+1
                      09346 
                      09347 
                      09348 #define make_mout sfploc03+1
                      09349 
                      09350 
                      09351 #define factor2 sfploc04+1
                      09352 
                      09353 
                      09354 #define factor1 sfploc05+1
                      09355 
                      09356 
                      09357 #define mulhi sfploc06+1
                      09358 
                      09359 
MPASM  5.37                        TARGET.ASM   2-2-2013  15:45:46         PAGE 216


LOC  OBJECT CODE     LINE SOURCE TEXT
  VALUE

                      09360 #define mout sfploc07+1
                      09361 
                      09362 
                      09363 #define util sfploc08+1
                      09364 
                      09365 
                      09366 #define neg sfploc09+1
                      09367 
                      09368 
                      09369 #define ein2 sfploc10+1
                      09370 
                      09371 
                      09372 #define min2 sfploc11+1
                      09373 
                      09374 
                      09375 #define ein sfploc12+1
                      09376 
                      09377 
                      09378 #define min sfploc13+1
                      09379 
                      09380 
                      09381 mulf0:
                      09382 #endif
                      09383 #endif
                      09384 
                      09385 
                      09386  
                      09387  POP
0000   0800               M  movfw INDF ; preserve the safety of this code under interruptible conditions. 
0001   0384               M  decf FSR,f 
                      09388 
                      09389  
0002   ???? ????      09390  banksel ein2
0004   00??           09391  movwf ein2 
0005   3A80           09392  xorlw .128 
0006   1D03           09393  btfss STATUS,Z
0007   2???           09394  goto hllTDAAA
0008   307F           09395  movlw .127     
                      09396  
0009   0500           09397  andwf HLINDF,w 
                      09398  
000A   1903           09399  btfsc STATUS,Z
000B   2???           09400  goto hllBEAAA
                      09401  
000C                  09402 hllTDAAA: 
                      09403 
                      09404  
                      09405  
000C   01??           09406  clrf neg 
                      09407  
                      09408  
                      09409  
                      09410  POP
MPASM  5.37                        TARGET.ASM   2-2-2013  15:45:46         PAGE 217


LOC  OBJECT CODE     LINE SOURCE TEXT
  VALUE

000D   0800               M  movfw INDF ; preserve the safety of this code under interruptible conditions. 
000E   0384               M  decf FSR,f 
                      09411 
                      09412  
000F   ???? ????      09413  banksel min2
0011   00??           09414  movwf min2 
0012   1B80           09415  btfsc min2,7
0013   1480           09416  bsf neg,1      
                      09417 
                      09418  
0014   1380           09419  bcf min2,7 
                      09420 
                      09421  POP
0015   0800               M  movfw INDF ; preserve the safety of this code under interruptible conditions. 
0016   0384               M  decf FSR,f 
                      09422 
0017   ???? ????      09423  banksel ein
0019   00??           09424  movwf ein
001A   3A80           09425  xorlw .128 
001B   1D03           09426  btfss STATUS,Z
001C   2???           09427  goto hllUDAAA
001D   307F           09428  movlw .127
                      09429 
001E   0500           09430  andwf HLINDF,w 
001F   1903           09431  btfsc STATUS,Z
0020   2???           09432  goto hllCEAAA
0021                  09433 hllUDAAA:
                      09434 
                      09435  POP
0021   0800               M  movfw INDF ; preserve the safety of this code under interruptible conditions. 
0022   0384               M  decf FSR,f 
                      09436 
                      09437  
0023   ???? ????      09438  banksel min
0025   00??           09439  movwf min 
0026   1B80           09440  btfsc min,7
0027   1400           09441  bsf neg,0
                      09442 
                      09443  
0028   1380           09444  bcf min,7 
                      09445  
                      09446  
                      09447  
0029   08??           09448  movfw ein 
                      09449 
                      09450  
002A   00??           09451  movwf util 
                      09452 
                      09453  
002B   08??           09454  movfw ein2 
                      09455 
                      09456  
002C   07??           09457  addwf util,f 
MPASM  5.37                        TARGET.ASM   2-2-2013  15:45:46         PAGE 218


LOC  OBJECT CODE     LINE SOURCE TEXT
  VALUE

                      09458  
                      09459  
002D   08??           09460  movfw min 
                      09461 
                      09462  
002E   3E80           09463  addlw .128 
                      09464 
                      09465  
                      09466  PUSH
002F   0A84               M  incf FSR,f ; The "incf" op serves as an allocator; it happens first so that interrupting
0030   0080               M  movwf INDF ; code of any sort will not overwrite the data. 
0031   ???? ????      09467  banksel min2
0033   08??           09468  movfw min2 
0034   3E80           09469  addlw .128 
                      09470 
                      09471  PUSH
0035   0A84               M  incf FSR,f ; The "incf" op serves as an allocator; it happens first so that interrupting
0036   0080               M  movwf INDF ; code of any sort will not overwrite the data. 
0037   2???           09472  goto hllEEAAA 
                      09473 
0038                  09474 hllVDAAA:
                      09475 
                      09476  
                      09477  POP
0038   0800               M  movfw INDF ; preserve the safety of this code under interruptible conditions. 
0039   0384               M  decf FSR,f 
                      09478 
                      09479 
003A   ???? ????      09480  banksel mout
003C   00??           09481  movwf mout 
                      09482 
                      09483  
003D   1F80           09484  btfss mout,7 
003E   2???           09485  goto hllWDAAA 
                      09486 
                      09487  
                      09488  POP
003F   0800               M  movfw INDF ; preserve the safety of this code under interruptible conditions. 
0040   0384               M  decf FSR,f 
                      09489 
                      09490  
0041   ???? ????      09491  banksel util
0043   0A??           09492  incf util,f 
                      09493 
                      09494 
                      09495  
0044   3980           09496  andlw .128 
0045   1D03           09497  btfss STATUS,Z
0046   0A??           09498  incf mout,f
                      09499 
0047   2???           09500  goto hllXDAAA 
                      09501 
                      09502 
MPASM  5.37                        TARGET.ASM   2-2-2013  15:45:46         PAGE 219


LOC  OBJECT CODE     LINE SOURCE TEXT
  VALUE

0048                  09503 hllWDAAA: 
                      09504 
                      09505  
                      09506  
                      09507  
                      09508  
                      09509  
                      09510 
                      09511  
0048   1003           09512  bcf STATUS,C 
                      09513 
                      09514  
                      09515  POP
0049   0800               M  movfw INDF ; preserve the safety of this code under interruptible conditions. 
004A   0384               M  decf FSR,f 
                      09516 
004B   ???? ????      09517  banksel savelsb
004D   00??           09518  movwf savelsb
                      09519  
                      09520  
004E   3980           09521  andlw .128 
004F   1D03           09522  btfss STATUS,Z 
0050   1403           09523  bsf STATUS,C 
                      09524 
                      09525  
                      09526  
0051   ???? ????      09527  banksel mout
0053   0D??           09528  rlf mout,f 
                      09529 
                      09530  
                      09531  
                      09532  
0054   08??           09533  movf savelsb,w
                      09534 
0055   ???? ????      09535  banksel mout
0057   3940           09536  andlw .64
0058   1D03           09537  btfss STATUS,Z
0059   0A??           09538  incf mout,f
                      09539  
                      09540 
                      09541 
005A                  09542 hllXDAAA: 
                      09543 
                      09544  
005A   08??           09545  movfw mout 
                      09546 
                      09547  
005B   3E80           09548  addlw -.128 
                      09549 
                      09550  
005C   00??           09551  movwf mout 
                      09552 
                      09553  
MPASM  5.37                        TARGET.ASM   2-2-2013  15:45:46         PAGE 220


LOC  OBJECT CODE     LINE SOURCE TEXT
  VALUE

005D   1800           09554  btfsc neg,0
005E   2???           09555  goto hllYDAAA 
005F   1C80           09556  btfss neg,1
0060   2???           09557  goto hllAEAAA 
0061   2???           09558  goto hllZDAAA 
0062                  09559 hllYDAAA: 
0062   1880           09560  btfsc neg,1
0063   2???           09561  goto hllAEAAA 
                      09562 
0064                  09563 hllZDAAA: 
                      09564 
                      09565  
0064   08??           09566  movfw mout 
                      09567 
                      09568  
0065   3880           09569  iorlw .128 
                      09570 
                      09571  
0066   00??           09572  movwf mout 
                      09573 
                      09574 
0067                  09575 hllAEAAA: 
                      09576 
                      09577  
0067   08??           09578  movfw mout 
                      09579 
                      09580  
                      09581  PUSH
0068   0A84               M  incf FSR,f ; The "incf" op serves as an allocator; it happens first so that interrupting
0069   0080               M  movwf INDF ; code of any sort will not overwrite the data. 
                      09582 
                      09583  
006A   ???? ????      09584  banksel util
006C   08??           09585  movfw util 
                      09586  PUSH
006D   0A84               M  incf FSR,f ; The "incf" op serves as an allocator; it happens first so that interrupting
006E   0080               M  movwf INDF ; code of any sort will not overwrite the data. 
                      09587  
006F   2???           09588  goto hllDEAAA 
                      09589 
0070                  09590 hllBEAAA: 
                      09591 
                      09592  POP
0070   0800               M  movfw INDF ; preserve the safety of this code under interruptible conditions. 
0071   0384               M  decf FSR,f 
                      09593  POP
0072   0800               M  movfw INDF ; preserve the safety of this code under interruptible conditions. 
0073   0384               M  decf FSR,f 
                      09594 
                      09595 
0074                  09596 hllCEAAA:
                      09597  POP
0074   0800               M  movfw INDF ; preserve the safety of this code under interruptible conditions. 
MPASM  5.37                        TARGET.ASM   2-2-2013  15:45:46         PAGE 221


LOC  OBJECT CODE     LINE SOURCE TEXT
  VALUE

0075   0384               M  decf FSR,f 
                      09598 
                      09599  
0076   3080           09600  movlw .128
                      09601  PUSH
0077   0A84               M  incf FSR,f ; The "incf" op serves as an allocator; it happens first so that interrupting
0078   0080               M  movwf INDF ; code of any sort will not overwrite the data. 
                      09602  PUSH
0079   0A84               M  incf FSR,f ; The "incf" op serves as an allocator; it happens first so that interrupting
007A   0080               M  movwf INDF ; code of any sort will not overwrite the data. 
                      09603 
                      09604  
                      09605  
007B                  09606 hllDEAAA:
                      09607  
007B   0008           09608  return
                      09609  
                      09610  
                      09611  
                      09612  
007C                  09613 hllEEAAA: 
                      09614 
                      09615  POP
007C   0800               M  movfw INDF ; preserve the safety of this code under interruptible conditions. 
007D   0384               M  decf FSR,f 
007E   ???? ????      09616  banksel factor1
0080   00??           09617  movwf factor1
                      09618 
                      09619  POP
0081   0800               M  movfw INDF ; preserve the safety of this code under interruptible conditions. 
0082   0384               M  decf FSR,f 
0083   ???? ????      09620  banksel factor2
0085   00??           09621  movwf factor2
                      09622 
                      09623 
                      09624  
0086   01??           09625  clrf hi_byte
                      09626  
0087   01??           09627  clrf make_mout
                      09628  
0088   01??           09629  clrf iterator
                      09630 
0089                  09631 hllFEAAA:
                      09632 
                      09633  
0089   1C00           09634  btfss factor1,0
008A   2???           09635  goto hllGEAAA
                      09636 
                      09637  
                      09638  
008B   08??           09639  movfw factor2
008C   07??           09640  addwf make_mout,f
                      09641 
MPASM  5.37                        TARGET.ASM   2-2-2013  15:45:46         PAGE 222


LOC  OBJECT CODE     LINE SOURCE TEXT
  VALUE

                      09642  
008D   1803           09643  btfsc STATUS,C
008E   0A??           09644  incf hi_byte,f
                      09645 
                      09646 
008F                  09647 hllGEAAA:
                      09648  
                      09649  
008F   1003           09650  bcf STATUS,C
0090   0C??           09651  rrf factor1,f
                      09652  
                      09653  
                      09654  
0091   1003           09655  bcf STATUS,C
0092   0C??           09656  rrf hi_byte,f
                      09657 
                      09658  
                      09659  
                      09660  
                      09661  
                      09662  
0093   0C??           09663  rrf make_mout,f
                      09664 
                      09665 
                      09666  
                      09667  
                      09668  
                      09669  
                      09670  
                      09671  
                      09672  
                      09673  
                      09674  
                      09675  
                      09676  
                      09677  
0094   1803           09678  btfsc STATUS,C
0095   1780           09679  bsf factor1,7 
                      09680 
                      09681 
0096   0A??           09682  incf iterator,f
                      09683 
                      09684 
0097   3008           09685  movlw .8
0098   06??           09686  xorwf iterator,w
0099   1D03           09687  btfss STATUS,Z
009A   2???           09688  goto hllFEAAA
                      09689 
                      09690  
009B   08??           09691  movfw factor1 
                      09692  PUSH
009C   0A84               M  incf FSR,f ; The "incf" op serves as an allocator; it happens first so that interrupting
009D   0080               M  movwf INDF ; code of any sort will not overwrite the data. 
MPASM  5.37                        TARGET.ASM   2-2-2013  15:45:46         PAGE 223


LOC  OBJECT CODE     LINE SOURCE TEXT
  VALUE

                      09693 
                      09694  
009E   ???? ????      09695  banksel make_mout
00A0   08??           09696  movfw make_mout
                      09697  PUSH
00A1   0A84               M  incf FSR,f ; The "incf" op serves as an allocator; it happens first so that interrupting
00A2   0080               M  movwf INDF ; code of any sort will not overwrite the data. 
                      09698 
00A3   2???           09699  goto hllVDAAA 
                      09700 
                      09701 
                      09702 
                      09703 
                      09704 
                      09705 #undefine savelsb
                      09706 
                      09707 
                      09708 #undefine iterator
                      09709 
                      09710 
                      09711 #undefine hi_byte
                      09712 
                      09713 
                      09714 #undefine make_mout
                      09715 
                      09716 
                      09717 #undefine factor2
                      09718 
                      09719 
                      09720 #undefine factor1
                      09721 
                      09722 
                      09723 #undefine mulhi
                      09724 
                      09725 
                      09726 #undefine mout
                      09727 
                      09728 
                      09729 #undefine util
                      09730 
                      09731 
                      09732 #undefine neg
                      09733 
                      09734 
                      09735 #undefine ein2
                      09736 
                      09737 
                      09738 #undefine min2
                      09739 
                      09740 
                      09741 #undefine ein
                      09742 
                      09743 
MPASM  5.37                        TARGET.ASM   2-2-2013  15:45:46         PAGE 224


LOC  OBJECT CODE     LINE SOURCE TEXT
  VALUE

                      09744 #undefine min
                      09745 
                      09746 
                      09747 
                      09748 
                      09749 
                      09750 
                      09751 
                      09752  
                      09753 
                      09754 
                      09755 
                      09756 sfp_uto CODE 
                      09757 
                      09758 
                      09759 
                      09760 #define arg1 sfploc00
                      09761 
                      09762 
0000                  09763 utof:  
                      09764 #ifdef HLLMULTITASK
                      09765 #ifdef HLLGUARDsfploc 
                      09766  movf in_isr,f  
                      09767  btfsc STATUS,Z
                      09768  
                      09769 
                      09770 
                      09771  goto utof0
                      09772 
                      09773  
                      09774  POP
                      09775  banksel arg1 
                      09776  movwf arg1
                      09777 
                      09778  btfss arg1,7
                      09779  goto mbww0 
                      09780  
                      09781  
                      09782  
                      09783 
                      09784  bcf arg1,7 
                      09785  movfw arg1 
                      09786  
                      09787  PUSH
                      09788 
                      09789 
                      09790  movlw .7
                      09791  PUSH
                      09792  
                      09793  goto ret101
                      09794 
                      09795 mbww0: 
                      09796  btfss arg1,6
MPASM  5.37                        TARGET.ASM   2-2-2013  15:45:46         PAGE 225


LOC  OBJECT CODE     LINE SOURCE TEXT
  VALUE

                      09797  goto mbww1 
                      09798 
                      09799 
                      09800  
                      09801  
                      09802 
                      09803  
                      09804  
                      09805  
                      09806 
                      09807  banksel arg1
                      09808  bcf arg1,6 
                      09809  bcf STATUS,C 
                      09810  rlf arg1,f
                      09811  movfw arg1
                      09812  PUSH
                      09813 
                      09814  movlw .6
                      09815  PUSH
                      09816  
                      09817  goto ret101
                      09818 mbww1: 
                      09819 
                      09820  btfss arg1,5
                      09821  goto mbww2
                      09822 
                      09823  banksel arg1
                      09824  bcf arg1,5 
                      09825  bcf STATUS,C 
                      09826  rlf arg1,f
                      09827  rlf arg1,f
                      09828  movfw arg1
                      09829  PUSH
                      09830 
                      09831  movlw .5
                      09832  PUSH
                      09833  
                      09834  goto ret101
                      09835 mbww2: 
                      09836 
                      09837  btfss arg1,4
                      09838  goto mbww3
                      09839 
                      09840 
                      09841  banksel arg1
                      09842  bcf arg1,4 
                      09843  bcf STATUS,C 
                      09844  rlf arg1,f
                      09845  rlf arg1,f
                      09846  rlf arg1,f
                      09847  movfw arg1
                      09848  PUSH
                      09849 
MPASM  5.37                        TARGET.ASM   2-2-2013  15:45:46         PAGE 226


LOC  OBJECT CODE     LINE SOURCE TEXT
  VALUE

                      09850  movlw .4
                      09851  PUSH
                      09852  
                      09853  goto ret101
                      09854 mbww3: 
                      09855 
                      09856  btfss arg1,3
                      09857  goto mbww4
                      09858 
                      09859  banksel arg1
                      09860  bcf arg1,3 
                      09861  bcf STATUS,C 
                      09862  rlf arg1,f
                      09863  rlf arg1,f
                      09864  rlf arg1,f
                      09865  rlf arg1,f
                      09866  movfw arg1
                      09867  PUSH
                      09868 
                      09869  movlw .3
                      09870  PUSH
                      09871  
                      09872  goto ret101
                      09873 
                      09874 mbww4: 
                      09875 
                      09876  btfss arg1,2
                      09877  goto mbww5
                      09878 
                      09879 
                      09880  banksel arg1
                      09881  bcf arg1,2 
                      09882  bcf STATUS,C 
                      09883  rlf arg1,f
                      09884  rlf arg1,f
                      09885  rlf arg1,f
                      09886  rlf arg1,f
                      09887  rlf arg1,f
                      09888  movfw arg1
                      09889  PUSH
                      09890 
                      09891 
                      09892  movlw .2
                      09893  PUSH
                      09894  
                      09895  goto ret101
                      09896 
                      09897 mbww5: 
                      09898 
                      09899  btfss arg1,1
                      09900  goto mbww6
                      09901 
                      09902  banksel arg1
MPASM  5.37                        TARGET.ASM   2-2-2013  15:45:46         PAGE 227


LOC  OBJECT CODE     LINE SOURCE TEXT
  VALUE

                      09903  bcf arg1,1 
                      09904  bcf STATUS,C 
                      09905  rlf arg1,f
                      09906  rlf arg1,f
                      09907  rlf arg1,f
                      09908  rlf arg1,f
                      09909  rlf arg1,f
                      09910  rlf arg1,f
                      09911  movfw arg1
                      09912  PUSH
                      09913 
                      09914  movlw .1
                      09915  PUSH
                      09916 
                      09917  goto ret101
                      09918 mbww6: 
                      09919  btfss arg1,0
                      09920  goto tis00
                      09921  movlw .0
                      09922  PUSH
                      09923 
                      09924  movlw .0
                      09925  PUSH
                      09926  
                      09927  goto ret101
                      09928 tis00:
                      09929  movlw .0
                      09930  PUSH
                      09931 
                      09932  movlw -.128
                      09933  PUSH
                      09934  
                      09935 ret101:
                      09936  
                      09937  return
                      09938 
                      09939 
                      09940 
                      09941 
                      09942 #undefine arg1
                      09943 
                      09944 
                      09945 #define arg1 sfploc00+1
                      09946 
                      09947 
                      09948 utof0:
                      09949 #endif
                      09950 #endif
                      09951 
                      09952  
                      09953  POP
0000   0800               M  movfw INDF ; preserve the safety of this code under interruptible conditions. 
0001   0384               M  decf FSR,f 
MPASM  5.37                        TARGET.ASM   2-2-2013  15:45:46         PAGE 228


LOC  OBJECT CODE     LINE SOURCE TEXT
  VALUE

0002   ???? ????      09954  banksel arg1 
0004   00??           09955  movwf arg1
                      09956 
0005   1F80           09957  btfss arg1,7
0006   2???           09958  goto hllHEAAA 
                      09959  
                      09960  
                      09961  
                      09962 
0007   1380           09963  bcf arg1,7 
0008   08??           09964  movfw arg1 
                      09965  
                      09966  PUSH
0009   0A84               M  incf FSR,f ; The "incf" op serves as an allocator; it happens first so that interrupting
000A   0080               M  movwf INDF ; code of any sort will not overwrite the data. 
                      09967 
                      09968 
000B   3007           09969  movlw .7
                      09970  PUSH
000C   0A84               M  incf FSR,f ; The "incf" op serves as an allocator; it happens first so that interrupting
000D   0080               M  movwf INDF ; code of any sort will not overwrite the data. 
                      09971  
000E   2???           09972  goto hllPEAAA
                      09973 
000F                  09974 hllHEAAA: 
000F   1F00           09975  btfss arg1,6
0010   2???           09976  goto hllIEAAA 
                      09977 
                      09978 
                      09979  
                      09980  
                      09981 
                      09982  
                      09983  
                      09984  
                      09985 
0011   ???? ????      09986  banksel arg1
0013   1300           09987  bcf arg1,6 
0014   1003           09988  bcf STATUS,C 
0015   0D??           09989  rlf arg1,f
0016   08??           09990  movfw arg1
                      09991  PUSH
0017   0A84               M  incf FSR,f ; The "incf" op serves as an allocator; it happens first so that interrupting
0018   0080               M  movwf INDF ; code of any sort will not overwrite the data. 
                      09992 
0019   3006           09993  movlw .6
                      09994  PUSH
001A   0A84               M  incf FSR,f ; The "incf" op serves as an allocator; it happens first so that interrupting
001B   0080               M  movwf INDF ; code of any sort will not overwrite the data. 
                      09995  
001C   2???           09996  goto hllPEAAA
001D                  09997 hllIEAAA: 
                      09998 
MPASM  5.37                        TARGET.ASM   2-2-2013  15:45:46         PAGE 229


LOC  OBJECT CODE     LINE SOURCE TEXT
  VALUE

001D   1E80           09999  btfss arg1,5
001E   2???           10000  goto hllJEAAA
                      10001 
001F   ???? ????      10002  banksel arg1
0021   1280           10003  bcf arg1,5 
0022   1003           10004  bcf STATUS,C 
0023   0D??           10005  rlf arg1,f
0024   0D??           10006  rlf arg1,f
0025   08??           10007  movfw arg1
                      10008  PUSH
0026   0A84               M  incf FSR,f ; The "incf" op serves as an allocator; it happens first so that interrupting
0027   0080               M  movwf INDF ; code of any sort will not overwrite the data. 
                      10009 
0028   3005           10010  movlw .5
                      10011  PUSH
0029   0A84               M  incf FSR,f ; The "incf" op serves as an allocator; it happens first so that interrupting
002A   0080               M  movwf INDF ; code of any sort will not overwrite the data. 
                      10012  
002B   2???           10013  goto hllPEAAA
002C                  10014 hllJEAAA: 
                      10015 
002C   1E00           10016  btfss arg1,4
002D   2???           10017  goto hllKEAAA
                      10018 
                      10019 
002E   ???? ????      10020  banksel arg1
0030   1200           10021  bcf arg1,4 
0031   1003           10022  bcf STATUS,C 
0032   0D??           10023  rlf arg1,f
0033   0D??           10024  rlf arg1,f
0034   0D??           10025  rlf arg1,f
0035   08??           10026  movfw arg1
                      10027  PUSH
0036   0A84               M  incf FSR,f ; The "incf" op serves as an allocator; it happens first so that interrupting
0037   0080               M  movwf INDF ; code of any sort will not overwrite the data. 
                      10028 
0038   3004           10029  movlw .4
                      10030  PUSH
0039   0A84               M  incf FSR,f ; The "incf" op serves as an allocator; it happens first so that interrupting
003A   0080               M  movwf INDF ; code of any sort will not overwrite the data. 
                      10031  
003B   2???           10032  goto hllPEAAA
003C                  10033 hllKEAAA: 
                      10034 
003C   1D80           10035  btfss arg1,3
003D   2???           10036  goto hllLEAAA
                      10037 
003E   ???? ????      10038  banksel arg1
0040   1180           10039  bcf arg1,3 
0041   1003           10040  bcf STATUS,C 
0042   0D??           10041  rlf arg1,f
0043   0D??           10042  rlf arg1,f
0044   0D??           10043  rlf arg1,f
MPASM  5.37                        TARGET.ASM   2-2-2013  15:45:46         PAGE 230


LOC  OBJECT CODE     LINE SOURCE TEXT
  VALUE

0045   0D??           10044  rlf arg1,f
0046   08??           10045  movfw arg1
                      10046  PUSH
0047   0A84               M  incf FSR,f ; The "incf" op serves as an allocator; it happens first so that interrupting
0048   0080               M  movwf INDF ; code of any sort will not overwrite the data. 
                      10047 
0049   3003           10048  movlw .3
                      10049  PUSH
004A   0A84               M  incf FSR,f ; The "incf" op serves as an allocator; it happens first so that interrupting
004B   0080               M  movwf INDF ; code of any sort will not overwrite the data. 
                      10050  
004C   2???           10051  goto hllPEAAA
                      10052 
004D                  10053 hllLEAAA: 
                      10054 
004D   1D00           10055  btfss arg1,2
004E   2???           10056  goto hllMEAAA
                      10057 
                      10058 
004F   ???? ????      10059  banksel arg1
0051   1100           10060  bcf arg1,2 
0052   1003           10061  bcf STATUS,C 
0053   0D??           10062  rlf arg1,f
0054   0D??           10063  rlf arg1,f
0055   0D??           10064  rlf arg1,f
0056   0D??           10065  rlf arg1,f
0057   0D??           10066  rlf arg1,f
0058   08??           10067  movfw arg1
                      10068  PUSH
0059   0A84               M  incf FSR,f ; The "incf" op serves as an allocator; it happens first so that interrupting
005A   0080               M  movwf INDF ; code of any sort will not overwrite the data. 
                      10069 
                      10070 
005B   3002           10071  movlw .2
                      10072  PUSH
005C   0A84               M  incf FSR,f ; The "incf" op serves as an allocator; it happens first so that interrupting
005D   0080               M  movwf INDF ; code of any sort will not overwrite the data. 
                      10073  
005E   2???           10074  goto hllPEAAA
                      10075 
005F                  10076 hllMEAAA: 
                      10077 
005F   1C80           10078  btfss arg1,1
0060   2???           10079  goto hllNEAAA
                      10080 
0061   ???? ????      10081  banksel arg1
0063   1080           10082  bcf arg1,1 
0064   1003           10083  bcf STATUS,C 
0065   0D??           10084  rlf arg1,f
0066   0D??           10085  rlf arg1,f
0067   0D??           10086  rlf arg1,f
0068   0D??           10087  rlf arg1,f
0069   0D??           10088  rlf arg1,f
MPASM  5.37                        TARGET.ASM   2-2-2013  15:45:46         PAGE 231


LOC  OBJECT CODE     LINE SOURCE TEXT
  VALUE

006A   0D??           10089  rlf arg1,f
006B   08??           10090  movfw arg1
                      10091  PUSH
006C   0A84               M  incf FSR,f ; The "incf" op serves as an allocator; it happens first so that interrupting
006D   0080               M  movwf INDF ; code of any sort will not overwrite the data. 
                      10092 
006E   3001           10093  movlw .1
                      10094  PUSH
006F   0A84               M  incf FSR,f ; The "incf" op serves as an allocator; it happens first so that interrupting
0070   0080               M  movwf INDF ; code of any sort will not overwrite the data. 
                      10095 
0071   2???           10096  goto hllPEAAA
0072                  10097 hllNEAAA: 
0072   1C00           10098  btfss arg1,0
0073   2???           10099  goto hllOEAAA
0074   3000           10100  movlw .0
                      10101  PUSH
0075   0A84               M  incf FSR,f ; The "incf" op serves as an allocator; it happens first so that interrupting
0076   0080               M  movwf INDF ; code of any sort will not overwrite the data. 
                      10102 
0077   3000           10103  movlw .0
                      10104  PUSH
0078   0A84               M  incf FSR,f ; The "incf" op serves as an allocator; it happens first so that interrupting
0079   0080               M  movwf INDF ; code of any sort will not overwrite the data. 
                      10105  
007A   2???           10106  goto hllPEAAA
007B                  10107 hllOEAAA:
007B   3000           10108  movlw .0
                      10109  PUSH
007C   0A84               M  incf FSR,f ; The "incf" op serves as an allocator; it happens first so that interrupting
007D   0080               M  movwf INDF ; code of any sort will not overwrite the data. 
                      10110 
007E   3080           10111  movlw -.128
                      10112  PUSH
007F   0A84               M  incf FSR,f ; The "incf" op serves as an allocator; it happens first so that interrupting
0080   0080               M  movwf INDF ; code of any sort will not overwrite the data. 
                      10113  
0081                  10114 hllPEAAA:
                      10115  
0081   0008           10116  return
                      10117 
                      10118 
                      10119 
                      10120 
                      10121 #undefine arg1
                      10122 
30C6                  10123  end
MPASM  5.37                        TARGET.ASM   2-2-2013  15:45:46         PAGE 232


SYMBOL TABLE
  LABEL                             VALUE 

ABDEN                             00000000
ABDOVF                            00000007
ADCON0                            0000001F
ADCON1                            0000009F
ADCS0                             00000004
ADCS1                             00000005
ADCS2                             00000006
ADDEN                             00000003
ADFM                              00000007
ADIE                              00000006
ADIF                              00000006
ADON                              00000000
ADRESH                            0000001E
ADRESL                            0000009E
ALT_Save                          0000000A
ANS0                              00000000
ANS1                              00000001
ANS10                             00000002
ANS11                             00000003
ANS2                              00000002
ANS3                              00000003
ANS4                              00000004
ANS5                              00000005
ANS6                              00000006
ANS7                              00000007
ANS8                              00000000
ANS9                              00000001
ANSEL                             0000011E
ANSELH                            0000011F
BAUDCTL                           0000009B
BF                                00000000
BRG0                              00000000
BRG1                              00000001
BRG10                             00000002
BRG11                             00000003
BRG12                             00000004
BRG13                             00000005
BRG14                             00000006
BRG15                             00000007
BRG16                             00000003
BRG2                              00000002
BRG3                              00000003
BRG4                              00000004
BRG5                              00000005
BRG6                              00000006
BRG7                              00000007
BRG8                              00000000
BRG9                              00000001
BRGH                              00000002
C                                 00000000
C1CH0                             00000000
C1CH1                             00000001
C1IE                              00000005
MPASM  5.37                        TARGET.ASM   2-2-2013  15:45:46         PAGE 233


SYMBOL TABLE
  LABEL                             VALUE 

C1IF                              00000005
C1OE                              00000005
C1ON                              00000007
C1OUT                             00000006
C1POL                             00000004
C1R                               00000002
C1SEN                             00000005
C1VREN                            00000007
C2CH0                             00000000
C2CH1                             00000001
C2IE                              00000006
C2IF                              00000006
C2OE                              00000005
C2ON                              00000007
C2OUT                             00000006
C2POL                             00000004
C2R                               00000002
C2REN                             00000004
C2SYNC                            00000000
C2VREN                            00000006
CCP1CON                           00000017
CCP1IE                            00000002
CCP1IF                            00000002
CCP1M0                            00000000
CCP1M1                            00000001
CCP1M2                            00000002
CCP1M3                            00000003
CCPR1H                            00000016
CCPR1L                            00000015
CHS0                              00000002
CHS1                              00000003
CHS2                              00000004
CHS3                              00000005
CKE                               00000006
CKP                               00000004
CM1CON0                           00000119
CM2CON0                           0000011A
CM2CON1                           0000011B
COPY                              
CREN                              00000004
CSRC                              00000007
D                                 00000005
DATA_ADDRESS                      00000005
DC                                00000001
DC1B0                             00000004
DC1B1                             00000005
DISCARD                           
D_A                               00000005
ECCPAS                            0000001D
ECCPAS0                           00000004
ECCPAS1                           00000005
ECCPAS2                           00000006
ECCPASE                           00000007
MPASM  5.37                        TARGET.ASM   2-2-2013  15:45:46         PAGE 234


SYMBOL TABLE
  LABEL                             VALUE 

EEADR                             0000010D
EEADRH                            0000010F
EECON1                            0000018C
EECON2                            0000018D
EEDAT                             0000010C
EEDATA                            0000010C
EEDATH                            0000010E
EEIE                              00000004
EEIF                              00000004
EEPGD                             00000007
ExitISR                           0000002C
F                                 00000001
FAR_CALL                          
FERR                              00000002
FSR                               00000004
FSR_Save                          00000009
GIE                               00000007
GO                                00000001
GO_DONE                           00000001
HALF_FAR_CALL                     
HLFSR                             FSR
HLINDF                            INDF
HLLGUARDhllblss                   
HLLMULTITASK                      
HLOE_STACK2_SIZE                  .80
HLOE_STACK_SIZE                   .80
HLTABLE                           
HTS                               00000002
I2C_DATA                          00000005
I2C_READ                          00000002
I2C_START                         00000003
I2C_STOP                          00000004
INDF                              00000000
INTCON                            0000000B
INTE                              00000004
INTEDG                            00000006
INTF                              00000001
IOC                               00000096
IOC0                              00000000
IOC1                              00000001
IOC2                              00000002
IOC3                              00000003
IOC4                              00000004
IOC5                              00000005
IOCA                              00000096
IOCA0                             00000000
IOCA1                             00000001
IOCA2                             00000002
IOCA3                             00000003
IOCA4                             00000004
IOCA5                             00000005
IOCB                              00000116
IOCB4                             00000004
MPASM  5.37                        TARGET.ASM   2-2-2013  15:45:46         PAGE 235


SYMBOL TABLE
  LABEL                             VALUE 

IOCB5                             00000005
IOCB6                             00000006
IOCB7                             00000007
IRCF0                             00000004
IRCF1                             00000005
IRCF2                             00000006
IRP                               00000007
ISR                               00000004
KDISCARD                          
KPOP                              
KPUSH                             
LTS                               00000001
MC1OUT                            00000007
MC2OUT                            00000006
MSK                               00000093
NOT_A                             00000005
NOT_ADDRESS                       00000005
NOT_BOR                           00000000
NOT_DONE                          00000001
NOT_PD                            00000003
NOT_POR                           00000001
NOT_RABPU                         00000007
NOT_T1SYNC                        00000002
NOT_TO                            00000004
NOT_W                             00000002
NOT_WRITE                         00000002
OERR                              00000001
OPTION_REG                        00000081
OSCCON                            0000008F
OSCTUNE                           00000090
OSFIE                             00000007
OSFIF                             00000007
OSTS                              00000003
P                                 00000004
P1M0                              00000006
P1M1                              00000007
PCL                               00000002
PCLATH                            0000000A
PCON                              0000008E
PC_Save                           00000002
PDC0                              00000000
PDC1                              00000001
PDC2                              00000002
PDC3                              00000003
PDC4                              00000004
PDC5                              00000005
PDC6                              00000006
PEIE                              00000006
PIE1                              0000008C
PIE2                              0000008D
PIR1                              0000000C
PIR2                              0000000D
POP                               
MPASM  5.37                        TARGET.ASM   2-2-2013  15:45:46         PAGE 236


SYMBOL TABLE
  LABEL                             VALUE 

PORTA                             00000005
PORTB                             00000006
PORTC                             00000007
PR2                               00000092
PREEMPT                           
PRSEN                             00000007
PS0                               00000000
PS1                               00000001
PS2                               00000002
PSA                               00000003
PSSAC0                            00000002
PSSAC1                            00000003
PSSBD0                            00000000
PSSBD1                            00000001
PSTRCON                           0000019D
PULSR                             00000002
PULSS                             00000003
PUSH                              
PWM1CON                           0000001C
R                                 00000002
RABIE                             00000003
RABIF                             00000000
RCIDL                             00000006
RCIE                              00000005
RCIF                              00000005
RCREG                             0000001A
RCSTA                             00000018
RD                                00000000
READ_WRITE                        00000002
RESUME                            
RP0                               00000005
RP1                               00000006
RX9                               00000006
RX9D                              00000000
R_W                               00000002
S                                 00000003
SBOREN                            00000004
SCKP                              00000004
SCS                               00000000
SENB                              00000003
SMP                               00000007
SPBRG                             00000099
SPBRGH                            0000009A
SPEN                              00000007
SR0                               00000006
SR1                               00000007
SRCON                             0000019E
SREN                              00000005
SSPADD                            00000093
SSPBUF                            00000013
SSPCON                            00000014
SSPEN                             00000005
SSPIE                             00000003
MPASM  5.37                        TARGET.ASM   2-2-2013  15:45:46         PAGE 237


SYMBOL TABLE
  LABEL                             VALUE 

SSPIF                             00000003
SSPM0                             00000000
SSPM1                             00000001
SSPM2                             00000002
SSPM3                             00000003
SSPMSK                            00000093
SSPOV                             00000006
SSPSTAT                           00000094
STATUS                            00000003
STATUS_Save                       00000008
STRA                              00000000
STRB                              00000001
STRC                              00000002
STRD                              00000003
STRSYNC                           00000004
SWDTEN                            00000000
SYNC                              00000004
T0CS                              00000005
T0IE                              00000005
T0IF                              00000002
T0SE                              00000004
T1CKPS0                           00000004
T1CKPS1                           00000005
T1CON                             00000010
T1GINV                            00000007
T1GSS                             00000001
T1IE                              00000000
T1IF                              00000000
T1OSCEN                           00000003
T2CKPS0                           00000000
T2CKPS1                           00000001
T2CON                             00000012
T2IE                              00000001
T2IF                              00000001
TMR0                              00000001
TMR1CS                            00000001
TMR1GE                            00000006
TMR1H                             0000000F
TMR1IE                            00000000
TMR1IF                            00000000
TMR1L                             0000000E
TMR1ON                            00000000
TMR2                              00000011
TMR2IE                            00000001
TMR2IF                            00000001
TMR2ON                            00000002
TOUTPS0                           00000003
TOUTPS1                           00000004
TOUTPS2                           00000005
TOUTPS3                           00000006
TRISA                             00000085
TRISA0                            00000000
TRISA1                            00000001
MPASM  5.37                        TARGET.ASM   2-2-2013  15:45:46         PAGE 238


SYMBOL TABLE
  LABEL                             VALUE 

TRISA2                            00000002
TRISA3                            00000003
TRISA4                            00000004
TRISA5                            00000005
TRISB                             00000086
TRISB4                            00000004
TRISB5                            00000005
TRISB6                            00000006
TRISB7                            00000007
TRISC                             00000087
TRISC0                            00000000
TRISC1                            00000001
TRISC2                            00000002
TRISC3                            00000003
TRISC4                            00000004
TRISC5                            00000005
TRISC6                            00000006
TRISC7                            00000007
TRMT                              00000001
TUN0                              00000000
TUN1                              00000001
TUN2                              00000002
TUN3                              00000003
TUN4                              00000004
TX9                               00000006
TX9D                              00000000
TXEN                              00000005
TXIE                              00000004
TXIF                              00000004
TXREG                             00000019
TXSTA                             00000098
TextA                             00000000
TextA2                            00000008
TextB                             00000000
TextB2                            00000008
TextC                             00000000
TextC2                            00000008
TextE                             00000000
TextE2                            00000008
UA                                00000001
ULPWUE                            00000005
VCFG                              00000006
VP6EN                             00000004
VR0                               00000000
VR1                               00000001
VR2                               00000002
VR3                               00000003
VRCON                             00000118
VRR                               00000005
W                                 00000000
WCOL                              00000007
WDTCON                            00000097
WDTPS0                            00000001
MPASM  5.37                        TARGET.ASM   2-2-2013  15:45:46         PAGE 239


SYMBOL TABLE
  LABEL                             VALUE 

WDTPS1                            00000002
WDTPS2                            00000003
WDTPS3                            00000004
WPU                               00000095
WPUA                              00000095
WPUA0                             00000000
WPUA1                             00000001
WPUA2                             00000002
WPUA4                             00000004
WPUA5                             00000005
WPUB                              00000115
WPUB4                             00000004
WPUB5                             00000005
WPUB6                             00000006
WPUB7                             00000007
WR                                00000001
WREN                              00000002
WRERR                             00000003
WUE                               00000001
W_Save                            00000007
Z                                 00000002
_BOR_NSLEEP                       00003EFF
_BOR_OFF                          00003CFF
_BOR_ON                           00003FFF
_BOR_SBODEN                       00003DFF
_CPD_OFF                          00003FFF
_CPD_ON                           00003F7F
_CP_OFF                           00003FFF
_CP_ON                            00003FBF
_EC_OSC                           00003FFB
_EXTRC                            00003FFF
_EXTRCIO                          00003FFE
_EXTRC_OSC_CLKOUT                 00003FFF
_EXTRC_OSC_NOCLKOUT               00003FFE
_FCMEN_OFF                        000037FF
_FCMEN_ON                         00003FFF
_HS_OSC                           00003FFA
_IESO_OFF                         00003BFF
_IESO_ON                          00003FFF
_INTOSC                           00003FFD
_INTOSCIO                         00003FFC
_INTRC_OSC_CLKOUT                 00003FFD
_INTRC_OSC_NOCLKOUT               00003FFC
_LP_OSC                           00003FF8
_MCLRE_OFF                        00003FDF
_MCLRE_ON                         00003FFF
_PWRTE_OFF                        00003FFF
_PWRTE_ON                         00003FEF
_WDT_OFF                          00003FF7
_WDT_ON                           00003FFF
_XT_OSC                           00003FF9
__16F690                          00000001
_hllkrna00_000C                   0000000C
MPASM  5.37                        TARGET.ASM   2-2-2013  15:45:46         PAGE 240


SYMBOL TABLE
  LABEL                             VALUE 

_hllkrna00_0018                   00000018
_hllkrna03_0005                   00000005
_hllkrna03_000C                   0000000C
_hllkrna04_000F                   0000000F
_hllkrna04_0011                   00000011
_hllkrna04_0022                   00000022
_hllkrna04_0024                   00000024
_hllkrna05_000F                   0000000F
_hllkrna05_0011                   00000011
_hllkrna05_0022                   00000022
_hllkrna05_0024                   00000024
_hllkrna08_0003                   00000003
_hllkrna08_0011                   00000011
_hllkrna09_0003                   00000003
_hllkrna09_0011                   00000011
_hllkrna10_0003                   00000003
_hllkrna10_0010                   00000010
_hllt4558_0163                    00000163
_hllt4558_0165                    00000165
_hllt4558_0173                    00000173
_hllt4558_0175                    00000175
aart00                            00000000
aart01                            00000001
aart02                            00000002
aartpr00                          00000000
add                               00000000
addf                              00000000
alt_fsr                           00000006
alt_stack                         00000000
andu                              00000000
bigbar                            00000000
clearbit                          00000000
clearbit0                         0000003E
cls                               00000000
cnt                               hllcntl
day                               00000000
dispose                           00000000
divf                              00000000
divu                              00000000
divu0                             00000016
dmm445                            00000011
eq                                00000000
ftou                              00000000
getch                             00000000
geth2                             00000002
geu                               00000000
geu0                              00000017
graphx                            00000000
gtf                               00000000
handler                           00000000
hllAAAAA                          00000027
hllABAAA                          00000035
hllABAAA_done                     00000036
MPASM  5.37                        TARGET.ASM   2-2-2013  15:45:46         PAGE 241


SYMBOL TABLE
  LABEL                             VALUE 

hllACAAA                          000000E0
hllADAAA                          00000026
hllAEAAA                          00000067
hllBAAAA                          00000031
hllBCAAA                          000000E5
hllBDAAA                          00000029
hllBEAAA                          00000070
hllCAAAA                          0000003D
hllCBAAA                          0000004A
hllCCAAA                          000000F2
hllCDAAA                          0000002C
hllCEAAA                          00000074
hllDAAAA                          00000047
hllDBAAA                          00000055
hllDCAAA                          000000FC
hllDDAAA                          0000002F
hllDEAAA                          0000007B
hllEAAAA                          0000004B
hllEBAAA                          00000057
hllECAAA                          000000FE
hllEDAAA                          00000032
hllEEAAA                          0000007C
hllFAAAA                          00000051
hllFBAAA                          00000062
hllFCAAA                          00000108
hllFDAAA                          00000035
hllFEAAA                          00000089
hllGAAAA                          00000058
hllGBAAA                          00000064
hllGCAAA                          00000115
hllGDAAA                          00000038
hllGEAAA                          0000008F
hllHAAAA                          0000005F
hllHBAAA                          0000006A
hllHCAAA                          0000002C
hllHDAAA                          00000038
hllHEAAA                          0000000F
hllIAAAA                          00000066
hllIBAAA                          0000006C
hllICAAA                          0000003A
hllIDAAA                          0000001C
hllIEAAA                          0000001D
hllJAAAA                          0000006D
hllJBAAA                          00000073
hllJCAAA                          00000046
hllJDAAA                          00000024
hllJEAAA                          0000002C
hllKAAAA                          00000074
hllKBAAA                          00000076
hllKCAAA                          00000061
hllKDAAA                          00000031
hllKEAAA                          0000003C
hllLAAAA                          00000076
MPASM  5.37                        TARGET.ASM   2-2-2013  15:45:46         PAGE 242


SYMBOL TABLE
  LABEL                             VALUE 

hllLBAAA                          00000083
hllLCAAA                          00000063
hllLDAAA                          00000037
hllLEAAA                          0000004D
hllMAAAA                          00000023
hllMBAAA                          00000087
hllMBAAAb                         000000B8
hllMCAAA                          00000065
hllMDAAA                          0000003C
hllMEAAA                          0000005F
hllNAAAA                          00000027
hllNBAAA                          00000090
hllNCAAA                          00000073
hllNDAAA                          00000047
hllNEAAA                          00000072
hllOAAAA                          0000004B
hllOBAAA                          0000009A
hllOCAAA                          0000007E
hllODAAA                          0000004D
hllOEAAA                          0000007B
hllPAAAA                          00000051
hllPBAAA                          0000009B
hllPCAAA                          00000080
hllPDAAA                          00000052
hllPEAAA                          00000081
hllQAAAA                          00000058
hllQBAAA                          0000009D
hllQCAAA                          00000082
hllQDAAA                          0000005E
hllRAAAA                          0000005F
hllRBAAA                          000000A4
hllRCAAA                          00000083
hllRDAAA                          00000066
hllSAAAA                          00000066
hllSBAAA                          000000A7
hllSCAAA                          00000084
hllSDAAA                          0000006D
hllTAAAA                          0000006D
hllTBAAA                          000000B4
hllTCAAA                          0000008E
hllTDAAA                          0000000C
hllUAAAA                          00000074
hllUCAAA                          00000094
hllUDAAA                          00000021
hllVAAAA                          00000076
hllVBAAA                          000000C1
hllVCAAA                          00000096
hllVDAAA                          00000038
hllWAAAA                          00000020
hllWBAAA                          000000CB
hllWCAAA                          00000099
hllWDAAA                          00000048
hllXAAAA                          00000024
MPASM  5.37                        TARGET.ASM   2-2-2013  15:45:46         PAGE 243


SYMBOL TABLE
  LABEL                             VALUE 

hllXBAAA                          000000CC
hllXCAAA                          0000000B
hllXDAAA                          0000005A
hllYAAAA                          00000025
hllYBAAA                          000000D1
hllYCAAA                          0000001B
hllYDAAA                          00000062
hllZAAAA                          00000027
hllZBAAA                          000000D8
hllZCAAA                          00000023
hllZDAAA                          00000064
hllblss00                         00000000
hllblss00isr                      00000001
hllblss01                         00000002
hllblss01isr                      00000003
hllblss02                         00000004
hllblss02isr                      00000005
hllcntl                           00000000
hlllb51J0                         00000125
hlllb51J1                         00000131
hlllb51J12                        0000001A
hlllb51J13                        0000002E
hlllb51J17                        0000001A
hlllb51J18                        0000002E
hlllb51J2                         0000018C
hlllb51J22                        0000001A
hlllb51J23                        0000002E
hlllb51J27                        0000001A
hlllb51J28                        0000002E
hlllb51J3                         0000018F
hlllb51J30                        00000057
hlllb51J31                        00000057
hlllb51J32                        00000072
hlllb51J33                        00000072
hlllb51J34                        0000008D
hlllb51J35                        0000008D
hlllb51J36                        000000A5
hlllb51J37                        000000A8
hlllb51J38                        000000FC
hlllb51J39                        000000FC
hlllb51J4                         000001D9
hlllb51J40                        00000127
hlllb51J41                        00000127
hlllb51J42                        000000FD
hlllb51J43                        00000127
hlllb51J44                        000000A9
hlllb51J45                        00000127
hlllb51J48                        000000F3
hlllb51J49                        000000F3
hlllb51J5                         000001D9
hlllb51J50                        000000C9
hlllb51J51                        000000F3
hlllb51J52                        0000009F
MPASM  5.37                        TARGET.ASM   2-2-2013  15:45:46         PAGE 244


SYMBOL TABLE
  LABEL                             VALUE 

hlllb51J53                        000000F3
hlllb51J54                        00000075
hlllb51J55                        000000F3
hlllb51J56                        0000004B
hlllb51J57                        000000F3
hlllb51J59                        00000012
hlllb51J6                         00000012
hlllb51J60                        00000012
hlllb51J7                         00000012
hllnotisr49                       0000002C
hllparmcore                       
hllprgen2                         00000013
hllprogend                        000001EA
hlluserprog                       00000000
hllwasnightl                      00000000
hloego                            00000000
in_isr                            0000000B
kpop                              00000000
kpush                             00000000
kspox5                            00000008
modu                              00000000
modu0                             00000016
mul                               00000000
mul0                              0000000F
mulf                              00000000
mxhbl                             0000000F
mxhbm                             00000013
negti                             00000000
night                             00000000
ourwait                           00000000
parm                              00000000
parm4                             00000033
pbase                             00000000
pbaseisr                          00000001
plotat                            00000000
printch                           00000000
printu                            00000000
putTextA                          00000000
putTextB                          00000000
putTextC                          00000000
putTextE                          00000000
putiTextA                         00000000
putiTextB                         00000000
putiTextC                         00000000
putiTextE                         00000000
safepush                          00000000
samplef                           00000000
setbit                            00000000
setbit0                           0000003E
sfpaux00                          00000001
sfpaux01                          00000003
sfpaux02                          00000005
sfpaux03                          00000007
MPASM  5.37                        TARGET.ASM   2-2-2013  15:45:46         PAGE 245


SYMBOL TABLE
  LABEL                             VALUE 

sfploc00                          00000000
sfploc01                          00000002
sfploc02                          00000004
sfploc03                          00000006
sfploc04                          00000008
sfploc05                          00000009
sfploc06                          0000000A
sfploc07                          0000000B
sfploc08                          0000000C
sfploc09                          0000000D
sfploc10                          0000000E
sfploc11                          0000000F
sfploc12                          00000010
sfploc13                          00000011
sfploc14                          00000012
sfploc15                          00000013
sfploc16                          00000014
sfploc17                          00000015
softstack0                        00000000
softstack0isr                     00000001
softstack1                        00000002
softstack1isr                     00000003
softstack2                        00000004
softstack2isr                     00000005
sperr11                           0000000F
stack                             00000000
tcf00h                            00000010
tcf01h                            00000016
tcf02h                            0000001D
tcf03h                            00000024
tcf04h                            0000002B
tcf05h                            00000032
tcf07h                            00000039
tcf99h                            0000003B
tff00h                            00000010
tff01h                            00000016
tff02h                            0000001D
tff03h                            00000024
tff04h                            0000002B
tff05h                            00000032
tff07h                            00000039
tff99h                            0000003B
utof                              00000000
wait_button                       00000000
wasnight                          hllwasnightl

Errors   :     0
Warnings :     0 reported,     0 suppressed
Messages :     0 reported,    27 suppressed

