MPASM  5.37                        TARGET.ASM   5-7-2015  11:29:00         PAGE  1


LOC  OBJECT CODE     LINE SOURCE TEXT
  VALUE

                      00001 
                      00002 #include "hloe.inc"
                      00001 
                      00002 
                      00003 #define HLLGUARDhllblss
                      00004 
                      00005 
                      00006 #define HLOE_STACK_SIZE .80
                      00007 #define HLOE_STACK2_SIZE .20
                      00008 
                      00009 
                      00010 #include <p16f1827.inc>
                      00001         LIST
                      00002 
                      00003 ;==========================================================================
                      00004 ;  MPASM PIC16F1827 processor include
                      00005 ; 
                      00006 ;  (c) Copyright 1999-2010 Microchip Technology, All rights reserved
                      00007 ;==========================================================================
                      00008 
                      01304         LIST
                      00011 #include <C:\Users\james.wilkinson\Downloads\frost\frostcompiler\kernel16f1827.inc>
                      00001 
                      00002 PUSH macro ;Push to the main stack for the programmer's parms and dyn. data;
                      00003  movwi ++INDF0
                      00004  endm
                      00005  
                      00006 POP macro ;Pop from main stack; "decf" is the de-allocator and thus happens last to 
                      00007  moviw INDF0-- ; preserve the safety of this code under interruptible conditions. 
                      00008  endm
                      00009  
                      00010 DISCARD macro ;Remove items from the main stack and throw them away w/o affecting W
                      00011  decf FSR0L,f 
                      00012  endm
                      00013 
                      00014 COPY macro ;Duplicate stack top
                      00015  movfw INDF0
                      00016  incf FSR0L,f 
                      00017  movwf INDF0 
                      00018  endm
                      00019 
                      00020 #define HLFSR FSR0L
                      00021  
                      00022 #define HLINDF INDF0
                      00023 
                      00024 KPUSH macro
                      00025  movwi ++INDF1
                      00026  endm
                      00027  
                      00028 KPOP macro 
                      00029  moviw INDF1--
                      00030  endm 
                      00031 
MPASM  5.37                        TARGET.ASM   5-7-2015  11:29:00         PAGE  2


LOC  OBJECT CODE     LINE SOURCE TEXT
  VALUE

                      00032 KDISCARD macro ;Remove items from stack 2 and throw them away w/o affecting W
                      00033  decf FSR1L,f 
                      00034  endm
                      00035 
                      00036 FAR_CALL macro caller_os,func_os ;Call destination residing within a different code page
                      00037  pagesel func_os
                      00038  call func_os
                      00039  pagesel caller_os
                      00040  endm
                      00041 
                      00042 ;Call destination residing within a different code page... does not restore the caller's
                      00043 ; code page after return, which may be OK (e.g. if the next operation is another 'Far'
                      00044 ; function call). 
                      00045 HALF_FAR_CALL macro func_os 
                      00046  pagesel func_os        
                      00047  call func_os
                      00048  endm
                      00049 
                      00050 ;These are simple shifts, similar to << or >> in C, not rotates. Newer PICs include
                      00051 ; a native shift instruction that shifts in zeroes like << and >>. Older devices 
                      00052 ; can only rotate bits through the C register, requiring an extra instruction to
                      00053 ; clear C in cases where a simple shift is needed.
                      00054 LSHIFT macro file_reg
                      00055  lslf file_reg,f
                      00056  endm 
                      00057 
                      00058 RSHIFT macro file_reg
                      00059  lsrf file_reg,f
                      00060  endm 
                      00061  
                      00062 PREEMPT macro
                      00063 #ifdef HLLMULTITASK 
                      00064  incf in_isr,f
                      00065  pagesel ISR
                      00066  movf FSR0L,w           ;Restore "softstacks" if main thread was using 2nd stack
                      00067  movf softstack0,f
                      00068  btfss STATUS,Z   
                      00069  movf softstack0,w  
                      00070  movwf FSR0L          
                      00071 #endif 
                      00072  endm
                      00073 
                      00074 RESUME macro
                      00075 #ifdef HLLMULTITASK 
                      00076  clrf in_isr
                      00077 #endif
                      00078  endm
                      00079  
                      00080 ; Table macro.. this followed by any series of RETLW calls
                      00081 ; transforms said call list into a function that takes an offset
                      00082 ; and returns that entry in the table (takes 1 byte, returns 1
                      00083 ; byte... this goes atop the HLL feature which allows generation 
                      00084 ; of tables. It can also go atop RETLW tables entered into assembly 
MPASM  5.37                        TARGET.ASM   5-7-2015  11:29:00         PAGE  3


LOC  OBJECT CODE     LINE SOURCE TEXT
  VALUE

                      00085 ; files in a very basic fashion when doing assembly programming. In 
                      00086 ; either case, the overall result can be called exactly as if it were any 
                      00087 ; other HLOE function
                      00088 HLTABLE macro mmnme
                      00089 mmnme:
                      00090  movlw high mmnme#v(2) ; Necess. b/c writes to PCL take 5 bits fr. PCLATH
                      00091  movwf PCLATH ; and PAGESEL doesn't take care of all 5
                      00092  movlw low mmnme#v(2) ; Perform pointer arithmetic
                      00093  addwf INDF0,w 
                      00094  decf FSR0L,f
                      00095  btfsc STATUS,C ; Necess. b/c writes to PCL take 5 bits fr. PCLATH
                      00096  incf PCLATH,f 
                      00097  movwf PCL 
                      00098 mmnme#v(2): 
                      00099  ;retlw K, retlw K, etc. go here
                      00100  endm
                      00101  
                      00003 
8007   C9A4           00004  __config  _CONFIG1,_WDTE_OFF  & _BOREN_OFF & _FOSC_INTOSC & _PWRTE_OFF & _MCLRE_OFF & _CLKOUTEN_OFF & _
                            IESO_OFF & _FCMEN_OFF
8008   FFFF           00005  __config  _CONFIG2,_PLLEN_ON & _STVREN_ON
                      00006 
                      00007 
                      00008 
                      00009 Resetv code 0 
0000   138B           00010  bcf INTCON,GIE
0001   3180           00011  pagesel hloego
0002   2???           00012  goto hloego
                      00013  
                      00014 #ifdef HLLMULTITASK
                      00015 vectr code 4     ;Device specific
                      00016 ISR:
                      00017 
                      00018 
                      00019  PREEMPT
                      00020 #endif
                      00021 
                      00022 
                      00023 
                      00024 
                      00025 
                      00026 
                      00027 
                      00028 #ifdef HLLMULTITASK
                      00029 ExitISR:    
                      00030  
                      00031  RESUME
                      00032  
                      00033  retfie
                      00034 #endif
                      00035 
                      00036 mainvars udata_shr      
                      00037 #ifdef HLLMULTITASK
MPASM  5.37                        TARGET.ASM   5-7-2015  11:29:00         PAGE  4


LOC  OBJECT CODE     LINE SOURCE TEXT
  VALUE

                      00038 pbase res .1                    ; Used for functions w/ numbered pass/return, to clean up parms/push arg
                            s
                      00039 pbaseisr res .1 
                      00040 #else
0000                  00041 pbase res .1
                      00042 #endif
                      00043 
                      00044 main code
0000                  00045 hloego:
                      00046 
0000   01??           00047   clrf in_isr
                      00048  
0001   30??           00049   movlw LOW (stack-1)           ;Set up stack starting position based on literals det. by incremental li
                            nker
0002   0084           00050   movwf FSR0L 
0003   30??           00051   movlw HIGH (stack-1)
0004   0085           00052   movwf FSR0H
                      00053  
                      00054   
0005   30??           00055  movlw LOW (alt_stack-1)
0006   0086           00056  movwf FSR1L
0007   30??           00057  movlw HIGH (alt_stack-1)
0008   0087           00058  movwf FSR1H
                      00059  
                      00060  
0009   01??           00061  clrf softstack0 
                      00062  
                      00063  
000A   3180           00064  pagesel hlluserprog
000B   2???           00065  goto hlluserprog
                      00066 
                      00067 hllupuser CODE
0000                  00068 hlluserprog: 
                      00069  
                      00070 
0000   3070           00071  movlw .112 
                      00072  PUSH 
0001   0018               M  movwi ++INDF0
                      00073 
                      00074 
0002   30F7           00075  movlw .247 
                      00076  PUSH 
0003   0018               M  movwi ++INDF0
                      00077 
0004   0021           00078    banksel OSCCON
0005   0819           00079    movfw OSCCON
                      00080    
                      00081    
                      00082  PUSH 
0006   0018               M  movwi ++INDF0
                      00083 
                      00084 
                      00085  
MPASM  5.37                        TARGET.ASM   5-7-2015  11:29:00         PAGE  5


LOC  OBJECT CODE     LINE SOURCE TEXT
  VALUE

                      00086  HALF_FAR_CALL andu
0007   3180               M  pagesel andu           
0008   2???               M  call andu
                      00087 
                      00088 
                      00089  
                      00090  FAR_CALL hlluserprog,oru
0009   3180               M  pagesel oru
000A   2???               M  call oru
000B   3180               M  pagesel hlluserprog
                      00091 
                      00092  POP
000C   0013               M  moviw INDF0-- ; preserve the safety of this code under interruptible conditions. 
000D   0021           00093  banksel OSCCON
000E   0099           00094  movwf OSCCON
                      00095  
                      00096 
                      00097 
000F   3004           00098  movlw CREN
                      00099 
                      00100  PUSH 
0010   0018               M  movwi ++INDF0
                      00101 
0011   0023           00102    banksel RCSTA
0012   081D           00103    movfw RCSTA
                      00104    
                      00105    
                      00106  PUSH 
0013   0018               M  movwi ++INDF0
                      00107 
                      00108 
                      00109  
                      00110  FAR_CALL hlluserprog,setbit
0014   3180               M  pagesel setbit
0015   2???               M  call setbit
0016   3180               M  pagesel hlluserprog
                      00111 
                      00112  POP
0017   0013               M  moviw INDF0-- ; preserve the safety of this code under interruptible conditions. 
0018   0023           00113  banksel RCSTA
0019   009D           00114  movwf RCSTA
                      00115  
                      00116 
                      00117 
001A   3002           00118  movlw BRGH
                      00119 
                      00120  PUSH 
001B   0018               M  movwi ++INDF0
                      00121 
001C   0023           00122    banksel TXSTA
001D   081E           00123    movfw TXSTA
                      00124    
                      00125    
MPASM  5.37                        TARGET.ASM   5-7-2015  11:29:00         PAGE  6


LOC  OBJECT CODE     LINE SOURCE TEXT
  VALUE

                      00126  PUSH 
001E   0018               M  movwi ++INDF0
                      00127 
                      00128 
                      00129  
                      00130  FAR_CALL hlluserprog,setbit
001F   3180               M  pagesel setbit
0020   2???               M  call setbit
0021   3180               M  pagesel hlluserprog
                      00131 
                      00132  POP
0022   0013               M  moviw INDF0-- ; preserve the safety of this code under interruptible conditions. 
0023   0023           00133  banksel TXSTA
0024   009E           00134  movwf TXSTA
                      00135  
                      00136 
                      00137 
0025   3003           00138  movlw BRG16
                      00139 
                      00140  PUSH 
0026   0018               M  movwi ++INDF0
                      00141 
0027   0023           00142    banksel BAUDCON
0028   081F           00143    movfw BAUDCON
                      00144    
                      00145    
                      00146  PUSH 
0029   0018               M  movwi ++INDF0
                      00147 
                      00148 
                      00149  
                      00150  FAR_CALL hlluserprog,setbit
002A   3180               M  pagesel setbit
002B   2???               M  call setbit
002C   3180               M  pagesel hlluserprog
                      00151 
                      00152  POP
002D   0013               M  moviw INDF0-- ; preserve the safety of this code under interruptible conditions. 
002E   0023           00153  banksel BAUDCON
002F   009F           00154  movwf BAUDCON
                      00155  
                      00156 
                      00157 
0030   3044           00158  movlw .68 
                      00159  
0031   0023           00160  banksel SPBRG
0032   009B           00161  movwf SPBRG
                      00162  
                      00163 
                      00164 
0033   3000           00165  movlw .0 
                      00166  
0034   0023           00167  banksel SPBRGH
MPASM  5.37                        TARGET.ASM   5-7-2015  11:29:00         PAGE  7


LOC  OBJECT CODE     LINE SOURCE TEXT
  VALUE

0035   009C           00168  movwf SPBRGH
                      00169  
                      00170 
                      00171 
0036   3006           00172  movlw TX9
                      00173 
                      00174  PUSH 
0037   0018               M  movwi ++INDF0
                      00175 
                      00176 
0038   3005           00177  movlw TXEN
                      00178 
                      00179  PUSH 
0039   0018               M  movwi ++INDF0
                      00180 
                      00181 
003A   3004           00182  movlw SYNC
                      00183 
                      00184  PUSH 
003B   0018               M  movwi ++INDF0
                      00185 
003C   0023           00186    banksel TXSTA
003D   081E           00187    movfw TXSTA
                      00188    
                      00189    
                      00190  PUSH 
003E   0018               M  movwi ++INDF0
                      00191 
                      00192 
                      00193  
                      00194  HALF_FAR_CALL clearbit
003F   3180               M  pagesel clearbit       
0040   2???               M  call clearbit
                      00195 
                      00196 
                      00197  
                      00198  HALF_FAR_CALL setbit
0041   3180               M  pagesel setbit         
0042   2???               M  call setbit
                      00199 
                      00200 
                      00201  
                      00202  FAR_CALL hlluserprog,clearbit
0043   3180               M  pagesel clearbit
0044   2???               M  call clearbit
0045   3180               M  pagesel hlluserprog
                      00203 
                      00204  POP
0046   0013               M  moviw INDF0-- ; preserve the safety of this code under interruptible conditions. 
0047   0023           00205  banksel TXSTA
0048   009E           00206  movwf TXSTA
                      00207  
                      00208 
MPASM  5.37                        TARGET.ASM   5-7-2015  11:29:00         PAGE  8


LOC  OBJECT CODE     LINE SOURCE TEXT
  VALUE

                      00209 
0049   3004           00210  movlw SCKP
                      00211 
                      00212  PUSH 
004A   0018               M  movwi ++INDF0
                      00213 
004B   0023           00214    banksel BAUDCON
004C   081F           00215    movfw BAUDCON
                      00216    
                      00217    
                      00218  PUSH 
004D   0018               M  movwi ++INDF0
                      00219 
                      00220 
                      00221  
                      00222  FAR_CALL hlluserprog,setbit
004E   3180               M  pagesel setbit
004F   2???               M  call setbit
0050   3180               M  pagesel hlluserprog
                      00223 
                      00224  POP
0051   0013               M  moviw INDF0-- ; preserve the safety of this code under interruptible conditions. 
0052   0023           00225  banksel BAUDCON
0053   009F           00226  movwf BAUDCON
                      00227  
                      00228 
                      00229 
0054   3007           00230  movlw SPEN
                      00231 
                      00232  PUSH 
0055   0018               M  movwi ++INDF0
                      00233 
0056   0023           00234    banksel RCSTA
0057   081D           00235    movfw RCSTA
                      00236    
                      00237    
                      00238  PUSH 
0058   0018               M  movwi ++INDF0
                      00239 
                      00240 
                      00241  
                      00242  FAR_CALL hlluserprog,setbit
0059   3180               M  pagesel setbit
005A   2???               M  call setbit
005B   3180               M  pagesel hlluserprog
                      00243 
                      00244  POP
005C   0013               M  moviw INDF0-- ; preserve the safety of this code under interruptible conditions. 
005D   0023           00245  banksel RCSTA
005E   009D           00246  movwf RCSTA
                      00247  
                      00248 
                      00249 
MPASM  5.37                        TARGET.ASM   5-7-2015  11:29:00         PAGE  9


LOC  OBJECT CODE     LINE SOURCE TEXT
  VALUE

005F   3005           00250  movlw .5 
                      00251  PUSH 
0060   0018               M  movwi ++INDF0
                      00252 
0061   0021           00253    banksel TRISB
0062   080D           00254    movfw TRISB
                      00255    
                      00256    
                      00257  PUSH 
0063   0018               M  movwi ++INDF0
                      00258 
                      00259 
                      00260  
                      00261  FAR_CALL hlluserprog,clearbit
0064   3180               M  pagesel clearbit
0065   2???               M  call clearbit
0066   3180               M  pagesel hlluserprog
                      00262 
                      00263  POP
0067   0013               M  moviw INDF0-- ; preserve the safety of this code under interruptible conditions. 
0068   0021           00264  banksel TRISB
0069   008D           00265  movwf TRISB
                      00266  
                      00267 
                      00268 
006A   3005           00269  movlw .5 
                      00270  PUSH 
006B   0018               M  movwi ++INDF0
                      00271 
006C   0023           00272    banksel ANSELB
006D   080D           00273    movfw ANSELB
                      00274    
                      00275    
                      00276  PUSH 
006E   0018               M  movwi ++INDF0
                      00277 
                      00278 
                      00279  
                      00280  FAR_CALL hlluserprog,clearbit
006F   3180               M  pagesel clearbit
0070   2???               M  call clearbit
0071   3180               M  pagesel hlluserprog
                      00281 
                      00282  POP
0072   0013               M  moviw INDF0-- ; preserve the safety of this code under interruptible conditions. 
0073   0023           00283  banksel ANSELB
0074   008D           00284  movwf ANSELB
                      00285  
                      00286 
                      00287 
0075   3000           00288  movlw TXCKSEL
                      00289 
                      00290  PUSH 
MPASM  5.37                        TARGET.ASM   5-7-2015  11:29:00         PAGE 10


LOC  OBJECT CODE     LINE SOURCE TEXT
  VALUE

0076   0018               M  movwi ++INDF0
                      00291 
0077   0022           00292    banksel APFCON1
0078   081E           00293    movfw APFCON1
                      00294    
                      00295    
                      00296  PUSH 
0079   0018               M  movwi ++INDF0
                      00297 
                      00298 
                      00299  
                      00300  FAR_CALL hlluserprog,setbit
007A   3180               M  pagesel setbit
007B   2???               M  call setbit
007C   3180               M  pagesel hlluserprog
                      00301 
                      00302  POP
007D   0013               M  moviw INDF0-- ; preserve the safety of this code under interruptible conditions. 
007E   0022           00303  banksel APFCON1
007F   009E           00304  movwf APFCON1
                      00305  
                      00306 
                      00307 
0080   300D           00308  movlw .13
                      00309  PUSH 
0081   0018               M  movwi ++INDF0
                      00310 
                      00311 
                      00312  
                      00313  FAR_CALL hlluserprog,printch
0082   3180               M  pagesel printch
0083   2???               M  call printch
0084   3180               M  pagesel hlluserprog
                      00314 
                      00315 
0085   300A           00316  movlw .10
                      00317  PUSH 
0086   0018               M  movwi ++INDF0
                      00318 
                      00319 
                      00320  
                      00321  FAR_CALL hlluserprog,printch
0087   3180               M  pagesel printch
0088   2???               M  call printch
0089   3180               M  pagesel hlluserprog
                      00322 
                      00323 
008A   30F4           00324  movlw .244
                      00325  
                      00326 
                      00327 
                      00328  PUSH 
008B   0018               M  movwi ++INDF0
MPASM  5.37                        TARGET.ASM   5-7-2015  11:29:00         PAGE 11


LOC  OBJECT CODE     LINE SOURCE TEXT
  VALUE

                      00329 
                      00330 
008C   3013           00331  movlw .19
                      00332  
                      00333 
                      00334  PUSH 
008D   0018               M  movwi ++INDF0
                      00335 
                      00336 
008E   3010           00337  movlw .16
                      00338  
                      00339 
                      00340 
                      00341  PUSH 
008F   0018               M  movwi ++INDF0
                      00342 
                      00343 
0090   3003           00344  movlw .3
                      00345  
                      00346 
                      00347  PUSH 
0091   0018               M  movwi ++INDF0
                      00348 
                      00349 
                      00350  
                      00351  HALF_FAR_CALL divf
0092   3180               M  pagesel divf           
0093   2???               M  call divf
                      00352 
                      00353 
                      00354  
                      00355  FAR_CALL hlluserprog,printf
0094   3180               M  pagesel printf
0095   2???               M  call printf
0096   3180               M  pagesel hlluserprog
                      00356 
                      00357     
0097                  00358 hllprogend:
0097   2???           00359  goto hllprogend
                      00360  
0098                  00361 hllprgen2:
0098   2???           00362  goto hllprgen2
                      00363  
                      00364 
                      00365 
                      00366 
                      00367 
                      00368 
                      00369  
                      00370 
                      00371  
                      00372 hlog1h CODE
0000                  00373 andu: 
MPASM  5.37                        TARGET.ASM   5-7-2015  11:29:00         PAGE 12


LOC  OBJECT CODE     LINE SOURCE TEXT
  VALUE

                      00374  POP
0000   0013               M  moviw INDF0-- ; preserve the safety of this code under interruptible conditions. 
0001   0500           00375  andwf HLINDF,w
0002   0384           00376  decf HLFSR,f 
                      00377  PUSH
0003   0018               M  movwi ++INDF0
0004   0008           00378  return
                      00379  
                      00380 
                      00381 
                      00382 
                      00383 
                      00384 
                      00385 
                      00386 
                      00387  
                      00388 
                      00389 
                      00390 hlog1a CODE
                      00391 
                      00392 
                      00393 
                      00394 #define margp2 hllblss00
                      00395 
                      00396 
0000                  00397 clearbit:  
                      00398 #ifdef HLLMULTITASK
                      00399 #ifdef HLLGUARDhllblss 
                      00400  movf in_isr,f  
                      00401  btfsc STATUS,Z
                      00402  
                      00403 
                      00404 
                      00405  goto clearbit0
                      00406 
                      00407  POP
                      00408  banksel margp2
                      00409  movwf margp2
                      00410  POP 
                      00411  xorlw .0
                      00412  btfss STATUS,Z
                      00413  goto tff00h
                      00414  
                      00415  movfw margp2
                      00416  andlw .255-.1
                      00417  goto tff99h
                      00418 tff00h: 
                      00419  
                      00420  xorlw .1
                      00421  btfss STATUS,Z
                      00422  goto tff01h
                      00423  
                      00424  movfw margp2
MPASM  5.37                        TARGET.ASM   5-7-2015  11:29:00         PAGE 13


LOC  OBJECT CODE     LINE SOURCE TEXT
  VALUE

                      00425  andlw .255-.2
                      00426  goto tff99h
                      00427 tff01h: 
                      00428  xorlw .1
                      00429  xorlw .2
                      00430  btfss STATUS,Z
                      00431  goto tff02h
                      00432  
                      00433  movfw margp2
                      00434  andlw .255-.4
                      00435  goto tff99h
                      00436 tff02h: 
                      00437  xorlw .2
                      00438  xorlw .3
                      00439  btfss STATUS,Z
                      00440  goto tff03h
                      00441  
                      00442  movfw margp2
                      00443  andlw .255-.8
                      00444  goto tff99h
                      00445 tff03h: 
                      00446  xorlw .3
                      00447  xorlw .4
                      00448  btfss STATUS,Z
                      00449  goto tff04h
                      00450  
                      00451  movfw margp2
                      00452  andlw .255-.16
                      00453  goto tff99h
                      00454 tff04h: 
                      00455  xorlw .4
                      00456  xorlw .5
                      00457  btfss STATUS,Z
                      00458  goto tff05h
                      00459  
                      00460  movfw margp2
                      00461  andlw .255-.32
                      00462  goto tff99h
                      00463 tff05h: 
                      00464  xorlw .5
                      00465  xorlw .6
                      00466  btfss STATUS,Z
                      00467  goto tff07h
                      00468  
                      00469  movfw margp2
                      00470  andlw .255-.64
                      00471  goto tff99h
                      00472 tff07h: 
                      00473  
                      00474  movfw margp2
                      00475  andlw .255-.128
                      00476 tff99h:  
                      00477  PUSH
MPASM  5.37                        TARGET.ASM   5-7-2015  11:29:00         PAGE 14


LOC  OBJECT CODE     LINE SOURCE TEXT
  VALUE

                      00478  return
                      00479 
                      00480 
                      00481 
                      00482 
                      00483 #undefine margp2
                      00484 
                      00485 
                      00486 #define margp2 hllblss00+1
                      00487 
                      00488 
                      00489 clearbit0:
                      00490 #endif
                      00491 #endif
                      00492 
                      00493  POP
0000   0013               M  moviw INDF0-- ; preserve the safety of this code under interruptible conditions. 
0001   002?           00494  banksel margp2
0002   00??           00495  movwf margp2
                      00496  POP 
0003   0013               M  moviw INDF0-- ; preserve the safety of this code under interruptible conditions. 
0004   3A00           00497  xorlw .0
0005   1D03           00498  btfss STATUS,Z
0006   2???           00499  goto hllAAAAA
                      00500  
0007   08??           00501  movfw margp2
0008   39FE           00502  andlw .255-.1
0009   2???           00503  goto hllHAAAA
000A                  00504 hllAAAAA: 
                      00505  
000A   3A01           00506  xorlw .1
000B   1D03           00507  btfss STATUS,Z
000C   2???           00508  goto hllBAAAA
                      00509  
000D   08??           00510  movfw margp2
000E   39FD           00511  andlw .255-.2
000F   2???           00512  goto hllHAAAA
0010                  00513 hllBAAAA: 
0010   3A01           00514  xorlw .1
0011   3A02           00515  xorlw .2
0012   1D03           00516  btfss STATUS,Z
0013   2???           00517  goto hllCAAAA
                      00518  
0014   08??           00519  movfw margp2
0015   39FB           00520  andlw .255-.4
0016   2???           00521  goto hllHAAAA
0017                  00522 hllCAAAA: 
0017   3A02           00523  xorlw .2
0018   3A03           00524  xorlw .3
0019   1D03           00525  btfss STATUS,Z
001A   2???           00526  goto hllDAAAA
                      00527  
001B   08??           00528  movfw margp2
MPASM  5.37                        TARGET.ASM   5-7-2015  11:29:00         PAGE 15


LOC  OBJECT CODE     LINE SOURCE TEXT
  VALUE

001C   39F7           00529  andlw .255-.8
001D   2???           00530  goto hllHAAAA
001E                  00531 hllDAAAA: 
001E   3A03           00532  xorlw .3
001F   3A04           00533  xorlw .4
0020   1D03           00534  btfss STATUS,Z
0021   2???           00535  goto hllEAAAA
                      00536  
0022   08??           00537  movfw margp2
0023   39EF           00538  andlw .255-.16
0024   2???           00539  goto hllHAAAA
0025                  00540 hllEAAAA: 
0025   3A04           00541  xorlw .4
0026   3A05           00542  xorlw .5
0027   1D03           00543  btfss STATUS,Z
0028   2???           00544  goto hllFAAAA
                      00545  
0029   08??           00546  movfw margp2
002A   39DF           00547  andlw .255-.32
002B   2???           00548  goto hllHAAAA
002C                  00549 hllFAAAA: 
002C   3A05           00550  xorlw .5
002D   3A06           00551  xorlw .6
002E   1D03           00552  btfss STATUS,Z
002F   2???           00553  goto hllGAAAA
                      00554  
0030   08??           00555  movfw margp2
0031   39BF           00556  andlw .255-.64
0032   2???           00557  goto hllHAAAA
0033                  00558 hllGAAAA: 
                      00559  
0033   08??           00560  movfw margp2
0034   397F           00561  andlw .255-.128
0035                  00562 hllHAAAA:  
                      00563  PUSH
0035   0018               M  movwi ++INDF0
0036   0008           00564  return
                      00565 
                      00566 
                      00567 
                      00568 
                      00569 #undefine margp2
                      00570 
                      00571 
                      00572 
                      00573 
                      00574 
                      00575 
                      00576 
                      00577  
                      00578 
                      00579 
                      00580 
MPASM  5.37                        TARGET.ASM   5-7-2015  11:29:00         PAGE 16


LOC  OBJECT CODE     LINE SOURCE TEXT
  VALUE

                      00581 ukrnl2 UDATA
0000                  00582 stack res HLOE_STACK_SIZE
                      00583  
                      00584 ukrnl3 UDATA 
0000                  00585 alt_stack res HLOE_STACK2_SIZE
                      00586  
                      00587 
                      00588 
                      00589 ukernl udata 
                      00590 
                      00591 
                      00592 
                      00593 
                      00594 
0000                  00595 hllblss00 res 1           
                      00596 #ifdef HLLMULTITASK
                      00597 #ifdef HLLGUARDhllblss
                      00598 hllblss00isr res 1      
                      00599 #endif
                      00600 #endif
                      00601 
0001                  00602 hllblss01 res 1    
                      00603 #ifdef HLLMULTITASK
                      00604 #ifdef HLLGUARDhllblss
                      00605 hllblss01isr res 1      
                      00606 #endif
                      00607 #endif
                      00608 
0002                  00609 hllblss02 res 1    
                      00610 #ifdef HLLMULTITASK
                      00611 #ifdef HLLGUARDhllblss
                      00612 hllblss02isr res 1      
                      00613 #endif
                      00614 #endif
                      00615   
                      00616 ukrshr udata_shr
                      00617 
                      00618 
0000                  00619 softstack0 res 1                
                      00620 #ifdef HLLMULTITASK
                      00621 softstack0isr res 1
                      00622 #endif
                      00623 
0001                  00624 softstack1 res 1                
                      00625 #ifdef HLLMULTITASK
                      00626 softstack1isr res 1
                      00627 #endif
                      00628 
0002                  00629 softstack2 res 1                
                      00630 #ifdef HLLMULTITASK
                      00631 softstack2isr res 1
                      00632 #endif
                      00633 
MPASM  5.37                        TARGET.ASM   5-7-2015  11:29:00         PAGE 17


LOC  OBJECT CODE     LINE SOURCE TEXT
  VALUE

0003                  00634 alt_fsr res 1
0004                  00635 W_Save res 1 
0005                  00636 STATUS_Save res 1
0006                  00637 FSR_Save res 1
0007                  00638 ALT_Save res 1
0008                  00639 in_isr res 1
                      00640 
                      00641 hllkrna00 CODE
                      00642 
                      00643  
                      00644 
                      00645 
                      00646 #define mterm hllblss00
                      00647 
                      00648 
0000                  00649 mul:  
                      00650 #ifdef HLLMULTITASK
                      00651 #ifdef HLLGUARDhllblss 
                      00652  movf in_isr,f  
                      00653  btfsc STATUS,Z
                      00654  
                      00655 
                      00656 
                      00657  goto mul0
                      00658 
                      00659  POP
                      00660  banksel mterm 
                      00661  movwf mterm
                      00662  clrw 
                      00663  addwf HLINDF,w 
                      00664  decf mterm,f 
                      00665  btfss STATUS,Z 
                      00666  goto $-3
                      00667  movwf HLINDF
                      00668  return
                      00669 
                      00670 
                      00671 
                      00672 #undefine mterm
                      00673 
                      00674 
                      00675 #define mterm hllblss00+1
                      00676 
                      00677 
                      00678 mul0:
                      00679 #endif
                      00680 #endif
                      00681 
                      00682  POP
0000   0013               M  moviw INDF0-- ; preserve the safety of this code under interruptible conditions. 
0001   002?           00683  banksel mterm 
0002   00??           00684  movwf mterm
0003   0103           00685  clrw 
MPASM  5.37                        TARGET.ASM   5-7-2015  11:29:00         PAGE 18


LOC  OBJECT CODE     LINE SOURCE TEXT
  VALUE

0004   0700           00686  addwf HLINDF,w 
0005   03??           00687  decf mterm,f 
0006   1D03           00688  btfss STATUS,Z 
0007   2???           00689  goto $-3
0008   0080           00690  movwf HLINDF
0009   0008           00691  return
                      00692 
                      00693 
                      00694 
                      00695 #undefine mterm
                      00696 hllkrna01 CODE
                      00697 
0000                  00698 add: 
                      00699  POP
0000   0013               M  moviw INDF0-- ; preserve the safety of this code under interruptible conditions. 
0001   0700           00700  addwf HLINDF,w
0002   0384           00701  decf HLFSR,f 
                      00702  PUSH
0003   0018               M  movwi ++INDF0
0004   0008           00703  return
                      00704  
                      00705 hllkrna02 CODE 
                      00706 
0000                  00707 negti:  
0000   0980           00708  comf HLINDF,f
0001   0A80           00709  incf HLINDF,f
0002   0008           00710  return
                      00711  
                      00712 hllkrna03 CODE 
                      00713  
0000                  00714 printch:
                      00715  POP
0000   0013               M  moviw INDF0-- ; preserve the safety of this code under interruptible conditions. 
                      00716 #ifdef HLLMULTITASK 
                      00717  
                      00718  banksel PIR1
                      00719  btfss PIR1,TXIF  
                      00720  goto $-1 
                      00721 #endif 
                      00722  
0001   0023           00723  banksel TXREG
0002   009A           00724  movwf TXREG  
                      00725  
0003   0020           00726  banksel PIR1
0004   1E11           00727  btfss PIR1,TXIF  
0005   2???           00728  goto $-1  
0006   0008           00729  return  
                      00730 
                      00731 
                      00732 
                      00733 
                      00734 hllkrna04 CODE
                      00735  
MPASM  5.37                        TARGET.ASM   5-7-2015  11:29:00         PAGE 19


LOC  OBJECT CODE     LINE SOURCE TEXT
  VALUE

                      00736 
                      00737 
                      00738 #define mterm hllblss00
                      00739 
                      00740 
                      00741 #define mdiv hllblss01
                      00742 
                      00743 
                      00744 #define mquot hllblss02
                      00745 
                      00746 
0000                  00747 modu:  
                      00748 #ifdef HLLMULTITASK
                      00749 #ifdef HLLGUARDhllblss 
                      00750  movf in_isr,f  
                      00751  btfsc STATUS,Z
                      00752  
                      00753 
                      00754 
                      00755  goto modu0
                      00756 
                      00757  banksel mquot 
                      00758  clrf mquot
                      00759  POP
                      00760  movwf mdiv
                      00761  POP
                      00762  movwf mterm
                      00763  movfw mdiv
                      00764  subwf mterm,f
                      00765  btfss STATUS,C 
                      00766  goto $+3
                      00767  incf mquot,f 
                      00768  goto $-4
                      00769  addwf mterm,w
                      00770  PUSH
                      00771  return 
                      00772 
                      00773 
                      00774 
                      00775 #undefine mterm
                      00776 
                      00777 
                      00778 #undefine mdiv
                      00779 
                      00780 
                      00781 #undefine mquot
                      00782 
                      00783 
                      00784 #define mterm hllblss00+1
                      00785 
                      00786 
                      00787 #define mdiv hllblss01+1
                      00788 
MPASM  5.37                        TARGET.ASM   5-7-2015  11:29:00         PAGE 20


LOC  OBJECT CODE     LINE SOURCE TEXT
  VALUE

                      00789 
                      00790 #define mquot hllblss02+1
                      00791 
                      00792 
                      00793 modu0:
                      00794 #endif
                      00795 #endif
                      00796 
0000   002?           00797  banksel mquot 
0001   01??           00798  clrf mquot
                      00799  POP
0002   0013               M  moviw INDF0-- ; preserve the safety of this code under interruptible conditions. 
0003   00??           00800  movwf mdiv
                      00801  POP
0004   0013               M  moviw INDF0-- ; preserve the safety of this code under interruptible conditions. 
0005   00??           00802  movwf mterm
0006   08??           00803  movfw mdiv
0007   02??           00804  subwf mterm,f
0008   1C03           00805  btfss STATUS,C 
0009   2???           00806  goto $+3
000A   0A??           00807  incf mquot,f 
000B   2???           00808  goto $-4
000C   07??           00809  addwf mterm,w
                      00810  PUSH
000D   0018               M  movwi ++INDF0
000E   0008           00811  return 
                      00812 
                      00813 
                      00814 
                      00815 #undefine mterm
                      00816 
                      00817 
                      00818 #undefine mdiv
                      00819 
                      00820 
                      00821 #undefine mquot
                      00822 hllkrna05 CODE
                      00823 
                      00824 
                      00825 
                      00826 #define mterm hllblss00
                      00827 
                      00828 
                      00829 #define mdiv hllblss01
                      00830 
                      00831 
                      00832 #define mquot hllblss02
                      00833 
                      00834 
0000                  00835 divu:  
                      00836 #ifdef HLLMULTITASK
                      00837 #ifdef HLLGUARDhllblss 
                      00838  movf in_isr,f  
MPASM  5.37                        TARGET.ASM   5-7-2015  11:29:00         PAGE 21


LOC  OBJECT CODE     LINE SOURCE TEXT
  VALUE

                      00839  btfsc STATUS,Z
                      00840  
                      00841 
                      00842 
                      00843  goto divu0
                      00844 
                      00845  banksel mquot 
                      00846  clrf mquot
                      00847  POP
                      00848  movwf mdiv
                      00849  POP
                      00850  movwf mterm
                      00851  movfw mdiv
                      00852  subwf mterm,f
                      00853  btfss STATUS,C 
                      00854  goto $+3
                      00855  incf mquot,f 
                      00856  goto $-4
                      00857  movfw mquot
                      00858  PUSH
                      00859  return 
                      00860 
                      00861 
                      00862 
                      00863 #undefine mterm
                      00864 
                      00865 
                      00866 #undefine mdiv
                      00867 
                      00868 
                      00869 #undefine mquot
                      00870 
                      00871 
                      00872 #define mterm hllblss00+1
                      00873 
                      00874 
                      00875 #define mdiv hllblss01+1
                      00876 
                      00877 
                      00878 #define mquot hllblss02+1
                      00879 
                      00880 
                      00881 divu0:
                      00882 #endif
                      00883 #endif
                      00884 
0000   002?           00885  banksel mquot 
0001   01??           00886  clrf mquot
                      00887  POP
0002   0013               M  moviw INDF0-- ; preserve the safety of this code under interruptible conditions. 
0003   00??           00888  movwf mdiv
                      00889  POP
0004   0013               M  moviw INDF0-- ; preserve the safety of this code under interruptible conditions. 
MPASM  5.37                        TARGET.ASM   5-7-2015  11:29:00         PAGE 22


LOC  OBJECT CODE     LINE SOURCE TEXT
  VALUE

0005   00??           00890  movwf mterm
0006   08??           00891  movfw mdiv
0007   02??           00892  subwf mterm,f
0008   1C03           00893  btfss STATUS,C 
0009   2???           00894  goto $+3
000A   0A??           00895  incf mquot,f 
000B   2???           00896  goto $-4
000C   08??           00897  movfw mquot
                      00898  PUSH
000D   0018               M  movwi ++INDF0
000E   0008           00899  return 
                      00900 
                      00901 
                      00902 
                      00903 #undefine mterm
                      00904 
                      00905 
                      00906 #undefine mdiv
                      00907 
                      00908 
                      00909 #undefine mquot
                      00910 hllkrna06 CODE
                      00911 
                      00912  
                      00913  
                      00914  
0000                  00915 getch:
0000   0020           00916  banksel PIR1
0001                  00917 geth2: 
0001   1E91           00918  btfss PIR1,RCIF
0002   2???           00919  goto geth2
0003   0023           00920  banksel RCREG
0004   0819           00921  movf RCREG,w
                      00922  PUSH 
0005   0018               M  movwi ++INDF0
0006   0008           00923  return
                      00924  
                      00925 hllkrna07 CODE 
                      00926  
0000                  00927 eq: 
                      00928  POP 
0000   0013               M  moviw INDF0-- ; preserve the safety of this code under interruptible conditions. 
0001   0600           00929  xorwf HLINDF,w
0002   3001           00930  movlw .1 
0003   1D03           00931  btfss STATUS,Z
0004   3000           00932  movlw .0 
0005   0384           00933  decf HLFSR,f 
                      00934  PUSH 
0006   0018               M  movwi ++INDF0
0007   0008           00935  return
                      00936  
                      00937  
                      00938  
MPASM  5.37                        TARGET.ASM   5-7-2015  11:29:00         PAGE 23


LOC  OBJECT CODE     LINE SOURCE TEXT
  VALUE

                      00939 
                      00940 #define sstack0 softstack0 
                      00941 #define sstack1 softstack1 
                      00942 #define sstack2 softstack2 
                      00943 
                      00944 hllparmcore macro 
                      00945  movwf sstack2
                      00946  movfw HLFSR 
                      00947            
                      00948                    
                      00949  movwf sstack0
                      00950  movfw HLINDF
                      00951  
                      00952  subwf sstack2,w
                      00953  movwf HLFSR 
                      00954  movfw HLINDF 
                      00955  
                      00956  movwf sstack1
                      00957  
                      00958  movfw sstack0
                      00959  movwf HLFSR 
                      00960  clrf sstack0
                      00961  movfw sstack1 
                      00962  movwf HLINDF
                      00963  
                      00964  movfw sstack2
                      00965  pagesel kpush
                      00966  goto kpush 
                      00967  endm
                      00968 
                      00969  
                      00970 hllkrna08 CODE  
0000                  00971 parm:
                      00972  KPOP 
0000   0017               M  moviw INDF1--
                      00973  
                      00974 #ifdef HLLMULTITASK 
                      00975  movf in_isr,f 
                      00976  btfss STATUS,Z
                      00977  goto parm4
                      00978  hllparmcore
                      00979 #undefine sstack0 
                      00980 #undefine sstack1
                      00981 #undefine sstack2 
                      00982 #define sstack0 softstack0+1
                      00983 #define sstack1 softstack1+1
                      00984 #define sstack2 softstack2+1
                      00985 parm4:
                      00986 #endif 
                      00987  hllparmcore
0001   00??               M  movwf sstack2
0002   0804               M  movfw HLFSR 
                          M            
MPASM  5.37                        TARGET.ASM   5-7-2015  11:29:00         PAGE 24


LOC  OBJECT CODE     LINE SOURCE TEXT
  VALUE

                          M                    
0003   00??               M  movwf sstack0
0004   0800               M  movfw HLINDF
                          M  
0005   02??               M  subwf sstack2,w
0006   0084               M  movwf HLFSR 
0007   0800               M  movfw HLINDF 
                          M  
0008   00??               M  movwf sstack1
                          M  
0009   08??               M  movfw sstack0
000A   0084               M  movwf HLFSR 
000B   01??               M  clrf sstack0
000C   08??               M  movfw sstack1 
000D   0080               M  movwf HLINDF
                          M  
000E   08??               M  movfw sstack2
000F   3180               M  pagesel kpush
0010   2???               M  goto kpush 
                      00988 #undefine sstack0 
                      00989 #undefine sstack1
                      00990 #undefine sstack2 
                      00991  
                      00992 hllkrna09 CODE  
0000                  00993 kpop: 
                      00994  KPOP
0000   0017               M  moviw INDF1--
0001   0008           00995  return 
                      00996  
                      00997 hllkrna10 CODE   
0000                  00998 kpush: 
                      00999  KPUSH
0000   001C               M  movwi ++INDF1
0001   0008           01000  return
                      01001 
                      01002 hllkrna11 CODE   
0000                  01003 dispose:
                      01004  DISCARD
0000   0384               M  decf FSR0L,f 
0001   0008           01005  return 
                      01006  
                      01007  
                      01008 
                      01009 
                      01010 
                      01011 
                      01012 
                      01013 
                      01014  
                      01015  
                      01016 
                      01017  
                      01018 hlog1d CODE
MPASM  5.37                        TARGET.ASM   5-7-2015  11:29:00         PAGE 25


LOC  OBJECT CODE     LINE SOURCE TEXT
  VALUE

                      01019 
0000                  01020 oru: 
                      01021  POP
0000   0013               M  moviw INDF0-- ; preserve the safety of this code under interruptible conditions. 
0001   0400           01022  iorwf HLINDF,w
0002   0384           01023  decf HLFSR,f 
                      01024  PUSH
0003   0018               M  movwi ++INDF0
0004   0008           01025  return
                      01026 
                      01027  
                      01028 
                      01029 
                      01030 
                      01031 
                      01032 
                      01033  
                      01034  
                      01035 
                      01036  
                      01037 hlog1b CODE
                      01038 
                      01039 
                      01040 #define margp2 hllblss00
                      01041 
                      01042 
0000                  01043 setbit:  
                      01044 #ifdef HLLMULTITASK
                      01045 #ifdef HLLGUARDhllblss 
                      01046  movf in_isr,f  
                      01047  btfsc STATUS,Z
                      01048  
                      01049 
                      01050 
                      01051  goto setbit0
                      01052 
                      01053  POP
                      01054  banksel margp2
                      01055  movwf  margp2
                      01056  POP
                      01057  xorlw .0
                      01058  btfss STATUS,Z
                      01059  goto tcf00h
                      01060  
                      01061  movfw  margp2
                      01062  iorlw .1
                      01063  goto tcf99h
                      01064 tcf00h: 
                      01065  
                      01066  xorlw .1
                      01067  btfss STATUS,Z
                      01068  goto tcf01h
                      01069  
MPASM  5.37                        TARGET.ASM   5-7-2015  11:29:00         PAGE 26


LOC  OBJECT CODE     LINE SOURCE TEXT
  VALUE

                      01070  movfw  margp2
                      01071  iorlw .2
                      01072  goto tcf99h
                      01073 tcf01h: 
                      01074  xorlw .1
                      01075  xorlw .2
                      01076  btfss STATUS,Z
                      01077  goto tcf02h
                      01078  
                      01079  movfw margp2
                      01080  iorlw .4
                      01081  goto tcf99h
                      01082 tcf02h: 
                      01083  xorlw .2
                      01084  xorlw .3
                      01085  btfss STATUS,Z
                      01086  goto tcf03h
                      01087  
                      01088  movfw margp2
                      01089  iorlw .8
                      01090  goto tcf99h
                      01091 tcf03h: 
                      01092  xorlw .3
                      01093  xorlw .4
                      01094  btfss STATUS,Z
                      01095  goto tcf04h
                      01096  
                      01097  movfw margp2
                      01098  iorlw .16
                      01099  goto tcf99h
                      01100 tcf04h: 
                      01101  xorlw .4
                      01102  xorlw .5
                      01103  btfss STATUS,Z
                      01104  goto tcf05h
                      01105  
                      01106  movfw margp2
                      01107  iorlw .32
                      01108  goto tcf99h
                      01109 tcf05h: 
                      01110  xorlw .5
                      01111  xorlw .6
                      01112  btfss STATUS,Z
                      01113  goto tcf07h
                      01114  
                      01115  movfw margp2
                      01116  iorlw .64
                      01117  goto tcf99h
                      01118 tcf07h: 
                      01119  
                      01120  movfw margp2
                      01121  iorlw .128 
                      01122 tcf99h:  
MPASM  5.37                        TARGET.ASM   5-7-2015  11:29:00         PAGE 27


LOC  OBJECT CODE     LINE SOURCE TEXT
  VALUE

                      01123  PUSH 
                      01124  return
                      01125 
                      01126 
                      01127 
                      01128 
                      01129 #undefine margp2
                      01130 
                      01131 
                      01132 #define margp2 hllblss00+1
                      01133 
                      01134 
                      01135 setbit0:
                      01136 #endif
                      01137 #endif
                      01138 
                      01139  POP
0000   0013               M  moviw INDF0-- ; preserve the safety of this code under interruptible conditions. 
0001   002?           01140  banksel margp2
0002   00??           01141  movwf  margp2
                      01142  POP
0003   0013               M  moviw INDF0-- ; preserve the safety of this code under interruptible conditions. 
0004   3A00           01143  xorlw .0
0005   1D03           01144  btfss STATUS,Z
0006   2???           01145  goto hllIAAAA
                      01146  
0007   08??           01147  movfw  margp2
0008   3801           01148  iorlw .1
0009   2???           01149  goto hllPAAAA
000A                  01150 hllIAAAA: 
                      01151  
000A   3A01           01152  xorlw .1
000B   1D03           01153  btfss STATUS,Z
000C   2???           01154  goto hllJAAAA
                      01155  
000D   08??           01156  movfw  margp2
000E   3802           01157  iorlw .2
000F   2???           01158  goto hllPAAAA
0010                  01159 hllJAAAA: 
0010   3A01           01160  xorlw .1
0011   3A02           01161  xorlw .2
0012   1D03           01162  btfss STATUS,Z
0013   2???           01163  goto hllKAAAA
                      01164  
0014   08??           01165  movfw margp2
0015   3804           01166  iorlw .4
0016   2???           01167  goto hllPAAAA
0017                  01168 hllKAAAA: 
0017   3A02           01169  xorlw .2
0018   3A03           01170  xorlw .3
0019   1D03           01171  btfss STATUS,Z
001A   2???           01172  goto hllLAAAA
                      01173  
MPASM  5.37                        TARGET.ASM   5-7-2015  11:29:00         PAGE 28


LOC  OBJECT CODE     LINE SOURCE TEXT
  VALUE

001B   08??           01174  movfw margp2
001C   3808           01175  iorlw .8
001D   2???           01176  goto hllPAAAA
001E                  01177 hllLAAAA: 
001E   3A03           01178  xorlw .3
001F   3A04           01179  xorlw .4
0020   1D03           01180  btfss STATUS,Z
0021   2???           01181  goto hllMAAAA
                      01182  
0022   08??           01183  movfw margp2
0023   3810           01184  iorlw .16
0024   2???           01185  goto hllPAAAA
0025                  01186 hllMAAAA: 
0025   3A04           01187  xorlw .4
0026   3A05           01188  xorlw .5
0027   1D03           01189  btfss STATUS,Z
0028   2???           01190  goto hllNAAAA
                      01191  
0029   08??           01192  movfw margp2
002A   3820           01193  iorlw .32
002B   2???           01194  goto hllPAAAA
002C                  01195 hllNAAAA: 
002C   3A05           01196  xorlw .5
002D   3A06           01197  xorlw .6
002E   1D03           01198  btfss STATUS,Z
002F   2???           01199  goto hllOAAAA
                      01200  
0030   08??           01201  movfw margp2
0031   3840           01202  iorlw .64
0032   2???           01203  goto hllPAAAA
0033                  01204 hllOAAAA: 
                      01205  
0033   08??           01206  movfw margp2
0034   3880           01207  iorlw .128 
0035                  01208 hllPAAAA:  
                      01209  PUSH 
0035   0018               M  movwi ++INDF0
0036   0008           01210  return
                      01211 
                      01212 
                      01213 
                      01214 
                      01215 #undefine margp2
                      01216 
                      01217 
                      01218 
                      01219 
                      01220 sfpu UDATA
                      01221  
                      01222  
                      01223  
                      01224  
0000                  01225 sfploc00 res .1
MPASM  5.37                        TARGET.ASM   5-7-2015  11:29:00         PAGE 29


LOC  OBJECT CODE     LINE SOURCE TEXT
  VALUE

0001                  01226 sfpaux00 res .1
                      01227 
                      01228 #ifdef HLLMULTITASK   
                      01229 #ifdef HLLGUARDsfploc
                      01230 sfploc00isr res .1
                      01231 sfpaux00isr res .1
                      01232 #endif
                      01233 #endif
                      01234 
0002                  01235 sfploc01 res .1
0003                  01236 sfpaux01 res .1
                      01237 
                      01238 #ifdef HLLMULTITASK
                      01239 #ifdef HLLGUARDsfploc
                      01240 sfploc01isr res .1
                      01241 sfpaux01isr res .1
                      01242 #endif
                      01243 #endif
                      01244 
                      01245 
0004                  01246 sfploc02 res .1
0005                  01247 sfpaux02 res .1
                      01248 
                      01249 #ifdef HLLMULTITASK
                      01250 #ifdef HLLGUARDsfploc
                      01251 sfploc02isr res .1
                      01252 sfpaux02isr res .1
                      01253 #endif
                      01254 #endif
                      01255 
                      01256 
0006                  01257 sfploc03 res .1
0007                  01258 sfpaux03 res .1
                      01259 
                      01260 #ifdef HLLMULTITASK
                      01261 #ifdef HLLGUARDsfploc
                      01262 sfploc03isr res .1
                      01263 sfpaux03isr res .1
                      01264 #endif
                      01265 #endif
                      01266 
                      01267 
0008                  01268 sfploc04 res .1
                      01269 
                      01270 #ifdef HLLMULTITASK
                      01271 #ifdef HLLGUARDsfploc
                      01272 sfploc04isr res .1
                      01273 #endif
                      01274 #endif
                      01275 
                      01276 
0009                  01277 sfploc05 res .1
                      01278 
MPASM  5.37                        TARGET.ASM   5-7-2015  11:29:00         PAGE 30


LOC  OBJECT CODE     LINE SOURCE TEXT
  VALUE

                      01279 #ifdef HLLMULTITASK
                      01280 #ifdef HLLGUARDsfploc
                      01281 sfploc05isr res .1
                      01282 #endif
                      01283 #endif
                      01284 
                      01285 
000A                  01286 sfploc06 res .1
                      01287 
                      01288 #ifdef HLLMULTITASK
                      01289 #ifdef HLLGUARDsfploc
                      01290 sfploc06isr res .1
                      01291 #endif
                      01292 #endif
                      01293 
                      01294 
000B                  01295 sfploc07 res .1
                      01296 
                      01297 #ifdef HLLMULTITASK
                      01298 #ifdef HLLGUARDsfploc
                      01299 sfploc07isr res .1
                      01300 #endif
                      01301 #endif
                      01302 
                      01303 
000C                  01304 sfploc08 res .1
                      01305 
                      01306 #ifdef HLLMULTITASK
                      01307 #ifdef HLLGUARDsfploc
                      01308 sfploc08isr res .1
                      01309 #endif
                      01310 #endif
                      01311 
                      01312 
000D                  01313 sfploc09 res .1
                      01314 
                      01315 #ifdef HLLMULTITASK
                      01316 #ifdef HLLGUARDsfploc
                      01317 sfploc09isr res .1
                      01318 #endif
                      01319 #endif
                      01320 
                      01321 
000E                  01322 sfploc10 res .1
                      01323 
                      01324 #ifdef HLLMULTITASK
                      01325 #ifdef HLLGUARDsfploc
                      01326 sfploc10isr res .1
                      01327 #endif
                      01328 #endif
                      01329 
                      01330 
000F                  01331 sfploc11 res .1
MPASM  5.37                        TARGET.ASM   5-7-2015  11:29:00         PAGE 31


LOC  OBJECT CODE     LINE SOURCE TEXT
  VALUE

                      01332 
                      01333 #ifdef HLLMULTITASK
                      01334 #ifdef HLLGUARDsfploc
                      01335 sfploc11isr res .1
                      01336 #endif
                      01337 #endif
                      01338 
                      01339 
0010                  01340 sfploc12 res .1
                      01341 
                      01342 #ifdef HLLMULTITASK
                      01343 #ifdef HLLGUARDsfploc
                      01344 sfploc12isr res .1
                      01345 #endif
                      01346 #endif
                      01347 
                      01348 
0011                  01349 sfploc13 res .1
                      01350 
                      01351 #ifdef HLLMULTITASK
                      01352 #ifdef HLLGUARDsfploc
                      01353 sfploc13isr res .1
                      01354 #endif
                      01355 #endif
                      01356 
                      01357 
0012                  01358 sfploc14 res .1
                      01359 
                      01360 #ifdef HLLMULTITASK
                      01361 #ifdef HLLGUARDsfploc
                      01362 sfploc14isr res .1
                      01363 #endif
                      01364 #endif
                      01365 
                      01366 
0013                  01367 sfploc15 res .1
                      01368 
                      01369 #ifdef HLLMULTITASK
                      01370 #ifdef HLLGUARDsfploc
                      01371 sfploc15isr res .1
                      01372 #endif
                      01373 #endif
                      01374 
                      01375 
0014                  01376 sfploc16 res .1
                      01377 
                      01378 #ifdef HLLMULTITASK
                      01379 #ifdef HLLGUARDsfploc
                      01380 sfploc16isr res .1
                      01381 #endif
                      01382 #endif
                      01383 
                      01384 
MPASM  5.37                        TARGET.ASM   5-7-2015  11:29:00         PAGE 32


LOC  OBJECT CODE     LINE SOURCE TEXT
  VALUE

0015                  01385 sfploc17 res .1 
                      01386 
                      01387 #ifdef HLLMULTITASK
                      01388 #ifdef HLLGUARDsfploc
                      01389 sfploc17isr res .1
                      01390 #endif
                      01391 #endif
                      01392 
                      01393 
                      01394  
                      01395 
                      01396 
                      01397 
                      01398 
                      01399 
                      01400 
                      01401 
                      01402 
                      01403 
                      01404 
                      01405   
                      01406  
                      01407 
                      01408 sfp_div CODE 
                      01409 
                      01410 
                      01411 #define rounded sfploc00
                      01412 
                      01413 
                      01414 #define big_c sfploc01
                      01415 
                      01416 
                      01417 #define a_hi_msb sfploc02
                      01418 
                      01419 
                      01420 #define loop_count sfploc03
                      01421 
                      01422 
                      01423 #define run_total sfploc04
                      01424 
                      01425 
                      01426 #define min2_lower sfploc05
                      01427 
                      01428 
                      01429 #define subtrahend sfploc06
                      01430 
                      01431 
                      01432 #define quotient_lo sfploc07
                      01433 
                      01434 
                      01435 #define term sfploc08
                      01436 
                      01437 
MPASM  5.37                        TARGET.ASM   5-7-2015  11:29:00         PAGE 33


LOC  OBJECT CODE     LINE SOURCE TEXT
  VALUE

                      01438 #define exam sfploc09
                      01439 
                      01440 
                      01441 #define multiplier sfploc10
                      01442 
                      01443 
                      01444 #define mout sfploc11
                      01445 
                      01446 
                      01447 #define util sfploc12
                      01448 
                      01449 
                      01450 #define neg sfploc13
                      01451 
                      01452 
                      01453 #define ein2 sfploc14
                      01454 
                      01455 
                      01456 #define min2 sfploc15
                      01457 
                      01458 
                      01459 #define ein sfploc16
                      01460 
                      01461 
                      01462 #define min sfploc17
                      01463 
                      01464 
0000                  01465 divf:  
                      01466 #ifdef HLLMULTITASK
                      01467 #ifdef HLLGUARDsfploc 
                      01468  movf in_isr,f  
                      01469  btfsc STATUS,Z
                      01470  
                      01471 
                      01472 
                      01473  goto divf0
                      01474 
                      01475 
                      01476 
                      01477 
                      01478 
                      01479 
                      01480 
                      01481 
                      01482 
                      01483 
                      01484 
                      01485 
                      01486 
                      01487 
                      01488 
                      01489  POP
                      01490 
MPASM  5.37                        TARGET.ASM   5-7-2015  11:29:00         PAGE 34


LOC  OBJECT CODE     LINE SOURCE TEXT
  VALUE

                      01491  banksel min
                      01492  movwf ein2 
                      01493  clrf neg 
                      01494 
                      01495 
                      01496  POP
                      01497 
                      01498  banksel min
                      01499  movwf min2 
                      01500  btfsc min2,7
                      01501  bsf neg,1
                      01502  bcf min2,7 
                      01503 
                      01504  POP
                      01505 
                      01506  banksel min
                      01507  movwf ein 
                      01508 
                      01509  POP
                      01510 
                      01511  banksel min
                      01512  movwf min 
                      01513  btfsc min,7
                      01514  bsf neg,0 
                      01515  bcf min,7 
                      01516  movfw ein 
                      01517  movwf util 
                      01518  movfw ein2 
                      01519  subwf util,f 
                      01520 
                      01521  clrf exam 
                      01522 
                      01523  
                      01524  movfw min 
                      01525  addlw .128 
                      01526  movwf min 
                      01527 
                      01528  movfw min2 
                      01529  addlw .128 
                      01530  movwf min2 
                      01531 
                      01532  
                      01533  
                      01534 
                      01535  
                      01536  movwf term 
                      01537 
                      01538 
                      01539 
                      01540 
                      01541  clrf quotient_lo
                      01542 
                      01543 
MPASM  5.37                        TARGET.ASM   5-7-2015  11:29:00         PAGE 35


LOC  OBJECT CODE     LINE SOURCE TEXT
  VALUE

                      01544  clrf subtrahend
                      01545 
                      01546 
                      01547  clrf min2_lower
                      01548 
                      01549 
                      01550  clrf run_total
                      01551 
                      01552 
                      01553  clrf loop_count
                      01554 
                      01555 f4tp:
                      01556 
                      01557  movf loop_count,w
                      01558  xorlw .16
                      01559  btfsc STATUS,Z
                      01560  goto f4dn
                      01561 
                      01562 
                      01563  movf min,w
                      01564  andlw .128
                      01565  movwf a_hi_msb
                      01566  
                      01567 
                      01568  LSHIFT min2_lower
                      01569 
                      01570 
                      01571 
                      01572  LSHIFT run_total
                      01573 
                      01574 
                      01575  btfss STATUS,C
                      01576  goto que4
                      01577 
                      01578 
                      01579  incf min2_lower,f
                      01580 
                      01581 que4:
                      01582 
                      01583 
                      01584  LSHIFT min
                      01585 
                      01586 
                      01587 
                      01588  LSHIFT quotient_lo
                      01589 
                      01590 
                      01591  btfsc STATUS,C
                      01592 
                      01593 
                      01594 
                      01595  incf min,f
                      01596 
MPASM  5.37                        TARGET.ASM   5-7-2015  11:29:00         PAGE 36


LOC  OBJECT CODE     LINE SOURCE TEXT
  VALUE

                      01597 
                      01598  movf a_hi_msb,f
                      01599  btfsc STATUS,Z
                      01600  goto nry4
                      01601 
                      01602 
                      01603  incf run_total,f
                      01604 
                      01605 
                      01606  btfsc STATUS,Z
                      01607  incf min2_lower,f
                      01608 
                      01609 nry4:
                      01610 
                      01611 
                      01612  clrf big_c 
                      01613  movfw min2
                      01614  subwf run_total,w 
                      01615  btfss STATUS,C 
                      01616  bsf big_c,0 
                      01617 
                      01618 
                      01619  movf subtrahend,w
                      01620  subwf min2_lower,f 
                      01621 
                      01622 
                      01623  movf min2,w
                      01624  subwf run_total,f
                      01625 
                      01626 
                      01627  btfsc big_c,0 
                      01628  decf min2_lower,f
                      01629 
                      01630 
                      01631  btfss min2_lower,7
                      01632  goto ga4g0
                      01633 
                      01634 
                      01635 
                      01636  movf min2,w
                      01637  addwf run_total,w
                      01638  clrf big_c
                      01639  btfsc STATUS,C
                      01640  bsf big_c,0
                      01641 
                      01642 
                      01643  movf subtrahend,w
                      01644  addwf min2_lower,f
                      01645 
                      01646 
                      01647  movf min2,w
                      01648  addwf run_total,f
                      01649 
MPASM  5.37                        TARGET.ASM   5-7-2015  11:29:00         PAGE 37


LOC  OBJECT CODE     LINE SOURCE TEXT
  VALUE

                      01650 
                      01651 
                      01652  btfsc big_c,0 
                      01653  incf min2_lower,f
                      01654 
                      01655 
                      01656 
                      01657  movlw .254
                      01658  andwf quotient_lo,f
                      01659 
                      01660 
                      01661  goto ga5g0
                      01662 ga4g0:
                      01663 
                      01664 
                      01665  movlw .1
                      01666  iorwf quotient_lo,f
                      01667 ga5g0:
                      01668 
                      01669 
                      01670 
                      01671  incf loop_count,f
                      01672 
                      01673 
                      01674  goto f4tp
                      01675 
                      01676 f4dn:
                      01677 
                      01678 
                      01679  movf quotient_lo,w
                      01680  movwf mout
                      01681 
                      01682 
                      01683  clrf multiplier
                      01684  btfsc min,0
                      01685  bsf multiplier,0
                      01686 
                      01687  
                      01688  RSHIFT term
                      01689  
                      01690  clrf rounded
                      01691  movfw run_total
                      01692  subwf term,w    
                      01693  btfsc STATUS,C 
                      01694  goto fr9rh   
                      01695  incf mout,f 
                      01696  bsf rounded,0 
                      01697  
                      01698 fr9rh:
                      01699  
                      01700 
                      01701 
                      01702  movf multiplier,f
MPASM  5.37                        TARGET.ASM   5-7-2015  11:29:00         PAGE 38


LOC  OBJECT CODE     LINE SOURCE TEXT
  VALUE

                      01703  btfsc STATUS,Z
                      01704  goto notmult0
                      01705  
                      01706 
                      01707 
                      01708 
                      01709 
                      01710  
                      01711  btfss mout,0
                      01712  goto prpg1
                      01713 
                      01714  
                      01715  btfsc rounded,0
                      01716  goto prpg1
                      01717  
                      01718  
                      01719 
                      01720  RSHIFT mout
                      01721  
                      01722 
                      01723  incf mout,f
                      01724 
                      01725 
                      01726  goto prpgm
                      01727 
                      01728 prpg1:
                      01729 
                      01730 
                      01731  RSHIFT mout
                      01732  
                      01733 prpgm:
                      01734 
                      01735 
                      01736  bsf mout,7
                      01737 
                      01738  goto notmult1
                      01739 notmult0:
                      01740  decf util,f 
                      01741 notmult1:
                      01742  movfw mout 
                      01743 
                      01744 retrydvif1: 
                      01745 
                      01746   addlw -.128 
                      01747   movwf exam 
                      01748   btfss exam,7 
                      01749   goto nodivfcarr2 
                      01750   addlw .128    
                      01751 
                      01752  
                      01753  decf util,f 
                      01754 
                      01755  
MPASM  5.37                        TARGET.ASM   5-7-2015  11:29:00         PAGE 39


LOC  OBJECT CODE     LINE SOURCE TEXT
  VALUE

                      01756  LSHIFT mout
                      01757  movfw mout 
                      01758  goto retrydvif1 
                      01759 
                      01760 nodivfcarr2: 
                      01761 
                      01762 
                      01763  movwf mout
                      01764 
                      01765 
                      01766 
                      01767  
                      01768  
                      01769  btfsc neg,0
                      01770  goto ita33nq 
                      01771  btfss neg,1
                      01772  goto div_sames 
                      01773  goto div_dif5 
                      01774 ita33nq: 
                      01775  btfsc neg,1
                      01776  goto div_sames 
                      01777 
                      01778 div_dif5: 
                      01779 
                      01780  
                      01781  
                      01782  
                      01783  
                      01784  movfw mout 
                      01785  iorlw .128 
                      01786  movwf mout 
                      01787  
                      01788 
                      01789 div_sames: 
                      01790  movfw mout 
                      01791  PUSH
                      01792  banksel min
                      01793  movfw util 
                      01794  PUSH
                      01795  
                      01796  return 
                      01797 
                      01798  
                      01799  
                      01800 
                      01801 
                      01802 #undefine rounded
                      01803 
                      01804 
                      01805 #undefine big_c
                      01806 
                      01807 
                      01808 #undefine a_hi_msb
MPASM  5.37                        TARGET.ASM   5-7-2015  11:29:00         PAGE 40


LOC  OBJECT CODE     LINE SOURCE TEXT
  VALUE

                      01809 
                      01810 
                      01811 #undefine loop_count
                      01812 
                      01813 
                      01814 #undefine run_total
                      01815 
                      01816 
                      01817 #undefine min2_lower
                      01818 
                      01819 
                      01820 #undefine subtrahend
                      01821 
                      01822 
                      01823 #undefine quotient_lo
                      01824 
                      01825 
                      01826 #undefine term
                      01827 
                      01828 
                      01829 #undefine exam
                      01830 
                      01831 
                      01832 #undefine multiplier
                      01833 
                      01834 
                      01835 #undefine mout
                      01836 
                      01837 
                      01838 #undefine util
                      01839 
                      01840 
                      01841 #undefine neg
                      01842 
                      01843 
                      01844 #undefine ein2
                      01845 
                      01846 
                      01847 #undefine min2
                      01848 
                      01849 
                      01850 #undefine ein
                      01851 
                      01852 
                      01853 #undefine min
                      01854 
                      01855 
                      01856 #define rounded sfploc00+1
                      01857 
                      01858 
                      01859 #define big_c sfploc01+1
                      01860 
                      01861 
MPASM  5.37                        TARGET.ASM   5-7-2015  11:29:00         PAGE 41


LOC  OBJECT CODE     LINE SOURCE TEXT
  VALUE

                      01862 #define a_hi_msb sfploc02+1
                      01863 
                      01864 
                      01865 #define loop_count sfploc03+1
                      01866 
                      01867 
                      01868 #define run_total sfploc04+1
                      01869 
                      01870 
                      01871 #define min2_lower sfploc05+1
                      01872 
                      01873 
                      01874 #define subtrahend sfploc06+1
                      01875 
                      01876 
                      01877 #define quotient_lo sfploc07+1
                      01878 
                      01879 
                      01880 #define term sfploc08+1
                      01881 
                      01882 
                      01883 #define exam sfploc09+1
                      01884 
                      01885 
                      01886 #define multiplier sfploc10+1
                      01887 
                      01888 
                      01889 #define mout sfploc11+1
                      01890 
                      01891 
                      01892 #define util sfploc12+1
                      01893 
                      01894 
                      01895 #define neg sfploc13+1
                      01896 
                      01897 
                      01898 #define ein2 sfploc14+1
                      01899 
                      01900 
                      01901 #define min2 sfploc15+1
                      01902 
                      01903 
                      01904 #define ein sfploc16+1
                      01905 
                      01906 
                      01907 #define min sfploc17+1
                      01908 
                      01909 
                      01910 divf0:
                      01911 #endif
                      01912 #endif
                      01913 
                      01914 
MPASM  5.37                        TARGET.ASM   5-7-2015  11:29:00         PAGE 42


LOC  OBJECT CODE     LINE SOURCE TEXT
  VALUE

                      01915 
                      01916 
                      01917 
                      01918 
                      01919 
                      01920 
                      01921 
                      01922 
                      01923 
                      01924 
                      01925 
                      01926 
                      01927 
                      01928  POP
0000   0013               M  moviw INDF0-- ; preserve the safety of this code under interruptible conditions. 
                      01929 
0001   002?           01930  banksel min
0002   00??           01931  movwf ein2 
0003   01??           01932  clrf neg 
                      01933 
                      01934 
                      01935  POP
0004   0013               M  moviw INDF0-- ; preserve the safety of this code under interruptible conditions. 
                      01936 
0005   002?           01937  banksel min
0006   00??           01938  movwf min2 
0007   1B80           01939  btfsc min2,7
0008   1480           01940  bsf neg,1
0009   1380           01941  bcf min2,7 
                      01942 
                      01943  POP
000A   0013               M  moviw INDF0-- ; preserve the safety of this code under interruptible conditions. 
                      01944 
000B   002?           01945  banksel min
000C   00??           01946  movwf ein 
                      01947 
                      01948  POP
000D   0013               M  moviw INDF0-- ; preserve the safety of this code under interruptible conditions. 
                      01949 
000E   002?           01950  banksel min
000F   00??           01951  movwf min 
0010   1B80           01952  btfsc min,7
0011   1400           01953  bsf neg,0 
0012   1380           01954  bcf min,7 
0013   08??           01955  movfw ein 
0014   00??           01956  movwf util 
0015   08??           01957  movfw ein2 
0016   02??           01958  subwf util,f 
                      01959 
0017   01??           01960  clrf exam 
                      01961 
                      01962  
0018   08??           01963  movfw min 
MPASM  5.37                        TARGET.ASM   5-7-2015  11:29:00         PAGE 43


LOC  OBJECT CODE     LINE SOURCE TEXT
  VALUE

0019   3E80           01964  addlw .128 
001A   00??           01965  movwf min 
                      01966 
001B   08??           01967  movfw min2 
001C   3E80           01968  addlw .128 
001D   00??           01969  movwf min2 
                      01970 
                      01971  
                      01972  
                      01973 
                      01974  
001E   00??           01975  movwf term 
                      01976 
                      01977 
                      01978 
                      01979 
001F   01??           01980  clrf quotient_lo
                      01981 
                      01982 
0020   01??           01983  clrf subtrahend
                      01984 
                      01985 
0021   01??           01986  clrf min2_lower
                      01987 
                      01988 
0022   01??           01989  clrf run_total
                      01990 
                      01991 
0023   01??           01992  clrf loop_count
                      01993 
0024                  01994 hllQAAAA:
                      01995 
0024   08??           01996  movf loop_count,w
0025   3A10           01997  xorlw .16
0026   1903           01998  btfsc STATUS,Z
0027   2???           01999  goto hllVAAAA
                      02000 
                      02001 
0028   08??           02002  movf min,w
0029   3980           02003  andlw .128
002A   00??           02004  movwf a_hi_msb
                      02005  
                      02006 
                      02007  LSHIFT min2_lower
002B   35??               M  lslf sfploc05,f
                      02008 
                      02009 
                      02010 
                      02011  LSHIFT run_total
002C   35??               M  lslf sfploc04,f
                      02012 
                      02013 
002D   1C03           02014  btfss STATUS,C
MPASM  5.37                        TARGET.ASM   5-7-2015  11:29:00         PAGE 44


LOC  OBJECT CODE     LINE SOURCE TEXT
  VALUE

002E   2???           02015  goto hllRAAAA
                      02016 
                      02017 
002F   0A??           02018  incf min2_lower,f
                      02019 
0030                  02020 hllRAAAA:
                      02021 
                      02022 
                      02023  LSHIFT min
0030   35??               M  lslf sfploc17,f
                      02024 
                      02025 
                      02026 
                      02027  LSHIFT quotient_lo
0031   35??               M  lslf sfploc07,f
                      02028 
                      02029 
0032   1803           02030  btfsc STATUS,C
                      02031 
                      02032 
                      02033 
0033   0A??           02034  incf min,f
                      02035 
                      02036 
0034   08??           02037  movf a_hi_msb,f
0035   1903           02038  btfsc STATUS,Z
0036   2???           02039  goto hllSAAAA
                      02040 
                      02041 
0037   0A??           02042  incf run_total,f
                      02043 
                      02044 
0038   1903           02045  btfsc STATUS,Z
0039   0A??           02046  incf min2_lower,f
                      02047 
003A                  02048 hllSAAAA:
                      02049 
                      02050 
003A   01??           02051  clrf big_c 
003B   08??           02052  movfw min2
003C   02??           02053  subwf run_total,w 
003D   1C03           02054  btfss STATUS,C 
003E   1400           02055  bsf big_c,0 
                      02056 
                      02057 
003F   08??           02058  movf subtrahend,w
0040   02??           02059  subwf min2_lower,f 
                      02060 
                      02061 
0041   08??           02062  movf min2,w
0042   02??           02063  subwf run_total,f
                      02064 
                      02065 
MPASM  5.37                        TARGET.ASM   5-7-2015  11:29:00         PAGE 45


LOC  OBJECT CODE     LINE SOURCE TEXT
  VALUE

0043   1800           02066  btfsc big_c,0 
0044   03??           02067  decf min2_lower,f
                      02068 
                      02069 
0045   1F80           02070  btfss min2_lower,7
0046   2???           02071  goto hllTAAAA
                      02072 
                      02073 
                      02074 
0047   08??           02075  movf min2,w
0048   07??           02076  addwf run_total,w
0049   01??           02077  clrf big_c
004A   1803           02078  btfsc STATUS,C
004B   1400           02079  bsf big_c,0
                      02080 
                      02081 
004C   08??           02082  movf subtrahend,w
004D   07??           02083  addwf min2_lower,f
                      02084 
                      02085 
004E   08??           02086  movf min2,w
004F   07??           02087  addwf run_total,f
                      02088 
                      02089 
                      02090 
0050   1800           02091  btfsc big_c,0 
0051   0A??           02092  incf min2_lower,f
                      02093 
                      02094 
                      02095 
0052   30FE           02096  movlw .254
0053   05??           02097  andwf quotient_lo,f
                      02098 
                      02099 
0054   2???           02100  goto hllUAAAA
0055                  02101 hllTAAAA:
                      02102 
                      02103 
0055   3001           02104  movlw .1
0056   04??           02105  iorwf quotient_lo,f
0057                  02106 hllUAAAA:
                      02107 
                      02108 
                      02109 
0057   0A??           02110  incf loop_count,f
                      02111 
                      02112 
0058   2???           02113  goto hllQAAAA
                      02114 
0059                  02115 hllVAAAA:
                      02116 
                      02117 
0059   08??           02118  movf quotient_lo,w
MPASM  5.37                        TARGET.ASM   5-7-2015  11:29:00         PAGE 46


LOC  OBJECT CODE     LINE SOURCE TEXT
  VALUE

005A   00??           02119  movwf mout
                      02120 
                      02121 
005B   01??           02122  clrf multiplier
005C   1800           02123  btfsc min,0
005D   1400           02124  bsf multiplier,0
                      02125 
                      02126  
                      02127  RSHIFT term
005E   36??               M  lsrf sfploc08,f
                      02128  
005F   01??           02129  clrf rounded
0060   08??           02130  movfw run_total
0061   02??           02131  subwf term,w    
0062   1803           02132  btfsc STATUS,C 
0063   2???           02133  goto hllWAAAA   
0064   0A??           02134  incf mout,f 
0065   1400           02135  bsf rounded,0 
                      02136  
0066                  02137 hllWAAAA:
                      02138  
                      02139 
                      02140 
0066   08??           02141  movf multiplier,f
0067   1903           02142  btfsc STATUS,Z
0068   2???           02143  goto hllZAAAA
                      02144  
                      02145 
                      02146 
                      02147 
                      02148 
                      02149  
0069   1C00           02150  btfss mout,0
006A   2???           02151  goto hllXAAAA
                      02152 
                      02153  
006B   1800           02154  btfsc rounded,0
006C   2???           02155  goto hllXAAAA
                      02156  
                      02157  
                      02158 
                      02159  RSHIFT mout
006D   36??               M  lsrf sfploc11,f
                      02160  
                      02161 
006E   0A??           02162  incf mout,f
                      02163 
                      02164 
006F   2???           02165  goto hllYAAAA
                      02166 
0070                  02167 hllXAAAA:
                      02168 
                      02169 
MPASM  5.37                        TARGET.ASM   5-7-2015  11:29:00         PAGE 47


LOC  OBJECT CODE     LINE SOURCE TEXT
  VALUE

                      02170  RSHIFT mout
0070   36??               M  lsrf sfploc11,f
                      02171  
0071                  02172 hllYAAAA:
                      02173 
                      02174 
0071   1780           02175  bsf mout,7
                      02176 
0072   2???           02177  goto hllABAAA
0073                  02178 hllZAAAA:
0073   03??           02179  decf util,f 
0074                  02180 hllABAAA:
0074   08??           02181  movfw mout 
                      02182 
0075                  02183 hllBBAAA: 
                      02184 
0075   3E80           02185   addlw -.128 
0076   00??           02186   movwf exam 
0077   1F80           02187   btfss exam,7 
0078   2???           02188   goto hllCBAAA 
0079   3E80           02189   addlw .128    
                      02190 
                      02191  
007A   03??           02192  decf util,f 
                      02193 
                      02194  
                      02195  LSHIFT mout
007B   35??               M  lslf sfploc11,f
007C   08??           02196  movfw mout 
007D   2???           02197  goto hllBBAAA 
                      02198 
007E                  02199 hllCBAAA: 
                      02200 
                      02201 
007E   00??           02202  movwf mout
                      02203 
                      02204 
                      02205 
                      02206  
                      02207  
007F   1800           02208  btfsc neg,0
0080   2???           02209  goto hllDBAAA 
0081   1C80           02210  btfss neg,1
0082   2???           02211  goto hllFBAAA 
0083   2???           02212  goto hllEBAAA 
0084                  02213 hllDBAAA: 
0084   1880           02214  btfsc neg,1
0085   2???           02215  goto hllFBAAA 
                      02216 
0086                  02217 hllEBAAA: 
                      02218 
                      02219  
                      02220  
MPASM  5.37                        TARGET.ASM   5-7-2015  11:29:00         PAGE 48


LOC  OBJECT CODE     LINE SOURCE TEXT
  VALUE

                      02221  
                      02222  
0086   08??           02223  movfw mout 
0087   3880           02224  iorlw .128 
0088   00??           02225  movwf mout 
                      02226  
                      02227 
0089                  02228 hllFBAAA: 
0089   08??           02229  movfw mout 
                      02230  PUSH
008A   0018               M  movwi ++INDF0
008B   002?           02231  banksel min
008C   08??           02232  movfw util 
                      02233  PUSH
008D   0018               M  movwi ++INDF0
                      02234  
008E   0008           02235  return 
                      02236 
                      02237  
                      02238  
                      02239 
                      02240 
                      02241 #undefine rounded
                      02242 
                      02243 
                      02244 #undefine big_c
                      02245 
                      02246 
                      02247 #undefine a_hi_msb
                      02248 
                      02249 
                      02250 #undefine loop_count
                      02251 
                      02252 
                      02253 #undefine run_total
                      02254 
                      02255 
                      02256 #undefine min2_lower
                      02257 
                      02258 
                      02259 #undefine subtrahend
                      02260 
                      02261 
                      02262 #undefine quotient_lo
                      02263 
                      02264 
                      02265 #undefine term
                      02266 
                      02267 
                      02268 #undefine exam
                      02269 
                      02270 
                      02271 #undefine multiplier
MPASM  5.37                        TARGET.ASM   5-7-2015  11:29:00         PAGE 49


LOC  OBJECT CODE     LINE SOURCE TEXT
  VALUE

                      02272 
                      02273 
                      02274 #undefine mout
                      02275 
                      02276 
                      02277 #undefine util
                      02278 
                      02279 
                      02280 #undefine neg
                      02281 
                      02282 
                      02283 #undefine ein2
                      02284 
                      02285 
                      02286 #undefine min2
                      02287 
                      02288 
                      02289 #undefine ein
                      02290 
                      02291 
                      02292 #undefine min
                      02293 
                      02294 
                      02295 
                      02296 
                      02297 
                      02298  
                      02299  
                      02300 
                      02301 sfp_prrr CODE 
                      02302  
                      02303 
                      02304 
                      02305 #define thk003 sfpaux00
                      02306 
                      02307 
                      02308 #define thk002 sfpaux01
                      02309 
                      02310 
                      02311 #define thk001 sfpaux02
                      02312 
                      02313 
                      02314 #define thk000 sfpaux03
                      02315 
                      02316 
0000                  02317 printf:  
                      02318 #ifdef HLLMULTITASK
                      02319 #ifdef HLLGUARDsfpaux 
                      02320  movf in_isr,f  
                      02321  btfsc STATUS,Z
                      02322  
                      02323 
                      02324 
MPASM  5.37                        TARGET.ASM   5-7-2015  11:29:00         PAGE 50


LOC  OBJECT CODE     LINE SOURCE TEXT
  VALUE

                      02325  goto printf0
                      02326   
                      02327 
                      02328  POP
                      02329  banksel thk001 
                      02330  movwf thk001
                      02331  POP
                      02332  movwf thk000
                      02333  movlw '(' 
                      02334  PUSH
                      02335  
                      02336  FAR_CALL printf,printch 
                      02337  banksel thk000
                      02338  
                      02339  movlw '+' 
                      02340  btfss thk000,7 
                      02341  goto nomin
                      02342  
                      02343  movfw thk000
                      02344  andlw .127 
                      02345  movwf thk000 
                      02346  movlw '-' 
                      02347 nomin: 
                      02348  PUSH
                      02349  
                      02350  FAR_CALL printf,printch 
                      02351  banksel thk000
                      02352  movfw thk000
                      02353  addlw .128 
                      02354  movwf thk000 
                      02355  movfw thk000 
                      02356  PUSH
                      02357  movlw .100 
                      02358  PUSH
                      02359  
                      02360  HALF_FAR_CALL divu 
                      02361  
                      02362  HALF_FAR_CALL ascii 
                      02363  
                      02364  FAR_CALL printf,printch 
                      02365  banksel thk000
                      02366  movfw thk000
                      02367  PUSH
                      02368  movlw .100 
                      02369  PUSH
                      02370  
                      02371  FAR_CALL printf,modu 
                      02372  movlw .10 
                      02373  PUSH
                      02374  
                      02375  HALF_FAR_CALL divu 
                      02376  
                      02377  HALF_FAR_CALL ascii 
MPASM  5.37                        TARGET.ASM   5-7-2015  11:29:00         PAGE 51


LOC  OBJECT CODE     LINE SOURCE TEXT
  VALUE

                      02378  
                      02379  FAR_CALL printf,printch 
                      02380  
                      02381  banksel thk000 
                      02382  movfw thk000 
                      02383  PUSH
                      02384  movlw .10 
                      02385  PUSH
                      02386  
                      02387  HALF_FAR_CALL modu 
                      02388  
                      02389  HALF_FAR_CALL ascii 
                      02390  
                      02391  FAR_CALL printf,printch 
                      02392  movlw '/' 
                      02393  PUSH
                      02394  
                      02395  FAR_CALL printf,printch 
                      02396  movlw '1' 
                      02397  PUSH
                      02398  
                      02399  FAR_CALL printf,printch 
                      02400  movlw '2' 
                      02401  PUSH
                      02402  
                      02403  FAR_CALL printf,printch 
                      02404  movlw '8' 
                      02405  PUSH
                      02406  
                      02407  FAR_CALL printf,printch 
                      02408  movlw ')' 
                      02409  PUSH
                      02410  
                      02411  FAR_CALL printf,printch 
                      02412  movlw '*' 
                      02413  PUSH
                      02414  
                      02415  FAR_CALL printf,printch 
                      02416  movlw '2' 
                      02417  PUSH
                      02418  
                      02419  FAR_CALL printf,printch 
                      02420  movlw '^' 
                      02421  PUSH
                      02422  
                      02423  FAR_CALL printf,printch 
                      02424  banksel thk001 
                      02425  
                      02426  movlw '+' 
                      02427  btfss thk001,7 
                      02428  goto nomin2 
                      02429  movfw thk001 
                      02430  xorlw .255 
MPASM  5.37                        TARGET.ASM   5-7-2015  11:29:00         PAGE 52


LOC  OBJECT CODE     LINE SOURCE TEXT
  VALUE

                      02431  addlw .1
                      02432  movwf thk001 
                      02433  movlw '-' 
                      02434 nomin2: 
                      02435  PUSH
                      02436  
                      02437  FAR_CALL printf,printch 
                      02438  
                      02439  banksel thk001 
                      02440  movfw thk001 
                      02441  PUSH
                      02442  movlw .100 
                      02443  PUSH
                      02444  
                      02445  HALF_FAR_CALL divu 
                      02446  
                      02447  HALF_FAR_CALL ascii 
                      02448  
                      02449  FAR_CALL printf,printch 
                      02450  
                      02451  banksel thk001 
                      02452  movfw thk001 
                      02453  PUSH
                      02454  movlw .100 
                      02455  PUSH
                      02456  
                      02457  FAR_CALL printf,modu 
                      02458  movlw .10 
                      02459  PUSH
                      02460  
                      02461  HALF_FAR_CALL divu 
                      02462  
                      02463  HALF_FAR_CALL ascii 
                      02464  
                      02465  FAR_CALL printf,printch 
                      02466  
                      02467  banksel thk001 
                      02468  movfw thk001 
                      02469  PUSH
                      02470  movlw .10 
                      02471  PUSH
                      02472  
                      02473  HALF_FAR_CALL modu
                      02474  
                      02475  HALF_FAR_CALL ascii 
                      02476  
                      02477  FAR_CALL printf,printch 
                      02478  movlw ' '
                      02479  PUSH
                      02480  
                      02481  FAR_CALL printf,printch 
                      02482  
                      02483  return 
MPASM  5.37                        TARGET.ASM   5-7-2015  11:29:00         PAGE 53


LOC  OBJECT CODE     LINE SOURCE TEXT
  VALUE

                      02484 
                      02485 
                      02486 
                      02487 #undefine thk003
                      02488 
                      02489 
                      02490 #undefine thk002
                      02491 
                      02492 
                      02493 #undefine thk001
                      02494 
                      02495 
                      02496 #undefine thk000
                      02497 
                      02498 
                      02499 #define thk003 sfpaux00+1
                      02500 
                      02501 
                      02502 #define thk002 sfpaux01+1
                      02503 
                      02504 
                      02505 #define thk001 sfpaux02+1
                      02506 
                      02507 
                      02508 #define thk000 sfpaux03+1
                      02509 
                      02510 
                      02511 printf0:
                      02512 #endif
                      02513 #endif
                      02514   
                      02515 
                      02516  POP
0000   0013               M  moviw INDF0-- ; preserve the safety of this code under interruptible conditions. 
0001   002?           02517  banksel thk001 
0002   00??           02518  movwf thk001
                      02519  POP
0003   0013               M  moviw INDF0-- ; preserve the safety of this code under interruptible conditions. 
0004   00??           02520  movwf thk000
0005   3028           02521  movlw '(' 
                      02522  PUSH
0006   0018               M  movwi ++INDF0
                      02523  
                      02524  FAR_CALL printf,printch 
0007   3180               M  pagesel printch
0008   2???               M  call printch
0009   3180               M  pagesel printf
000A   002?           02525  banksel thk000
                      02526  
000B   302B           02527  movlw '+' 
000C   1F80           02528  btfss thk000,7 
000D   2???           02529  goto hllGBAAA
                      02530  
MPASM  5.37                        TARGET.ASM   5-7-2015  11:29:00         PAGE 54


LOC  OBJECT CODE     LINE SOURCE TEXT
  VALUE

000E   08??           02531  movfw thk000
000F   397F           02532  andlw .127 
0010   00??           02533  movwf thk000 
0011   302D           02534  movlw '-' 
0012                  02535 hllGBAAA: 
                      02536  PUSH
0012   0018               M  movwi ++INDF0
                      02537  
                      02538  FAR_CALL printf,printch 
0013   3180               M  pagesel printch
0014   2???               M  call printch
0015   3180               M  pagesel printf
0016   002?           02539  banksel thk000
0017   08??           02540  movfw thk000
0018   3E80           02541  addlw .128 
0019   00??           02542  movwf thk000 
001A   08??           02543  movfw thk000 
                      02544  PUSH
001B   0018               M  movwi ++INDF0
001C   3064           02545  movlw .100 
                      02546  PUSH
001D   0018               M  movwi ++INDF0
                      02547  
                      02548  HALF_FAR_CALL divu 
001E   3180               M  pagesel divu           
001F   2???               M  call divu
                      02549  
                      02550  HALF_FAR_CALL ascii 
0020   3180               M  pagesel ascii          
0021   2???               M  call ascii
                      02551  
                      02552  FAR_CALL printf,printch 
0022   3180               M  pagesel printch
0023   2???               M  call printch
0024   3180               M  pagesel printf
0025   002?           02553  banksel thk000
0026   08??           02554  movfw thk000
                      02555  PUSH
0027   0018               M  movwi ++INDF0
0028   3064           02556  movlw .100 
                      02557  PUSH
0029   0018               M  movwi ++INDF0
                      02558  
                      02559  FAR_CALL printf,modu 
002A   3180               M  pagesel modu
002B   2???               M  call modu
002C   3180               M  pagesel printf
002D   300A           02560  movlw .10 
                      02561  PUSH
002E   0018               M  movwi ++INDF0
                      02562  
                      02563  HALF_FAR_CALL divu 
002F   3180               M  pagesel divu           
MPASM  5.37                        TARGET.ASM   5-7-2015  11:29:00         PAGE 55


LOC  OBJECT CODE     LINE SOURCE TEXT
  VALUE

0030   2???               M  call divu
                      02564  
                      02565  HALF_FAR_CALL ascii 
0031   3180               M  pagesel ascii          
0032   2???               M  call ascii
                      02566  
                      02567  FAR_CALL printf,printch 
0033   3180               M  pagesel printch
0034   2???               M  call printch
0035   3180               M  pagesel printf
                      02568  
0036   002?           02569  banksel thk000 
0037   08??           02570  movfw thk000 
                      02571  PUSH
0038   0018               M  movwi ++INDF0
0039   300A           02572  movlw .10 
                      02573  PUSH
003A   0018               M  movwi ++INDF0
                      02574  
                      02575  HALF_FAR_CALL modu 
003B   3180               M  pagesel modu           
003C   2???               M  call modu
                      02576  
                      02577  HALF_FAR_CALL ascii 
003D   3180               M  pagesel ascii          
003E   2???               M  call ascii
                      02578  
                      02579  FAR_CALL printf,printch 
003F   3180               M  pagesel printch
0040   2???               M  call printch
0041   3180               M  pagesel printf
0042   302F           02580  movlw '/' 
                      02581  PUSH
0043   0018               M  movwi ++INDF0
                      02582  
                      02583  FAR_CALL printf,printch 
0044   3180               M  pagesel printch
0045   2???               M  call printch
0046   3180               M  pagesel printf
0047   3031           02584  movlw '1' 
                      02585  PUSH
0048   0018               M  movwi ++INDF0
                      02586  
                      02587  FAR_CALL printf,printch 
0049   3180               M  pagesel printch
004A   2???               M  call printch
004B   3180               M  pagesel printf
004C   3032           02588  movlw '2' 
                      02589  PUSH
004D   0018               M  movwi ++INDF0
                      02590  
                      02591  FAR_CALL printf,printch 
004E   3180               M  pagesel printch
MPASM  5.37                        TARGET.ASM   5-7-2015  11:29:00         PAGE 56


LOC  OBJECT CODE     LINE SOURCE TEXT
  VALUE

004F   2???               M  call printch
0050   3180               M  pagesel printf
0051   3038           02592  movlw '8' 
                      02593  PUSH
0052   0018               M  movwi ++INDF0
                      02594  
                      02595  FAR_CALL printf,printch 
0053   3180               M  pagesel printch
0054   2???               M  call printch
0055   3180               M  pagesel printf
0056   3029           02596  movlw ')' 
                      02597  PUSH
0057   0018               M  movwi ++INDF0
                      02598  
                      02599  FAR_CALL printf,printch 
0058   3180               M  pagesel printch
0059   2???               M  call printch
005A   3180               M  pagesel printf
005B   302A           02600  movlw '*' 
                      02601  PUSH
005C   0018               M  movwi ++INDF0
                      02602  
                      02603  FAR_CALL printf,printch 
005D   3180               M  pagesel printch
005E   2???               M  call printch
005F   3180               M  pagesel printf
0060   3032           02604  movlw '2' 
                      02605  PUSH
0061   0018               M  movwi ++INDF0
                      02606  
                      02607  FAR_CALL printf,printch 
0062   3180               M  pagesel printch
0063   2???               M  call printch
0064   3180               M  pagesel printf
0065   305E           02608  movlw '^' 
                      02609  PUSH
0066   0018               M  movwi ++INDF0
                      02610  
                      02611  FAR_CALL printf,printch 
0067   3180               M  pagesel printch
0068   2???               M  call printch
0069   3180               M  pagesel printf
006A   002?           02612  banksel thk001 
                      02613  
006B   302B           02614  movlw '+' 
006C   1F80           02615  btfss thk001,7 
006D   2???           02616  goto hllGBAAA2 
006E   08??           02617  movfw thk001 
006F   3AFF           02618  xorlw .255 
0070   3E01           02619  addlw .1
0071   00??           02620  movwf thk001 
0072   302D           02621  movlw '-' 
0073                  02622 hllGBAAA2: 
MPASM  5.37                        TARGET.ASM   5-7-2015  11:29:00         PAGE 57


LOC  OBJECT CODE     LINE SOURCE TEXT
  VALUE

                      02623  PUSH
0073   0018               M  movwi ++INDF0
                      02624  
                      02625  FAR_CALL printf,printch 
0074   3180               M  pagesel printch
0075   2???               M  call printch
0076   3180               M  pagesel printf
                      02626  
0077   002?           02627  banksel thk001 
0078   08??           02628  movfw thk001 
                      02629  PUSH
0079   0018               M  movwi ++INDF0
007A   3064           02630  movlw .100 
                      02631  PUSH
007B   0018               M  movwi ++INDF0
                      02632  
                      02633  HALF_FAR_CALL divu 
007C   3180               M  pagesel divu           
007D   2???               M  call divu
                      02634  
                      02635  HALF_FAR_CALL ascii 
007E   3180               M  pagesel ascii          
007F   2???               M  call ascii
                      02636  
                      02637  FAR_CALL printf,printch 
0080   3180               M  pagesel printch
0081   2???               M  call printch
0082   3180               M  pagesel printf
                      02638  
0083   002?           02639  banksel thk001 
0084   08??           02640  movfw thk001 
                      02641  PUSH
0085   0018               M  movwi ++INDF0
0086   3064           02642  movlw .100 
                      02643  PUSH
0087   0018               M  movwi ++INDF0
                      02644  
                      02645  FAR_CALL printf,modu 
0088   3180               M  pagesel modu
0089   2???               M  call modu
008A   3180               M  pagesel printf
008B   300A           02646  movlw .10 
                      02647  PUSH
008C   0018               M  movwi ++INDF0
                      02648  
                      02649  HALF_FAR_CALL divu 
008D   3180               M  pagesel divu           
008E   2???               M  call divu
                      02650  
                      02651  HALF_FAR_CALL ascii 
008F   3180               M  pagesel ascii          
0090   2???               M  call ascii
                      02652  
MPASM  5.37                        TARGET.ASM   5-7-2015  11:29:00         PAGE 58


LOC  OBJECT CODE     LINE SOURCE TEXT
  VALUE

                      02653  FAR_CALL printf,printch 
0091   3180               M  pagesel printch
0092   2???               M  call printch
0093   3180               M  pagesel printf
                      02654  
0094   002?           02655  banksel thk001 
0095   08??           02656  movfw thk001 
                      02657  PUSH
0096   0018               M  movwi ++INDF0
0097   300A           02658  movlw .10 
                      02659  PUSH
0098   0018               M  movwi ++INDF0
                      02660  
                      02661  HALF_FAR_CALL modu
0099   3180               M  pagesel modu           
009A   2???               M  call modu
                      02662  
                      02663  HALF_FAR_CALL ascii 
009B   3180               M  pagesel ascii          
009C   2???               M  call ascii
                      02664  
                      02665  FAR_CALL printf,printch 
009D   3180               M  pagesel printch
009E   2???               M  call printch
009F   3180               M  pagesel printf
00A0   3020           02666  movlw ' '
                      02667  PUSH
00A1   0018               M  movwi ++INDF0
                      02668  
                      02669  FAR_CALL printf,printch 
00A2   3180               M  pagesel printch
00A3   2???               M  call printch
00A4   3180               M  pagesel printf
                      02670  
00A5   0008           02671  return 
                      02672 
                      02673 
                      02674 
                      02675 #undefine thk003
                      02676 
                      02677 
                      02678 #undefine thk002
                      02679 
                      02680 
                      02681 #undefine thk001
                      02682 
                      02683 
                      02684 #undefine thk000
                      02685 sfp_ddbasc CODE 
                      02686  
0000                  02687 ascii:
                      02688  POP
0000   0013               M  moviw INDF0-- ; preserve the safety of this code under interruptible conditions. 
MPASM  5.37                        TARGET.ASM   5-7-2015  11:29:00         PAGE 59


LOC  OBJECT CODE     LINE SOURCE TEXT
  VALUE

0001   3E30           02689  addlw '0' 
                      02690  PUSH
0002   0018               M  movwi ++INDF0
0003   0008           02691  return
                      02692 
                      02693  
                      02694  
C9A4 FFFF             02695  end
MPASM  5.37                        TARGET.ASM   5-7-2015  11:29:00         PAGE 60


SYMBOL TABLE
  LABEL                             VALUE 

ABDEN                             00000000
ABDOVF                            00000007
ACKDT                             00000005
ACKEN                             00000004
ACKSTAT                           00000006
ACKTIM                            00000007
ADCON0                            0000009D
ADCON1                            0000009E
ADCS0                             00000004
ADCS1                             00000005
ADCS2                             00000006
ADDEN                             00000003
ADFM                              00000007
ADFVR0                            00000000
ADFVR1                            00000001
ADGO                              00000001
ADIE                              00000006
ADIF                              00000006
ADNREF                            00000002
ADON                              00000000
ADPREF0                           00000000
ADPREF1                           00000001
ADRES                             0000009B
ADRESH                            0000009C
ADRESL                            0000009B
AHEN                              00000001
ALT_Save                          00000007
ANSA0                             00000000
ANSA1                             00000001
ANSA2                             00000002
ANSA3                             00000003
ANSA4                             00000004
ANSB1                             00000001
ANSB2                             00000002
ANSB3                             00000003
ANSB4                             00000004
ANSB5                             00000005
ANSB6                             00000006
ANSB7                             00000007
ANSELA                            0000018C
ANSELB                            0000018D
APFCON0                           0000011D
APFCON1                           0000011E
BAUDCON                           0000019F
BCL1IE                            00000003
BCL1IF                            00000003
BCL2IE                            00000001
BCL2IF                            00000001
BF                                00000000
BOEN                              00000004
BORCON                            00000116
BORRDY                            00000000
BRG16                             00000003
MPASM  5.37                        TARGET.ASM   5-7-2015  11:29:00         PAGE 61


SYMBOL TABLE
  LABEL                             VALUE 

BRGH                              00000002
BSR                               00000008
BSR0                              00000000
BSR1                              00000001
BSR2                              00000002
BSR3                              00000003
BSR4                              00000004
BSR_SHAD                          00000FE6
C                                 00000000
C1HYS                             00000001
C1IE                              00000005
C1IF                              00000005
C1INTN                            00000006
C1INTP                            00000007
C1NCH0                            00000000
C1NCH1                            00000001
C1OE                              00000005
C1ON                              00000007
C1OUT                             00000006
C1PCH0                            00000004
C1PCH1                            00000005
C1POL                             00000004
C1SP                              00000002
C1SYNC                            00000000
C1TSEL0                           00000000
C1TSEL1                           00000001
C2HYS                             00000001
C2IE                              00000006
C2IF                              00000006
C2INTN                            00000006
C2INTP                            00000007
C2NCH0                            00000000
C2NCH1                            00000001
C2OE                              00000005
C2ON                              00000007
C2OUT                             00000006
C2PCH0                            00000004
C2PCH1                            00000005
C2POL                             00000004
C2SP                              00000002
C2SYNC                            00000000
C2TSEL0                           00000002
C2TSEL1                           00000003
C3TSEL0                           00000004
C3TSEL1                           00000005
C4TSEL0                           00000006
C4TSEL1                           00000007
CCP1AS                            00000295
CCP1AS0                           00000004
CCP1AS1                           00000005
CCP1AS2                           00000006
CCP1ASE                           00000007
CCP1CON                           00000293
MPASM  5.37                        TARGET.ASM   5-7-2015  11:29:00         PAGE 62


SYMBOL TABLE
  LABEL                             VALUE 

CCP1IE                            00000002
CCP1IF                            00000002
CCP1M0                            00000000
CCP1M1                            00000001
CCP1M2                            00000002
CCP1M3                            00000003
CCP1SEL                           00000000
CCP2AS                            0000029C
CCP2AS0                           00000004
CCP2AS1                           00000005
CCP2AS2                           00000006
CCP2ASE                           00000007
CCP2CON                           0000029A
CCP2IE                            00000000
CCP2IF                            00000000
CCP2M0                            00000000
CCP2M1                            00000001
CCP2M2                            00000002
CCP2M3                            00000003
CCP2SEL                           00000003
CCP3CON                           00000313
CCP3IE                            00000004
CCP3IF                            00000004
CCP3M0                            00000000
CCP3M1                            00000001
CCP3M2                            00000002
CCP3M3                            00000003
CCP4CON                           0000031A
CCP4IE                            00000005
CCP4IF                            00000005
CCP4M0                            00000000
CCP4M1                            00000001
CCP4M2                            00000002
CCP4M3                            00000003
CCPR1H                            00000292
CCPR1L                            00000291
CCPR2H                            00000299
CCPR2L                            00000298
CCPR3H                            00000312
CCPR3L                            00000311
CCPR4H                            00000319
CCPR4L                            00000318
CCPTMRS                           0000029E
CCPTMRS0                          0000029E
CDAFVR0                           00000002
CDAFVR1                           00000003
CFGS                              00000006
CHS0                              00000002
CHS1                              00000003
CHS2                              00000004
CHS3                              00000005
CHS4                              00000006
CKE                               00000006
MPASM  5.37                        TARGET.ASM   5-7-2015  11:29:00         PAGE 63


SYMBOL TABLE
  LABEL                             VALUE 

CKP                               00000004
CLKRCON                           0000039A
CLKRDC0                           00000003
CLKRDC1                           00000004
CLKRDIV0                          00000000
CLKRDIV1                          00000001
CLKRDIV2                          00000002
CLKREN                            00000007
CLKROE                            00000006
CLKRSLR                           00000005
CM1CON0                           00000111
CM1CON1                           00000112
CM2CON0                           00000113
CM2CON1                           00000114
CMOUT                             00000115
COPY                              
CPSCH0                            00000000
CPSCH1                            00000001
CPSCH2                            00000002
CPSCH3                            00000003
CPSCON0                           0000001E
CPSCON1                           0000001F
CPSON                             00000007
CPSOUT                            00000001
CPSRNG0                           00000002
CPSRNG1                           00000003
CREN                              00000004
CSRC                              00000007
C_SHAD                            00000000
DACCON0                           00000118
DACCON1                           00000119
DACEN                             00000007
DACLPS                            00000006
DACNSS                            00000000
DACOE                             00000005
DACPSS0                           00000002
DACPSS1                           00000003
DACR0                             00000000
DACR1                             00000001
DACR2                             00000002
DACR3                             00000003
DACR4                             00000004
DC                                00000001
DC1B0                             00000004
DC1B1                             00000005
DC2B0                             00000004
DC2B1                             00000005
DC3B0                             00000004
DC3B1                             00000005
DC4B0                             00000004
DC4B1                             00000005
DC_SHAD                           00000001
DHEN                              00000000
MPASM  5.37                        TARGET.ASM   5-7-2015  11:29:00         PAGE 64


SYMBOL TABLE
  LABEL                             VALUE 

DISCARD                           
D_NOT_A                           00000005
ECCP1AS                           00000295
ECCP2AS                           0000029C
EEADR                             00000191
EEADRH                            00000192
EEADRL                            00000191
EECON1                            00000195
EECON2                            00000196
EEDAT                             00000193
EEDATH                            00000194
EEDATL                            00000193
EEIE                              00000004
EEIF                              00000004
EEPGD                             00000007
F                                 00000001
FAR_CALL                          
FERR                              00000002
FREE                              00000004
FSR0                              00000004
FSR0H                             00000005
FSR0H_SHAD                        00000FE9
FSR0L                             00000004
FSR0L_SHAD                        00000FE8
FSR1                              00000006
FSR1H                             00000007
FSR1H_SHAD                        00000FEB
FSR1L                             00000006
FSR1L_SHAD                        00000FEA
FSR_Save                          00000006
FVRCON                            00000117
FVREN                             00000007
FVRRDY                            00000006
GCEN                              00000007
GIE                               00000007
GO                                00000001
GO_NOT_DONE                       00000001
HALF_FAR_CALL                     
HFIOFL                            00000003
HFIOFR                            00000004
HFIOFS                            00000000
HLFSR                             FSR0L
HLINDF                            INDF0
HLLGUARDhllblss                   
HLOE_STACK2_SIZE                  .20
HLOE_STACK_SIZE                   .80
HLTABLE                           
INDF0                             00000000
INDF1                             00000001
INTCON                            0000000B
INTE                              00000004
INTEDG                            00000006
INTF                              00000001
MPASM  5.37                        TARGET.ASM   5-7-2015  11:29:00         PAGE 65


SYMBOL TABLE
  LABEL                             VALUE 

IOCBF                             00000396
IOCBF0                            00000000
IOCBF1                            00000001
IOCBF2                            00000002
IOCBF3                            00000003
IOCBF4                            00000004
IOCBF5                            00000005
IOCBF6                            00000006
IOCBF7                            00000007
IOCBN                             00000395
IOCBN0                            00000000
IOCBN1                            00000001
IOCBN2                            00000002
IOCBN3                            00000003
IOCBN4                            00000004
IOCBN5                            00000005
IOCBN6                            00000006
IOCBN7                            00000007
IOCBP                             00000394
IOCBP0                            00000000
IOCBP1                            00000001
IOCBP2                            00000002
IOCBP3                            00000003
IOCBP4                            00000004
IOCBP5                            00000005
IOCBP6                            00000006
IOCBP7                            00000007
IOCIE                             00000003
IOCIF                             00000000
IRCF0                             00000003
IRCF1                             00000004
IRCF2                             00000005
IRCF3                             00000006
KDISCARD                          
KPOP                              
KPUSH                             
LATA                              0000010C
LATA0                             00000000
LATA1                             00000001
LATA2                             00000002
LATA3                             00000003
LATA4                             00000004
LATA6                             00000006
LATA7                             00000007
LATB                              0000010D
LATB0                             00000000
LATB1                             00000001
LATB2                             00000002
LATB3                             00000003
LATB4                             00000004
LATB5                             00000005
LATB6                             00000006
LATB7                             00000007
MPASM  5.37                        TARGET.ASM   5-7-2015  11:29:00         PAGE 66


SYMBOL TABLE
  LABEL                             VALUE 

LFIOFR                            00000001
LSHIFT                            
LWLO                              00000005
MC1OUT                            00000000
MC2OUT                            00000001
MDBIT                             00000000
MDCARH                            0000039F
MDCARL                            0000039E
MDCH0                             00000000
MDCH1                             00000001
MDCH2                             00000002
MDCH3                             00000003
MDCHODIS                          00000007
MDCHPOL                           00000006
MDCHSYNC                          00000005
MDCL0                             00000000
MDCL1                             00000001
MDCL2                             00000002
MDCL3                             00000003
MDCLODIS                          00000007
MDCLPOL                           00000006
MDCLSYNC                          00000005
MDCON                             0000039C
MDEN                              00000007
MDMS0                             00000000
MDMS1                             00000001
MDMS2                             00000002
MDMS3                             00000003
MDMSODIS                          00000007
MDOE                              00000006
MDOPOL                            00000004
MDOUT                             00000003
MDSLR                             00000005
MDSRC                             0000039D
MFIOFR                            00000002
NOT_BOR                           00000000
NOT_PD                            00000003
NOT_POR                           00000001
NOT_RI                            00000002
NOT_RMCLR                         00000003
NOT_T1SYNC                        00000002
NOT_TO                            00000004
NOT_WPUEN                         00000007
OERR                              00000001
OPTION_REG                        00000095
OSCCON                            00000099
OSCCONH                           0000009A
OSCCONL                           00000099
OSCSTAT                           0000009A
OSCTUNE                           00000098
OSFIE                             00000007
OSFIF                             00000007
OSTS                              00000005
MPASM  5.37                        TARGET.ASM   5-7-2015  11:29:00         PAGE 67


SYMBOL TABLE
  LABEL                             VALUE 

P                                 00000004
P1CSEL                            00000001
P1DC0                             00000000
P1DC1                             00000001
P1DC2                             00000002
P1DC3                             00000003
P1DC4                             00000004
P1DC5                             00000005
P1DC6                             00000006
P1DSEL                            00000002
P1M0                              00000006
P1M1                              00000007
P1RSEN                            00000007
P2BSEL                            00000004
P2DC0                             00000000
P2DC1                             00000001
P2DC2                             00000002
P2DC3                             00000003
P2DC4                             00000004
P2DC5                             00000005
P2DC6                             00000006
P2M0                              00000006
P2M1                              00000007
P2RSEN                            00000007
PCIE                              00000006
PCL                               00000002
PCLATH                            0000000A
PCLATH_SHAD                       00000FE7
PCON                              00000096
PEIE                              00000006
PEN                               00000002
PIE1                              00000091
PIE2                              00000092
PIE3                              00000093
PIE4                              00000094
PIR1                              00000011
PIR2                              00000012
PIR3                              00000013
PIR4                              00000014
PLLR                              00000006
POP                               
PORTA                             0000000C
PORTB                             0000000D
PR2                               0000001B
PR4                               00000416
PR6                               0000041D
PREEMPT                           
PS0                               00000000
PS1                               00000001
PS2                               00000002
PSA                               00000003
PSS1AC0                           00000002
PSS1AC1                           00000003
MPASM  5.37                        TARGET.ASM   5-7-2015  11:29:00         PAGE 68


SYMBOL TABLE
  LABEL                             VALUE 

PSS1BD0                           00000000
PSS1BD1                           00000001
PSS2AC0                           00000002
PSS2AC1                           00000003
PSS2BD0                           00000000
PSS2BD1                           00000001
PSTR1CON                          00000296
PSTR2CON                          0000029D
PUSH                              
PWM1CON                           00000294
PWM2CON                           0000029B
RA0                               00000000
RA1                               00000001
RA2                               00000002
RA3                               00000003
RA4                               00000004
RA5                               00000005
RA6                               00000006
RA7                               00000007
RB0                               00000000
RB1                               00000001
RB2                               00000002
RB3                               00000003
RB4                               00000004
RB5                               00000005
RB6                               00000006
RB7                               00000007
RCEN                              00000003
RCIDL                             00000006
RCIE                              00000005
RCIF                              00000005
RCREG                             00000199
RCSTA                             0000019D
RD                                00000000
RESUME                            
RSEN                              00000001
RSHIFT                            
RX9                               00000006
RX9D                              00000000
RXDTSEL                           00000007
R_NOT_W                           00000002
S                                 00000003
SBCDE                             00000002
SBOREN                            00000007
SCIE                              00000005
SCKP                              00000004
SCS0                              00000000
SCS1                              00000001
SDAHT                             00000003
SDO1SEL                           00000006
SEN                               00000000
SENDB                             00000003
SMP                               00000007
MPASM  5.37                        TARGET.ASM   5-7-2015  11:29:00         PAGE 69


SYMBOL TABLE
  LABEL                             VALUE 

SPBRG                             0000019B
SPBRGH                            0000019C
SPBRGL                            0000019B
SPEN                              00000007
SPLLEN                            00000007
SRCLK0                            00000004
SRCLK1                            00000005
SRCLK2                            00000006
SRCON0                            0000011A
SRCON1                            0000011B
SREN                              00000005
SRLEN                             00000007
SRNQEN                            00000002
SRPR                              00000000
SRPS                              00000001
SRQEN                             00000003
SRRC1E                            00000000
SRRC2E                            00000001
SRRCKE                            00000002
SRRPE                             00000003
SRSC1E                            00000004
SRSC2E                            00000005
SRSCKE                            00000006
SRSPE                             00000007
SS1SEL                            00000005
SSP1ADD                           00000212
SSP1BUF                           00000211
SSP1CON1                          00000215
SSP1CON2                          00000216
SSP1CON3                          00000217
SSP1IE                            00000003
SSP1IF                            00000003
SSP1MSK                           00000213
SSP1STAT                          00000214
SSP2ADD                           0000021A
SSP2BUF                           00000219
SSP2CON1                          0000021D
SSP2CON2                          0000021E
SSP2CON3                          0000021F
SSP2IE                            00000000
SSP2IF                            00000000
SSP2MSK                           0000021B
SSP2STAT                          0000021C
SSPADD                            00000212
SSPBUF                            00000211
SSPCON                            00000215
SSPCON1                           00000215
SSPCON2                           00000216
SSPCON3                           00000217
SSPEN                             00000005
SSPM0                             00000000
SSPM1                             00000001
SSPM2                             00000002
MPASM  5.37                        TARGET.ASM   5-7-2015  11:29:00         PAGE 70


SYMBOL TABLE
  LABEL                             VALUE 

SSPM3                             00000003
SSPMSK                            00000213
SSPOV                             00000006
SSPSTAT                           00000214
STATUS                            00000003
STATUS_SHAD                       00000FE4
STATUS_Save                       00000005
STKOVF                            00000007
STKPTR                            00000FED
STKUNF                            00000006
STR1A                             00000000
STR1B                             00000001
STR1C                             00000002
STR1D                             00000003
STR1SYNC                          00000004
STR2A                             00000000
STR2B                             00000001
STR2C                             00000002
STR2D                             00000003
STR2SYNC                          00000004
SWDTEN                            00000000
SYNC                              00000004
T0CS                              00000005
T0IE                              00000005
T0IF                              00000002
T0SE                              00000004
T0XCS                             00000000
T1CKPS0                           00000004
T1CKPS1                           00000005
T1CON                             00000018
T1GCON                            00000019
T1GGO                             00000003
T1GPOL                            00000006
T1GSPM                            00000004
T1GSS0                            00000000
T1GSS1                            00000001
T1GTM                             00000005
T1GVAL                            00000002
T1OSCEN                           00000003
T1OSCR                            00000007
T2CKPS0                           00000000
T2CKPS1                           00000001
T2CON                             0000001C
T2OUTPS0                          00000003
T2OUTPS1                          00000004
T2OUTPS2                          00000005
T2OUTPS3                          00000006
T4CKPS0                           00000000
T4CKPS1                           00000001
T4CON                             00000417
T4OUTPS0                          00000003
T4OUTPS1                          00000004
T4OUTPS2                          00000005
MPASM  5.37                        TARGET.ASM   5-7-2015  11:29:00         PAGE 71


SYMBOL TABLE
  LABEL                             VALUE 

T4OUTPS3                          00000006
T6CKPS0                           00000000
T6CKPS1                           00000001
T6CON                             0000041E
T6OUTPS0                          00000003
T6OUTPS1                          00000004
T6OUTPS2                          00000005
T6OUTPS3                          00000006
TMR0                              00000015
TMR0CS                            00000005
TMR0IE                            00000005
TMR0IF                            00000002
TMR0SE                            00000004
TMR1                              00000016
TMR1CS0                           00000006
TMR1CS1                           00000007
TMR1GE                            00000007
TMR1GIE                           00000007
TMR1GIF                           00000007
TMR1H                             00000017
TMR1IE                            00000000
TMR1IF                            00000000
TMR1L                             00000016
TMR1ON                            00000000
TMR2                              0000001A
TMR2IE                            00000001
TMR2IF                            00000001
TMR2ON                            00000002
TMR4                              00000415
TMR4IE                            00000001
TMR4IF                            00000001
TMR4ON                            00000002
TMR6                              0000041C
TMR6IE                            00000003
TMR6IF                            00000003
TMR6ON                            00000002
TOSH                              00000FEF
TOSL                              00000FEE
TRISA                             0000008C
TRISA0                            00000000
TRISA1                            00000001
TRISA2                            00000002
TRISA3                            00000003
TRISA4                            00000004
TRISA5                            00000005
TRISA6                            00000006
TRISA7                            00000007
TRISB                             0000008D
TRISB0                            00000000
TRISB1                            00000001
TRISB2                            00000002
TRISB3                            00000003
TRISB4                            00000004
MPASM  5.37                        TARGET.ASM   5-7-2015  11:29:00         PAGE 72


SYMBOL TABLE
  LABEL                             VALUE 

TRISB5                            00000005
TRISB6                            00000006
TRISB7                            00000007
TRMT                              00000001
TUN0                              00000000
TUN1                              00000001
TUN2                              00000002
TUN3                              00000003
TUN4                              00000004
TUN5                              00000005
TX9                               00000006
TX9D                              00000000
TXCKSEL                           00000000
TXEN                              00000005
TXIE                              00000004
TXIF                              00000004
TXREG                             0000019A
TXSTA                             0000019E
UA                                00000001
W                                 00000000
WCOL                              00000007
WDTCON                            00000097
WDTPS0                            00000001
WDTPS1                            00000002
WDTPS2                            00000003
WDTPS3                            00000004
WDTPS4                            00000005
WPUA                              0000020C
WPUA5                             00000005
WPUB                              0000020D
WPUB0                             00000000
WPUB1                             00000001
WPUB2                             00000002
WPUB3                             00000003
WPUB4                             00000004
WPUB5                             00000005
WPUB6                             00000006
WPUB7                             00000007
WR                                00000001
WREG                              00000009
WREG_SHAD                         00000FE5
WREN                              00000002
WRERR                             00000003
WUE                               00000001
W_Save                            00000004
Z                                 00000002
Z_SHAD                            00000002
_BOREN_NSLEEP                     0000FDFF
_BOREN_OFF                        0000F9FF
_BOREN_ON                         0000FFFF
_BOREN_SBODEN                     0000FBFF
_BORV_19                          0000FFFF
_BORV_25                          0000FBFF
MPASM  5.37                        TARGET.ASM   5-7-2015  11:29:00         PAGE 73


SYMBOL TABLE
  LABEL                             VALUE 

_CLKOUTEN_OFF                     0000FFFF
_CLKOUTEN_ON                      0000F7FF
_CONFIG1                          00008007
_CONFIG2                          00008008
_CPD_OFF                          0000FFFF
_CPD_ON                           0000FEFF
_CP_OFF                           0000FFFF
_CP_ON                            0000FF7F
_DEVID1                           00008006
_FCMEN_OFF                        0000DFFF
_FCMEN_ON                         0000FFFF
_FOSC_ECH                         0000FFFF
_FOSC_ECL                         0000FFFD
_FOSC_ECM                         0000FFFE
_FOSC_EXTRC                       0000FFFB
_FOSC_HS                          0000FFFA
_FOSC_INTOSC                      0000FFFC
_FOSC_LP                          0000FFF8
_FOSC_XT                          0000FFF9
_IDLOC0                           00008000
_IDLOC1                           00008001
_IDLOC2                           00008002
_IDLOC3                           00008003
_IESO_OFF                         0000EFFF
_IESO_ON                          0000FFFF
_LVP_OFF                          0000DFFF
_LVP_ON                           0000FFFF
_MCLRE_OFF                        0000FFBF
_MCLRE_ON                         0000FFFF
_PLLEN_OFF                        0000FEFF
_PLLEN_ON                         0000FFFF
_PWRTE_OFF                        0000FFFF
_PWRTE_ON                         0000FFDF
_STVREN_OFF                       0000FDFF
_STVREN_ON                        0000FFFF
_WDTE_NSLEEP                      0000FFF7
_WDTE_OFF                         0000FFE7
_WDTE_ON                          0000FFFF
_WDTE_SWDTEN                      0000FFEF
_WRT_ALL                          0000FFFC
_WRT_BOOT                         0000FFFE
_WRT_HALF                         0000FFFD
_WRT_OFF                          0000FFFF
__16F1827                         00000001
_hllkrna00_0007                   00000007
_hllkrna03_0005                   00000005
_hllkrna04_0009                   00000009
_hllkrna04_000B                   0000000B
_hllkrna05_0009                   00000009
_hllkrna05_000B                   0000000B
add                               00000000
alt_fsr                           00000003
alt_stack                         00000000
MPASM  5.37                        TARGET.ASM   5-7-2015  11:29:00         PAGE 74


SYMBOL TABLE
  LABEL                             VALUE 

andu                              00000000
ascii                             00000000
clearbit                          00000000
dispose                           00000000
divf                              00000000
divu                              00000000
eq                                00000000
getch                             00000000
geth2                             00000001
hllAAAAA                          0000000A
hllABAAA                          00000074
hllBAAAA                          00000010
hllBBAAA                          00000075
hllCAAAA                          00000017
hllCBAAA                          0000007E
hllDAAAA                          0000001E
hllDBAAA                          00000084
hllEAAAA                          00000025
hllEBAAA                          00000086
hllFAAAA                          0000002C
hllFBAAA                          00000089
hllGAAAA                          00000033
hllGBAAA                          00000012
hllGBAAA2                         00000073
hllHAAAA                          00000035
hllIAAAA                          0000000A
hllJAAAA                          00000010
hllKAAAA                          00000017
hllLAAAA                          0000001E
hllMAAAA                          00000025
hllNAAAA                          0000002C
hllOAAAA                          00000033
hllPAAAA                          00000035
hllQAAAA                          00000024
hllRAAAA                          00000030
hllSAAAA                          0000003A
hllTAAAA                          00000055
hllUAAAA                          00000057
hllVAAAA                          00000059
hllWAAAA                          00000066
hllXAAAA                          00000070
hllYAAAA                          00000071
hllZAAAA                          00000073
hllblss00                         00000000
hllblss01                         00000001
hllblss02                         00000002
hllparmcore                       
hllprgen2                         00000098
hllprogend                        00000097
hlluserprog                       00000000
hloego                            00000000
in_isr                            00000008
kpop                              00000000
MPASM  5.37                        TARGET.ASM   5-7-2015  11:29:00         PAGE 75


SYMBOL TABLE
  LABEL                             VALUE 

kpush                             00000000
modu                              00000000
mul                               00000000
negti                             00000000
oru                               00000000
parm                              00000000
pbase                             00000000
printch                           00000000
printf                            00000000
setbit                            00000000
sfpaux00                          00000001
sfpaux01                          00000003
sfpaux02                          00000005
sfpaux03                          00000007
sfploc00                          00000000
sfploc01                          00000002
sfploc02                          00000004
sfploc03                          00000006
sfploc04                          00000008
sfploc05                          00000009
sfploc06                          0000000A
sfploc07                          0000000B
sfploc08                          0000000C
sfploc09                          0000000D
sfploc10                          0000000E
sfploc11                          0000000F
sfploc12                          00000010
sfploc13                          00000011
sfploc14                          00000012
sfploc15                          00000013
sfploc16                          00000014
sfploc17                          00000015
softstack0                        00000000
softstack1                        00000001
softstack2                        00000002
stack                             00000000

Errors   :     0
Warnings :     0 reported,     0 suppressed
Messages :     0 reported,    24 suppressed

