MPASM  5.35                        TARGET.ASM   3-10-2024  15:32:25         PAGE  1


LOC  OBJECT CODE     LINE SOURCE TEXT
  VALUE

                      00001 
                      00002 #include "hloe.inc"
                      00001 
                      00002 
                      00003 #define HLLGUARDhllblss
                      00004 
                      00005 
                      00006 #define HLOE_STACK_SIZE .80
                      00007 #define HLOE_STACK2_SIZE .80
                      00008 
                      00009 
                      00010 #include <p16f1827.inc>
                      00001         LIST
                      00002 
                      00003 ;==========================================================================
                      00004 ;  MPASM PIC16F1827 processor include
                      00005 ; 
                      00006 ;  (c) Copyright 1999-2009 Microchip Technology, All rights reserved
                      00007 ;==========================================================================
                      00008 
                      01300         LIST
                      00011 #include "../frostcompiler/kernel16f1827.inc"
                      00001 
                      00002 PUSH macro ;Push to the main stack for the programmer's parms and dyn. data;
                      00003  movwi ++INDF0
                      00004  endm
                      00005  
                      00006 POP macro ;Pop from main stack; "decf" is the de-allocator and thus happens last to 
                      00007  moviw INDF0-- ; preserve the safety of this code under interruptible conditions. 
                      00008  endm
                      00009  
                      00010 DISCARD macro ;Remove items from the main stack and throw them away w/o affecting W
                      00011  decf FSR0L,f 
                      00012  endm
                      00013 
                      00014 COPY macro ;Duplicate stack top
                      00015  movfw INDF0
                      00016  incf FSR0L,f 
                      00017  movwf INDF0 
                      00018  endm
                      00019 
                      00020 #define HLFSR FSR0L
                      00021  
                      00022 #define HLINDF INDF0
                      00023 
                      00024 KPUSH macro
                      00025  movwi ++INDF1
                      00026  endm
                      00027  
                      00028 KPOP macro 
                      00029  moviw INDF1--
                      00030  endm 
                      00031 
MPASM  5.35                        TARGET.ASM   3-10-2024  15:32:25         PAGE  2


LOC  OBJECT CODE     LINE SOURCE TEXT
  VALUE

                      00032 KDISCARD macro ;Remove items from stack 2 and throw them away w/o affecting W
                      00033  decf FSR1L,f 
                      00034  endm
                      00035 
                      00036 FAR_CALL macro caller_os,func_os ;Call destination residing within a different code page
                      00037  pagesel func_os
                      00038  call func_os
                      00039  pagesel caller_os
                      00040  endm
                      00041 
                      00042 ;Call destination residing within a different code page... does not restore the caller's
                      00043 ; code page after return, which may be OK (e.g. if the next operation is another 'Far'
                      00044 ; function call). 
                      00045 HALF_FAR_CALL macro func_os 
                      00046  pagesel func_os        
                      00047  call func_os
                      00048  endm
                      00049 
                      00050 ;These are simple shifts, similar to << or >> in C, not rotates. Newer PICs include
                      00051 ; a native shift instruction that shifts in zeroes like << and >>. Older devices 
                      00052 ; can only rotate bits through the C register, requiring an extra instruction to
                      00053 ; clear C in cases where a simple shift is needed.
                      00054 LSHIFT macro file_reg
                      00055  lslf file_reg,f
                      00056  endm 
                      00057 
                      00058 RSHIFT macro file_reg
                      00059  lsrf file_reg,f
                      00060  endm 
                      00061  
                      00062 PREEMPT macro
                      00063 #ifdef HLLMULTITASK 
                      00064  incf in_isr,f
                      00065  pagesel ISR
                      00066  movf FSR0L,w           ;Restore "softstacks" if main thread was using 2nd stack
                      00067  movf softstack0,f
                      00068  btfss STATUS,Z   
                      00069  movf softstack0,w  
                      00070  movwf FSR0L          
                      00071 #endif 
                      00072  endm
                      00073 
                      00074 RESUME macro
                      00075 #ifdef HLLMULTITASK 
                      00076  clrf in_isr
                      00077 #endif
                      00078  endm
                      00079  
                      00080 ; Table macro.. this followed by any series of RETLW calls
                      00081 ; transforms said call list into a function that takes an offset
                      00082 ; and returns that entry in the table (takes 1 byte, returns 1
                      00083 ; byte... this goes atop the HLL feature which allows generation 
                      00084 ; of tables. It can also go atop RETLW tables entered into assembly 
MPASM  5.35                        TARGET.ASM   3-10-2024  15:32:25         PAGE  3


LOC  OBJECT CODE     LINE SOURCE TEXT
  VALUE

                      00085 ; files in a very basic fashion when doing assembly programming. In 
                      00086 ; either case, the overall result can be called exactly as if it were any 
                      00087 ; other HLOE function
                      00088 HLTABLE macro mmnme
                      00089 mmnme:
                      00090  movlw high mmnme#v(2) ; Necess. b/c writes to PCL take 5 bits fr. PCLATH
                      00091  movwf PCLATH ; and PAGESEL doesn't take care of all 5
                      00092  movlw low mmnme#v(2) ; Perform pointer arithmetic
                      00093  addwf INDF0,w 
                      00094  decf FSR0L,f
                      00095  btfsc STATUS,C ; Necess. b/c writes to PCL take 5 bits fr. PCLATH
                      00096  incf PCLATH,f 
                      00097  movwf PCL 
                      00098 mmnme#v(2): 
                      00099  ;retlw K, retlw K, etc. go here
                      00100  endm
                      00101 
                      00102 READEEPROM macro
                      00103  banksel EEADR
                      00104  POP
                      00105  movwf  EEADR
                      00106  banksel EECON1
                      00107  bcf EECON1, EEPGD
                      00108  bsf EECON1, RD
                      00109  banksel EEDAT
                      00110  movf EEDAT, W
                      00111  PUSH
                      00112 endm
                      00113 
                      00114 WRITEEEPROM macro
                      00115  banksel EEADRL
                      00116  POP
                      00117  movwf  EEDATL
                      00118  POP
                      00119  movwf  EEADRL
                      00120  bcf EECON1, CFGS
                      00121  bcf EECON1, EEPGD
                      00122  bsf EECON1, WREN
                      00123  bcf    INTCON, GIE
                      00124  movlw  55h
                      00125  movwf  EECON2
                      00126  movlw  0AAh
                      00127  movwf  EECON2
                      00128  bsf    EECON1, WR
                      00129  bsf    INTCON, GIE
                      00130  bcf    EECON1, WREN
                      00131  btfsc  EECON1, WR
                      00132  GOTO   $-2
                      00133 endm
                      00012 
                      00013 
                      00014 #define HLLMULTITASK
                      00003 
MPASM  5.35                        TARGET.ASM   3-10-2024  15:32:25         PAGE  4


LOC  OBJECT CODE     LINE SOURCE TEXT
  VALUE

8007   C9A4           00004  __config  _CONFIG1,_WDTE_OFF  & _BOREN_OFF & _FOSC_INTOSC & _PWRTE_OFF & _MCLRE_OFF & _CLKOUTEN_OFF & _
                            IESO_OFF & _FCMEN_OFF
8008   DFFF           00005  __config  _CONFIG2,_PLLEN_ON & _STVREN_ON & _LVP_OFF
                      00006 
                      00007 hllv2prettye UDATA
0000                  00008 hllprettyel RES .1
                      00009 
                      00010 #define prettye hllprettyel
                      00011 
                      00012 hllv2prettym UDATA
0000                  00013 hllprettyml RES .1
                      00014 
                      00015 #define prettym hllprettyml
                      00016 
                      00017 
                      00018 
                      00019 Resetv code 0 
0000   138B           00020  bcf INTCON,GIE
0001   3180           00021  pagesel hloego
0002   2???           00022  goto hloego
                      00023  
                      00024 #ifdef HLLMULTITASK
                      00025 vectr code 4     ;Device specific
0004                  00026 ISR:
                      00027 
                      00028 
                      00029  PREEMPT
                          M #ifdef HLLMULTITASK 
0004   0A??               M  incf in_isr,f
0005   3180               M  pagesel ISR
0006   0804               M  movf FSR0L,w           ;Restore "softstacks" if main thread was using 2nd stack
0007   08??               M  movf softstack0,f
0008   1D03               M  btfss STATUS,Z   
0009   08??               M  movf softstack0,w  
000A   0084               M  movwf FSR0L          
                          M #endif 
                      00030 #endif
000B   0020           00031  banksel PIR1
000C   1C11           00032  btfss PIR1,TMR1IF
000D   2???           00033  goto hllnotisr49       
000E   1011           00034  bcf PIR1,TMR1IF
                      00035 
                      00036 
000F   3017           00037  movlw .23
                      00038  
                      00039 
                      00040 
                      00041 
                      00042    
                      00043  FAR_CALL ISR ,safepush
0010   3180               M  pagesel safepush
0011   2???               M  call safepush
0012   3180               M  pagesel ISR
MPASM  5.35                        TARGET.ASM   3-10-2024  15:32:25         PAGE  5


LOC  OBJECT CODE     LINE SOURCE TEXT
  VALUE

                      00044 
                      00045 
0013   3014           00046  movlw .20
                      00047  
                      00048 
                      00049 
                      00050    
                      00051  HALF_FAR_CALL safepush
0014   3180               M  pagesel safepush       
0015   2???               M  call safepush
                      00052 
                      00053 
                      00054  
                      00055  FAR_CALL ISR,printdf
0016   3180               M  pagesel printdf
0017   2???               M  call printdf
0018   3180               M  pagesel ISR
                      00056 
                      00057 
0019   304A           00058  movlw .74
                      00059  
                      00060 
                      00061 
                      00062 
                      00063    
                      00064  FAR_CALL ISR ,safepush
001A   3180               M  pagesel safepush
001B   2???               M  call safepush
001C   3180               M  pagesel ISR
                      00065 
                      00066 
001D   30F9           00067  movlw .249
                      00068  
                      00069 
                      00070 
                      00071    
                      00072  HALF_FAR_CALL safepush
001E   3180               M  pagesel safepush       
001F   2???               M  call safepush
                      00073 
                      00074 
                      00075  
                      00076  FAR_CALL ISR,printdf
0020   3180               M  pagesel printdf
0021   2???               M  call printdf
0022   3180               M  pagesel ISR
                      00077 
                      00078 
0023                  00079 hllnotisr49:
                      00080 
                      00081 
                      00082 
                      00083 
MPASM  5.35                        TARGET.ASM   3-10-2024  15:32:25         PAGE  6


LOC  OBJECT CODE     LINE SOURCE TEXT
  VALUE

                      00084 
                      00085 
                      00086 
                      00087 
                      00088 #ifdef HLLMULTITASK
0023                  00089 ExitISR:    
                      00090  
                      00091  RESUME
                          M #ifdef HLLMULTITASK 
0023   01??               M  clrf in_isr
                          M #endif
                      00092  
0024   0009           00093  retfie
                      00094 #endif
                      00095 
                      00096 mainvars udata_shr      
                      00097 #ifdef HLLMULTITASK
0000                  00098 pbase res .1                    ; Used for functions w/ numbered pass/return, to clean up parms/push arg
                            s
0001                  00099 pbaseisr res .1 
                      00100 #else
                      00101 pbase res .1
                      00102 #endif
                      00103 
                      00104 main code
0000                  00105 hloego:
                      00106 
0000   01??           00107   clrf in_isr
                      00108  
0001   30??           00109   movlw LOW (stack-1)           ;Set up stack starting position based on literals det. by incremental li
                            nker
0002   0084           00110   movwf FSR0L 
0003   30??           00111   movlw HIGH (stack-1)
0004   0085           00112   movwf FSR0H
                      00113  
                      00114   
0005   30??           00115  movlw LOW (alt_stack-1)
0006   0086           00116  movwf FSR1L
0007   30??           00117  movlw HIGH (alt_stack-1)
0008   0087           00118  movwf FSR1H
                      00119  
                      00120  
0009   01??           00121  clrf softstack0 
                      00122  
                      00123  
000A   3180           00124  pagesel hlluserprog
000B   2???           00125  goto hlluserprog
                      00126 
                      00127 hllupuser CODE
0000                  00128 hlluserprog: 
                      00129  
                      00130 
0000   3070           00131  movlw .112 
MPASM  5.35                        TARGET.ASM   3-10-2024  15:32:25         PAGE  7


LOC  OBJECT CODE     LINE SOURCE TEXT
  VALUE

                      00132 
                      00133    
                      00134  FAR_CALL hlluserprog ,safepush
0001   3180               M  pagesel safepush
0002   2???               M  call safepush
0003   3180               M  pagesel hlluserprog
                      00135 
                      00136 
0004   30F7           00137  movlw .247 
                      00138 
                      00139    
                      00140  FAR_CALL hlluserprog ,safepush
0005   3180               M  pagesel safepush
0006   2???               M  call safepush
0007   3180               M  pagesel hlluserprog
                      00141 
0008   0021           00142    banksel OSCCON
0009   0819           00143    movfw OSCCON
                      00144    
                      00145    
                      00146 
                      00147    
                      00148  HALF_FAR_CALL safepush
000A   3180               M  pagesel safepush       
000B   2???               M  call safepush
                      00149 
                      00150 
                      00151  
                      00152  HALF_FAR_CALL andu
000C   3180               M  pagesel andu           
000D   2???               M  call andu
                      00153 
                      00154 
                      00155  
                      00156  FAR_CALL hlluserprog,oru
000E   3180               M  pagesel oru
000F   2???               M  call oru
0010   3180               M  pagesel hlluserprog
                      00157 
                      00158  POP
0011   0013               M  moviw INDF0-- ; preserve the safety of this code under interruptible conditions. 
0012   0021           00159  banksel OSCCON
0013   0099           00160  movwf OSCCON
                      00161  
                      00162 
                      00163 
0014   3004           00164  movlw CREN
                      00165 
                      00166 
                      00167    
                      00168  FAR_CALL hlluserprog ,safepush
0015   3180               M  pagesel safepush
0016   2???               M  call safepush
MPASM  5.35                        TARGET.ASM   3-10-2024  15:32:25         PAGE  8


LOC  OBJECT CODE     LINE SOURCE TEXT
  VALUE

0017   3180               M  pagesel hlluserprog
                      00169 
0018   0023           00170    banksel RCSTA
0019   081D           00171    movfw RCSTA
                      00172    
                      00173    
                      00174 
                      00175    
                      00176  HALF_FAR_CALL safepush
001A   3180               M  pagesel safepush       
001B   2???               M  call safepush
                      00177 
                      00178 
                      00179  
                      00180  FAR_CALL hlluserprog,setbit
001C   3180               M  pagesel setbit
001D   2???               M  call setbit
001E   3180               M  pagesel hlluserprog
                      00181 
                      00182  POP
001F   0013               M  moviw INDF0-- ; preserve the safety of this code under interruptible conditions. 
0020   0023           00183  banksel RCSTA
0021   009D           00184  movwf RCSTA
                      00185  
                      00186 
                      00187 
0022   3002           00188  movlw BRGH
                      00189 
                      00190 
                      00191    
                      00192  FAR_CALL hlluserprog ,safepush
0023   3180               M  pagesel safepush
0024   2???               M  call safepush
0025   3180               M  pagesel hlluserprog
                      00193 
0026   0023           00194    banksel TXSTA
0027   081E           00195    movfw TXSTA
                      00196    
                      00197    
                      00198 
                      00199    
                      00200  HALF_FAR_CALL safepush
0028   3180               M  pagesel safepush       
0029   2???               M  call safepush
                      00201 
                      00202 
                      00203  
                      00204  FAR_CALL hlluserprog,setbit
002A   3180               M  pagesel setbit
002B   2???               M  call setbit
002C   3180               M  pagesel hlluserprog
                      00205 
                      00206  POP
MPASM  5.35                        TARGET.ASM   3-10-2024  15:32:25         PAGE  9


LOC  OBJECT CODE     LINE SOURCE TEXT
  VALUE

002D   0013               M  moviw INDF0-- ; preserve the safety of this code under interruptible conditions. 
002E   0023           00207  banksel TXSTA
002F   009E           00208  movwf TXSTA
                      00209  
                      00210 
                      00211 
0030   3003           00212  movlw BRG16
                      00213 
                      00214 
                      00215    
                      00216  FAR_CALL hlluserprog ,safepush
0031   3180               M  pagesel safepush
0032   2???               M  call safepush
0033   3180               M  pagesel hlluserprog
                      00217 
0034   0023           00218    banksel BAUDCON
0035   081F           00219    movfw BAUDCON
                      00220    
                      00221    
                      00222 
                      00223    
                      00224  HALF_FAR_CALL safepush
0036   3180               M  pagesel safepush       
0037   2???               M  call safepush
                      00225 
                      00226 
                      00227  
                      00228  FAR_CALL hlluserprog,setbit
0038   3180               M  pagesel setbit
0039   2???               M  call setbit
003A   3180               M  pagesel hlluserprog
                      00229 
                      00230  POP
003B   0013               M  moviw INDF0-- ; preserve the safety of this code under interruptible conditions. 
003C   0023           00231  banksel BAUDCON
003D   009F           00232  movwf BAUDCON
                      00233  
                      00234 
                      00235 
003E   3044           00236  movlw .68 
                      00237 
                      00238    
                      00239  FAR_CALL hlluserprog ,safepush
003F   3180               M  pagesel safepush
0040   2???               M  call safepush
0041   3180               M  pagesel hlluserprog
                      00240 
                      00241  POP
0042   0013               M  moviw INDF0-- ; preserve the safety of this code under interruptible conditions. 
0043   0023           00242  banksel SPBRG
0044   009B           00243  movwf SPBRG
                      00244  
                      00245 
MPASM  5.35                        TARGET.ASM   3-10-2024  15:32:25         PAGE 10


LOC  OBJECT CODE     LINE SOURCE TEXT
  VALUE

                      00246 
0045   3000           00247  movlw .0 
                      00248 
                      00249    
                      00250  FAR_CALL hlluserprog ,safepush
0046   3180               M  pagesel safepush
0047   2???               M  call safepush
0048   3180               M  pagesel hlluserprog
                      00251 
                      00252  POP
0049   0013               M  moviw INDF0-- ; preserve the safety of this code under interruptible conditions. 
004A   0023           00253  banksel SPBRGH
004B   009C           00254  movwf SPBRGH
                      00255  
                      00256 
                      00257 
004C   3006           00258  movlw TX9
                      00259 
                      00260 
                      00261    
                      00262  FAR_CALL hlluserprog ,safepush
004D   3180               M  pagesel safepush
004E   2???               M  call safepush
004F   3180               M  pagesel hlluserprog
                      00263 
                      00264 
0050   3005           00265  movlw TXEN
                      00266 
                      00267 
                      00268    
                      00269  FAR_CALL hlluserprog ,safepush
0051   3180               M  pagesel safepush
0052   2???               M  call safepush
0053   3180               M  pagesel hlluserprog
                      00270 
                      00271 
0054   3004           00272  movlw SYNC
                      00273 
                      00274 
                      00275    
                      00276  FAR_CALL hlluserprog ,safepush
0055   3180               M  pagesel safepush
0056   2???               M  call safepush
0057   3180               M  pagesel hlluserprog
                      00277 
0058   0023           00278    banksel TXSTA
0059   081E           00279    movfw TXSTA
                      00280    
                      00281    
                      00282 
                      00283    
                      00284  HALF_FAR_CALL safepush
005A   3180               M  pagesel safepush       
MPASM  5.35                        TARGET.ASM   3-10-2024  15:32:25         PAGE 11


LOC  OBJECT CODE     LINE SOURCE TEXT
  VALUE

005B   2???               M  call safepush
                      00285 
                      00286 
                      00287  
                      00288  HALF_FAR_CALL clearbit
005C   3180               M  pagesel clearbit       
005D   2???               M  call clearbit
                      00289 
                      00290 
                      00291  
                      00292  HALF_FAR_CALL setbit
005E   3180               M  pagesel setbit         
005F   2???               M  call setbit
                      00293 
                      00294 
                      00295  
                      00296  FAR_CALL hlluserprog,clearbit
0060   3180               M  pagesel clearbit
0061   2???               M  call clearbit
0062   3180               M  pagesel hlluserprog
                      00297 
                      00298  POP
0063   0013               M  moviw INDF0-- ; preserve the safety of this code under interruptible conditions. 
0064   0023           00299  banksel TXSTA
0065   009E           00300  movwf TXSTA
                      00301  
                      00302 
                      00303 
0066   3007           00304  movlw SPEN
                      00305 
                      00306 
                      00307    
                      00308  FAR_CALL hlluserprog ,safepush
0067   3180               M  pagesel safepush
0068   2???               M  call safepush
0069   3180               M  pagesel hlluserprog
                      00309 
006A   0023           00310    banksel RCSTA
006B   081D           00311    movfw RCSTA
                      00312    
                      00313    
                      00314 
                      00315    
                      00316  HALF_FAR_CALL safepush
006C   3180               M  pagesel safepush       
006D   2???               M  call safepush
                      00317 
                      00318 
                      00319  
                      00320  FAR_CALL hlluserprog,setbit
006E   3180               M  pagesel setbit
006F   2???               M  call setbit
0070   3180               M  pagesel hlluserprog
MPASM  5.35                        TARGET.ASM   3-10-2024  15:32:25         PAGE 12


LOC  OBJECT CODE     LINE SOURCE TEXT
  VALUE

                      00321 
                      00322  POP
0071   0013               M  moviw INDF0-- ; preserve the safety of this code under interruptible conditions. 
0072   0023           00323  banksel RCSTA
0073   009D           00324  movwf RCSTA
                      00325  
                      00326 
                      00327 
0074   3005           00328  movlw .5 
                      00329 
                      00330    
                      00331  FAR_CALL hlluserprog ,safepush
0075   3180               M  pagesel safepush
0076   2???               M  call safepush
0077   3180               M  pagesel hlluserprog
                      00332 
0078   0021           00333    banksel TRISB
0079   080D           00334    movfw TRISB
                      00335    
                      00336    
                      00337 
                      00338    
                      00339  HALF_FAR_CALL safepush
007A   3180               M  pagesel safepush       
007B   2???               M  call safepush
                      00340 
                      00341 
                      00342  
                      00343  FAR_CALL hlluserprog,clearbit
007C   3180               M  pagesel clearbit
007D   2???               M  call clearbit
007E   3180               M  pagesel hlluserprog
                      00344 
                      00345  POP
007F   0013               M  moviw INDF0-- ; preserve the safety of this code under interruptible conditions. 
0080   0021           00346  banksel TRISB
0081   008D           00347  movwf TRISB
                      00348  
                      00349 
                      00350 
0082   3005           00351  movlw .5 
                      00352 
                      00353    
                      00354  FAR_CALL hlluserprog ,safepush
0083   3180               M  pagesel safepush
0084   2???               M  call safepush
0085   3180               M  pagesel hlluserprog
                      00355 
0086   0023           00356    banksel ANSELB
0087   080D           00357    movfw ANSELB
                      00358    
                      00359    
                      00360 
MPASM  5.35                        TARGET.ASM   3-10-2024  15:32:25         PAGE 13


LOC  OBJECT CODE     LINE SOURCE TEXT
  VALUE

                      00361    
                      00362  HALF_FAR_CALL safepush
0088   3180               M  pagesel safepush       
0089   2???               M  call safepush
                      00363 
                      00364 
                      00365  
                      00366  FAR_CALL hlluserprog,clearbit
008A   3180               M  pagesel clearbit
008B   2???               M  call clearbit
008C   3180               M  pagesel hlluserprog
                      00367 
                      00368  POP
008D   0013               M  moviw INDF0-- ; preserve the safety of this code under interruptible conditions. 
008E   0023           00369  banksel ANSELB
008F   008D           00370  movwf ANSELB
                      00371  
                      00372 
                      00373 
0090   3001           00374  movlw .1 
                      00375 
                      00376    
                      00377  FAR_CALL hlluserprog ,safepush
0091   3180               M  pagesel safepush
0092   2???               M  call safepush
0093   3180               M  pagesel hlluserprog
                      00378 
0094   0023           00379    banksel ANSELB
0095   080D           00380    movfw ANSELB
                      00381    
                      00382    
                      00383 
                      00384    
                      00385  HALF_FAR_CALL safepush
0096   3180               M  pagesel safepush       
0097   2???               M  call safepush
                      00386 
                      00387 
                      00388  
                      00389  FAR_CALL hlluserprog,clearbit
0098   3180               M  pagesel clearbit
0099   2???               M  call clearbit
009A   3180               M  pagesel hlluserprog
                      00390 
                      00391  POP
009B   0013               M  moviw INDF0-- ; preserve the safety of this code under interruptible conditions. 
009C   0023           00392  banksel ANSELB
009D   008D           00393  movwf ANSELB
                      00394  
                      00395 
                      00396 
009E   3000           00397  movlw TXCKSEL
                      00398 
MPASM  5.35                        TARGET.ASM   3-10-2024  15:32:25         PAGE 14


LOC  OBJECT CODE     LINE SOURCE TEXT
  VALUE

                      00399 
                      00400    
                      00401  FAR_CALL hlluserprog ,safepush
009F   3180               M  pagesel safepush
00A0   2???               M  call safepush
00A1   3180               M  pagesel hlluserprog
                      00402 
00A2   0022           00403    banksel APFCON1
00A3   081E           00404    movfw APFCON1
                      00405    
                      00406    
                      00407 
                      00408    
                      00409  HALF_FAR_CALL safepush
00A4   3180               M  pagesel safepush       
00A5   2???               M  call safepush
                      00410 
                      00411 
                      00412  
                      00413  FAR_CALL hlluserprog,setbit
00A6   3180               M  pagesel setbit
00A7   2???               M  call setbit
00A8   3180               M  pagesel hlluserprog
                      00414 
                      00415  POP
00A9   0013               M  moviw INDF0-- ; preserve the safety of this code under interruptible conditions. 
00AA   0022           00416  banksel APFCON1
00AB   009E           00417  movwf APFCON1
                      00418  
                      00419 
                      00420 
00AC   3006           00421  movlw TMR1CS0
                      00422 
                      00423 
                      00424    
                      00425  FAR_CALL hlluserprog ,safepush
00AD   3180               M  pagesel safepush
00AE   2???               M  call safepush
00AF   3180               M  pagesel hlluserprog
                      00426 
                      00427 
00B0   3007           00428  movlw TMR1GE
                      00429 
                      00430 
                      00431    
                      00432  FAR_CALL hlluserprog ,safepush
00B1   3180               M  pagesel safepush
00B2   2???               M  call safepush
00B3   3180               M  pagesel hlluserprog
                      00433 
                      00434 
00B4   3005           00435  movlw T1CKPS1
                      00436 
MPASM  5.35                        TARGET.ASM   3-10-2024  15:32:25         PAGE 15


LOC  OBJECT CODE     LINE SOURCE TEXT
  VALUE

                      00437 
                      00438    
                      00439  FAR_CALL hlluserprog ,safepush
00B5   3180               M  pagesel safepush
00B6   2???               M  call safepush
00B7   3180               M  pagesel hlluserprog
                      00440 
                      00441 
00B8   3004           00442  movlw T1CKPS0
                      00443 
                      00444 
                      00445    
                      00446  FAR_CALL hlluserprog ,safepush
00B9   3180               M  pagesel safepush
00BA   2???               M  call safepush
00BB   3180               M  pagesel hlluserprog
                      00447 
                      00448 
00BC   3002           00449  movlw NOT_T1SYNC
                      00450 
                      00451 
                      00452    
                      00453  FAR_CALL hlluserprog ,safepush
00BD   3180               M  pagesel safepush
00BE   2???               M  call safepush
00BF   3180               M  pagesel hlluserprog
                      00454 
                      00455 
00C0   3003           00456  movlw T1OSCEN
                      00457 
                      00458 
                      00459    
                      00460  FAR_CALL hlluserprog ,safepush
00C1   3180               M  pagesel safepush
00C2   2???               M  call safepush
00C3   3180               M  pagesel hlluserprog
                      00461 
00C4   0020           00462    banksel T1CON
00C5   0818           00463    movfw T1CON
                      00464    
                      00465    
                      00466 
                      00467    
                      00468  HALF_FAR_CALL safepush
00C6   3180               M  pagesel safepush       
00C7   2???               M  call safepush
                      00469 
                      00470 
                      00471  
                      00472  HALF_FAR_CALL clearbit
00C8   3180               M  pagesel clearbit       
00C9   2???               M  call clearbit
                      00473 
MPASM  5.35                        TARGET.ASM   3-10-2024  15:32:25         PAGE 16


LOC  OBJECT CODE     LINE SOURCE TEXT
  VALUE

                      00474 
                      00475  
                      00476  HALF_FAR_CALL clearbit
00CA   3180               M  pagesel clearbit       
00CB   2???               M  call clearbit
                      00477 
                      00478 
                      00479  
                      00480  HALF_FAR_CALL setbit
00CC   3180               M  pagesel setbit         
00CD   2???               M  call setbit
                      00481 
                      00482 
                      00483  
                      00484  HALF_FAR_CALL setbit
00CE   3180               M  pagesel setbit         
00CF   2???               M  call setbit
                      00485 
                      00486 
                      00487  
                      00488  HALF_FAR_CALL clearbit
00D0   3180               M  pagesel clearbit       
00D1   2???               M  call clearbit
                      00489 
                      00490 
                      00491  
                      00492  FAR_CALL hlluserprog,clearbit
00D2   3180               M  pagesel clearbit
00D3   2???               M  call clearbit
00D4   3180               M  pagesel hlluserprog
                      00493 
                      00494  POP
00D5   0013               M  moviw INDF0-- ; preserve the safety of this code under interruptible conditions. 
00D6   0020           00495  banksel T1CON
00D7   0098           00496  movwf T1CON
                      00497  
                      00498 
                      00499 
00D8   3000           00500  movlw TMR1IE
                      00501 
                      00502 
                      00503    
                      00504  FAR_CALL hlluserprog ,safepush
00D9   3180               M  pagesel safepush
00DA   2???               M  call safepush
00DB   3180               M  pagesel hlluserprog
                      00505 
00DC   0021           00506    banksel PIE1
00DD   0811           00507    movfw PIE1
                      00508    
                      00509    
                      00510 
                      00511    
MPASM  5.35                        TARGET.ASM   3-10-2024  15:32:25         PAGE 17


LOC  OBJECT CODE     LINE SOURCE TEXT
  VALUE

                      00512  HALF_FAR_CALL safepush
00DE   3180               M  pagesel safepush       
00DF   2???               M  call safepush
                      00513 
                      00514 
                      00515  
                      00516  FAR_CALL hlluserprog,setbit
00E0   3180               M  pagesel setbit
00E1   2???               M  call setbit
00E2   3180               M  pagesel hlluserprog
                      00517 
                      00518  POP
00E3   0013               M  moviw INDF0-- ; preserve the safety of this code under interruptible conditions. 
00E4   0021           00519  banksel PIE1
00E5   0091           00520  movwf PIE1
                      00521  
                      00522 
                      00523 
00E6   3006           00524  movlw PEIE
                      00525 
                      00526 
                      00527    
                      00528  FAR_CALL hlluserprog ,safepush
00E7   3180               M  pagesel safepush
00E8   2???               M  call safepush
00E9   3180               M  pagesel hlluserprog
                      00529 
00EA   0020           00530    banksel INTCON
00EB   080B           00531    movfw INTCON
                      00532    
                      00533    
                      00534 
                      00535    
                      00536  HALF_FAR_CALL safepush
00EC   3180               M  pagesel safepush       
00ED   2???               M  call safepush
                      00537 
                      00538 
                      00539  
                      00540  FAR_CALL hlluserprog,setbit
00EE   3180               M  pagesel setbit
00EF   2???               M  call setbit
00F0   3180               M  pagesel hlluserprog
                      00541 
                      00542  POP
00F1   0013               M  moviw INDF0-- ; preserve the safety of this code under interruptible conditions. 
00F2   0020           00543  banksel INTCON
00F3   008B           00544  movwf INTCON
                      00545  
                      00546 
                      00547 
00F4   3000           00548  movlw TMR1ON
                      00549 
MPASM  5.35                        TARGET.ASM   3-10-2024  15:32:25         PAGE 18


LOC  OBJECT CODE     LINE SOURCE TEXT
  VALUE

                      00550 
                      00551    
                      00552  FAR_CALL hlluserprog ,safepush
00F5   3180               M  pagesel safepush
00F6   2???               M  call safepush
00F7   3180               M  pagesel hlluserprog
                      00553 
00F8   0020           00554    banksel T1CON
00F9   0818           00555    movfw T1CON
                      00556    
                      00557    
                      00558 
                      00559    
                      00560  HALF_FAR_CALL safepush
00FA   3180               M  pagesel safepush       
00FB   2???               M  call safepush
                      00561 
                      00562 
                      00563  
                      00564  FAR_CALL hlluserprog,setbit
00FC   3180               M  pagesel setbit
00FD   2???               M  call setbit
00FE   3180               M  pagesel hlluserprog
                      00565 
                      00566  POP
00FF   0013               M  moviw INDF0-- ; preserve the safety of this code under interruptible conditions. 
0100   0020           00567  banksel T1CON
0101   0098           00568  movwf T1CON
                      00569  
                      00570 
                      00571 
0102   3007           00572  movlw GIE
                      00573 
                      00574 
                      00575    
                      00576  FAR_CALL hlluserprog ,safepush
0103   3180               M  pagesel safepush
0104   2???               M  call safepush
0105   3180               M  pagesel hlluserprog
                      00577 
0106   0020           00578    banksel INTCON
0107   080B           00579    movfw INTCON
                      00580    
                      00581    
                      00582 
                      00583    
                      00584  HALF_FAR_CALL safepush
0108   3180               M  pagesel safepush       
0109   2???               M  call safepush
                      00585 
                      00586 
                      00587  
                      00588  FAR_CALL hlluserprog,setbit
MPASM  5.35                        TARGET.ASM   3-10-2024  15:32:25         PAGE 19


LOC  OBJECT CODE     LINE SOURCE TEXT
  VALUE

010A   3180               M  pagesel setbit
010B   2???               M  call setbit
010C   3180               M  pagesel hlluserprog
                      00589 
                      00590  POP
010D   0013               M  moviw INDF0-- ; preserve the safety of this code under interruptible conditions. 
010E   0020           00591  banksel INTCON
010F   008B           00592  movwf INTCON
                      00593  
                      00594 
                      00595     
0110                  00596 hllprogend:
0110   2???           00597  goto hllprogend
                      00598  
                      00599 
                      00600 hllt450 CODE
0000                  00601 printdf:
                      00602 
0000   0804           00603  movf FSR0L,w
                      00604  
                      00605 
                      00606  
                      00607  FAR_CALL printdf ,kpush
0001   3180               M  pagesel kpush
0002   2???               M  call kpush
0003   3180               M  pagesel printdf
                      00608 
                      00609  ; char ' '
                      00610 
                      00611 
0004   3020           00612  movlw .32
                      00613 
                      00614 
                      00615    
                      00616  HALF_FAR_CALL safepush
0005   3180               M  pagesel safepush       
0006   2???               M  call safepush
                      00617 
                      00618 
                      00619  
                      00620  FAR_CALL printdf,printch
0007   3180               M  pagesel printch
0008   2???               M  call printch
0009   3180               M  pagesel printdf
                      00621 
                      00622  ; char ' '
                      00623 
                      00624 
000A   3020           00625  movlw .32
                      00626 
                      00627 
                      00628    
                      00629  HALF_FAR_CALL safepush
MPASM  5.35                        TARGET.ASM   3-10-2024  15:32:25         PAGE 20


LOC  OBJECT CODE     LINE SOURCE TEXT
  VALUE

000B   3180               M  pagesel safepush       
000C   2???               M  call safepush
                      00630 
                      00631 
                      00632  
                      00633  FAR_CALL printdf,printch
000D   3180               M  pagesel printch
000E   2???               M  call printch
000F   3180               M  pagesel printdf
                      00634 
                      00635  ; char ' '
                      00636 
                      00637 
0010   3020           00638  movlw .32
                      00639 
                      00640 
                      00641    
                      00642  HALF_FAR_CALL safepush
0011   3180               M  pagesel safepush       
0012   2???               M  call safepush
                      00643 
                      00644 
                      00645  
                      00646  FAR_CALL printdf,printch
0013   3180               M  pagesel printch
0014   2???               M  call printch
0015   3180               M  pagesel printdf
                      00647 
                      00648  ; char ' '
                      00649 
                      00650 
0016   3020           00651  movlw .32
                      00652 
                      00653 
                      00654    
                      00655  HALF_FAR_CALL safepush
0017   3180               M  pagesel safepush       
0018   2???               M  call safepush
                      00656 
                      00657 
                      00658  
                      00659  FAR_CALL printdf,printch
0019   3180               M  pagesel printch
001A   2???               M  call printch
001B   3180               M  pagesel printdf
                      00660 
                      00661 
001C   3074           00662  movlw .116
                      00663  
                      00664 
                      00665 
                      00666 
                      00667    
MPASM  5.35                        TARGET.ASM   3-10-2024  15:32:25         PAGE 21


LOC  OBJECT CODE     LINE SOURCE TEXT
  VALUE

                      00668  FAR_CALL printdf ,safepush
001D   3180               M  pagesel safepush
001E   2???               M  call safepush
001F   3180               M  pagesel printdf
                      00669 
                      00670 
0020   3013           00671  movlw .19
                      00672  
                      00673 
                      00674 
                      00675    
                      00676  FAR_CALL printdf ,safepush
0021   3180               M  pagesel safepush
0022   2???               M  call safepush
0023   3180               M  pagesel printdf
                      00677 
                      00678  POP
0024   0013               M  moviw INDF0-- ; preserve the safety of this code under interruptible conditions. 
0025   002?           00679  banksel prettye
0026   00??           00680  movwf prettye
                      00681  
                      00682 
                      00683  POP
0027   0013               M  moviw INDF0-- ; preserve the safety of this code under interruptible conditions. 
0028   002?           00684  banksel prettym
0029   00??           00685  movwf prettym
                      00686  
                      00687 
                      00688 
002A   3001           00689  movlw .1
                      00690 
                      00691    
                      00692  HALF_FAR_CALL safepush
002B   3180               M  pagesel safepush       
002C   2???               M  call safepush
                      00693 
                      00694 
                      00695  
                      00696  FAR_CALL printdf,parm
002D   3180               M  pagesel parm
002E   2???               M  call parm
002F   3180               M  pagesel printdf
                      00697 
                      00698 
0030   3000           00699  movlw .0
                      00700 
                      00701    
                      00702  HALF_FAR_CALL safepush
0031   3180               M  pagesel safepush       
0032   2???               M  call safepush
                      00703 
                      00704 
                      00705  
MPASM  5.35                        TARGET.ASM   3-10-2024  15:32:25         PAGE 22


LOC  OBJECT CODE     LINE SOURCE TEXT
  VALUE

                      00706  FAR_CALL printdf,parm
0033   3180               M  pagesel parm
0034   2???               M  call parm
0035   3180               M  pagesel printdf
                      00707 
0036   002?           00708    banksel prettym
0037   08??           00709    movfw prettym
                      00710    
                      00711    
                      00712 
                      00713    
                      00714  FAR_CALL printdf ,safepush
0038   3180               M  pagesel safepush
0039   2???               M  call safepush
003A   3180               M  pagesel printdf
                      00715 
003B   002?           00716    banksel prettye
003C   08??           00717    movfw prettye
                      00718    
                      00719    
                      00720 
                      00721    
                      00722  HALF_FAR_CALL safepush
003D   3180               M  pagesel safepush       
003E   2???               M  call safepush
                      00723 
                      00724 
                      00725  
                      00726  HALF_FAR_CALL divf
003F   3180               M  pagesel divf           
0040   2???               M  call divf
                      00727 
                      00728 
                      00729  
                      00730  HALF_FAR_CALL copyf
0041   3180               M  pagesel copyf          
0042   2???               M  call copyf
                      00731 
                      00732 
                      00733  
                      00734  FAR_CALL printdf,ftou
0043   3180               M  pagesel ftou
0044   2???               M  call ftou
0045   3180               M  pagesel printdf
                      00735 
                      00736  ; char '0'
                      00737 
                      00738 
0046   3030           00739  movlw .48
                      00740 
                      00741 
                      00742    
                      00743  HALF_FAR_CALL safepush
MPASM  5.35                        TARGET.ASM   3-10-2024  15:32:25         PAGE 23


LOC  OBJECT CODE     LINE SOURCE TEXT
  VALUE

0047   3180               M  pagesel safepush       
0048   2???               M  call safepush
                      00744 
                      00745 
                      00746  
                      00747  HALF_FAR_CALL add
0049   3180               M  pagesel add            
004A   2???               M  call add
                      00748 
                      00749 
                      00750  
                      00751  FAR_CALL printdf,printch
004B   3180               M  pagesel printch
004C   2???               M  call printch
004D   3180               M  pagesel printdf
                      00752 
                      00753 
004E   3001           00754  movlw .1
                      00755 
                      00756    
                      00757  HALF_FAR_CALL safepush
004F   3180               M  pagesel safepush       
0050   2???               M  call safepush
                      00758 
                      00759 
                      00760  
                      00761  FAR_CALL printdf,parm
0051   3180               M  pagesel parm
0052   2???               M  call parm
0053   3180               M  pagesel printdf
                      00762 
                      00763 
0054   3000           00764  movlw .0
                      00765 
                      00766    
                      00767  HALF_FAR_CALL safepush
0055   3180               M  pagesel safepush       
0056   2???               M  call safepush
                      00768 
                      00769 
                      00770  
                      00771  FAR_CALL printdf,parm
0057   3180               M  pagesel parm
0058   2???               M  call parm
0059   3180               M  pagesel printdf
                      00772 
                      00773 
005A   30FF           00774  movlw -.1
                      00775 
                      00776    
                      00777  HALF_FAR_CALL safepush
005B   3180               M  pagesel safepush       
005C   2???               M  call safepush
MPASM  5.35                        TARGET.ASM   3-10-2024  15:32:25         PAGE 24


LOC  OBJECT CODE     LINE SOURCE TEXT
  VALUE

                      00778 
                      00779 
                      00780  
                      00781  FAR_CALL printdf,parm
005D   3180               M  pagesel parm
005E   2???               M  call parm
005F   3180               M  pagesel printdf
                      00782 
                      00783 
0060   30FE           00784  movlw -.2
                      00785 
                      00786    
                      00787  HALF_FAR_CALL safepush
0061   3180               M  pagesel safepush       
0062   2???               M  call safepush
                      00788 
                      00789 
                      00790  
                      00791  HALF_FAR_CALL parm
0063   3180               M  pagesel parm           
0064   2???               M  call parm
                      00792 
                      00793 
                      00794  
                      00795  HALF_FAR_CALL ftou
0065   3180               M  pagesel ftou           
0066   2???               M  call ftou
                      00796 
                      00797 
                      00798  
                      00799  FAR_CALL printdf,utof
0067   3180               M  pagesel utof
0068   2???               M  call utof
0069   3180               M  pagesel printdf
                      00800 
                      00801 
006A   3080           00802  movlw .128
                      00803  
                      00804 
                      00805 
                      00806 
                      00807    
                      00808  FAR_CALL printdf ,safepush
006B   3180               M  pagesel safepush
006C   2???               M  call safepush
006D   3180               M  pagesel printdf
                      00809 
                      00810 
006E   3000           00811  movlw .0
                      00812  
                      00813 
                      00814 
                      00815    
MPASM  5.35                        TARGET.ASM   3-10-2024  15:32:25         PAGE 25


LOC  OBJECT CODE     LINE SOURCE TEXT
  VALUE

                      00816  FAR_CALL printdf ,safepush
006F   3180               M  pagesel safepush
0070   2???               M  call safepush
0071   3180               M  pagesel printdf
                      00817 
0072   002?           00818    banksel prettym
0073   08??           00819    movfw prettym
                      00820    
                      00821    
                      00822 
                      00823    
                      00824  FAR_CALL printdf ,safepush
0074   3180               M  pagesel safepush
0075   2???               M  call safepush
0076   3180               M  pagesel printdf
                      00825 
0077   002?           00826    banksel prettye
0078   08??           00827    movfw prettye
                      00828    
                      00829    
                      00830 
                      00831    
                      00832  HALF_FAR_CALL safepush
0079   3180               M  pagesel safepush       
007A   2???               M  call safepush
                      00833 
                      00834 
                      00835  
                      00836  HALF_FAR_CALL mulf
007B   3180               M  pagesel mulf           
007C   2???               M  call mulf
                      00837 
                      00838 
                      00839  
                      00840  HALF_FAR_CALL mulf
007D   3180               M  pagesel mulf           
007E   2???               M  call mulf
                      00841 
                      00842 
                      00843  
                      00844  HALF_FAR_CALL addf
007F   3180               M  pagesel addf           
0080   2???               M  call addf
                      00845 
                      00846 
                      00847  
                      00848  HALF_FAR_CALL printdigretrest
0081   3180               M  pagesel printdigretrest 
0082   2???               M  call printdigretrest
                      00849 
                      00850 
                      00851  
                      00852  HALF_FAR_CALL printdigretrest
MPASM  5.35                        TARGET.ASM   3-10-2024  15:32:25         PAGE 26


LOC  OBJECT CODE     LINE SOURCE TEXT
  VALUE

0083   3180               M  pagesel printdigretrest 
0084   2???               M  call printdigretrest
                      00853 
                      00854 
                      00855  
                      00856  HALF_FAR_CALL printdigretrest
0085   3180               M  pagesel printdigretrest 
0086   2???               M  call printdigretrest
                      00857 
                      00858 
                      00859  
                      00860  HALF_FAR_CALL printdigretrest
0087   3180               M  pagesel printdigretrest 
0088   2???               M  call printdigretrest
                      00861 
                      00862 
                      00863  
                      00864  HALF_FAR_CALL printdigretrest
0089   3180               M  pagesel printdigretrest 
008A   2???               M  call printdigretrest
                      00865 
                      00866 
                      00867  
                      00868  FAR_CALL printdf,printdigretrest
008B   3180               M  pagesel printdigretrest
008C   2???               M  call printdigretrest
008D   3180               M  pagesel printdf
                      00869 
                      00870  ; char '.'
                      00871 
                      00872 
008E   302E           00873  movlw .46
                      00874 
                      00875 
                      00876    
                      00877  HALF_FAR_CALL safepush
008F   3180               M  pagesel safepush       
0090   2???               M  call safepush
                      00878 
                      00879 
                      00880  
                      00881  HALF_FAR_CALL printch
0091   3180               M  pagesel printch        
0092   2???               M  call printch
                      00882 
                      00883 
                      00884  
                      00885  HALF_FAR_CALL printdigretrest
0093   3180               M  pagesel printdigretrest 
0094   2???               M  call printdigretrest
                      00886 
                      00887 
                      00888  
MPASM  5.35                        TARGET.ASM   3-10-2024  15:32:25         PAGE 27


LOC  OBJECT CODE     LINE SOURCE TEXT
  VALUE

                      00889  HALF_FAR_CALL printdigretrest
0095   3180               M  pagesel printdigretrest 
0096   2???               M  call printdigretrest
                      00890 
                      00891 
                      00892  
                      00893  HALF_FAR_CALL printdigretrest
0097   3180               M  pagesel printdigretrest 
0098   2???               M  call printdigretrest
                      00894 
                      00895 
                      00896  
                      00897  HALF_FAR_CALL printdigretrest
0099   3180               M  pagesel printdigretrest 
009A   2???               M  call printdigretrest
                      00898 
                      00899 
                      00900  
                      00901  HALF_FAR_CALL printdigretrest
009B   3180               M  pagesel printdigretrest 
009C   2???               M  call printdigretrest
                      00902 
                      00903 
                      00904  
                      00905  HALF_FAR_CALL printdigretrest
009D   3180               M  pagesel printdigretrest 
009E   2???               M  call printdigretrest
                      00906 
                      00907 
                      00908  
                      00909  FAR_CALL printdf,kpop
009F   3180               M  pagesel kpop
00A0   2???               M  call kpop
00A1   3180               M  pagesel printdf
                      00910 ; LOAD POINTER
                      00911 
00A2   0084           00912  movwf FSR0L
                      00913  
                      00914 
                      00915  DISCARD
00A3   0384               M  decf FSR0L,f 
                      00916 
                      00917 
                      00918  DISCARD
00A4   0384               M  decf FSR0L,f 
                      00919 
                      00920 
00A5   0008           00921  return
                      00922  
                      00923 
                      00924 hllt453 CODE
0000                  00925 printdigretrest:
                      00926 
MPASM  5.35                        TARGET.ASM   3-10-2024  15:32:25         PAGE 28


LOC  OBJECT CODE     LINE SOURCE TEXT
  VALUE

0000   0804           00927  movf FSR0L,w
                      00928  
                      00929 
                      00930  
                      00931  FAR_CALL printdigretrest ,kpush
0001   3180               M  pagesel kpush
0002   2???               M  call kpush
0003   3180               M  pagesel printdigretrest
                      00932 
0004   002?           00933    banksel prettym
0005   08??           00934    movfw prettym
                      00935    
                      00936    
                      00937 
                      00938    
                      00939  FAR_CALL printdigretrest ,safepush
0006   3180               M  pagesel safepush
0007   2???               M  call safepush
0008   3180               M  pagesel printdigretrest
                      00940 
0009   002?           00941    banksel prettye
000A   08??           00942    movfw prettye
                      00943    
                      00944    
                      00945 
                      00946    
                      00947  FAR_CALL printdigretrest ,safepush
000B   3180               M  pagesel safepush
000C   2???               M  call safepush
000D   3180               M  pagesel printdigretrest
                      00948 
                      00949 
000E   3020           00950  movlw .32
                      00951  
                      00952 
                      00953 
                      00954 
                      00955    
                      00956  FAR_CALL printdigretrest ,safepush
000F   3180               M  pagesel safepush
0010   2???               M  call safepush
0011   3180               M  pagesel printdigretrest
                      00957 
                      00958 
0012   3003           00959  movlw .3
                      00960  
                      00961 
                      00962 
                      00963    
                      00964  HALF_FAR_CALL safepush
0013   3180               M  pagesel safepush       
0014   2???               M  call safepush
                      00965 
MPASM  5.35                        TARGET.ASM   3-10-2024  15:32:25         PAGE 29


LOC  OBJECT CODE     LINE SOURCE TEXT
  VALUE

                      00966 
                      00967  
                      00968  FAR_CALL printdigretrest,divf
0015   3180               M  pagesel divf
0016   2???               M  call divf
0017   3180               M  pagesel printdigretrest
                      00969 
                      00970  POP
0018   0013               M  moviw INDF0-- ; preserve the safety of this code under interruptible conditions. 
0019   002?           00971  banksel prettye
001A   00??           00972  movwf prettye
                      00973  
                      00974 
                      00975  POP
001B   0013               M  moviw INDF0-- ; preserve the safety of this code under interruptible conditions. 
001C   002?           00976  banksel prettym
001D   00??           00977  movwf prettym
                      00978  
                      00979 
                      00980 
                      00981  
                      00982  HALF_FAR_CALL copyf
001E   3180               M  pagesel copyf          
001F   2???               M  call copyf
                      00983 
                      00984 
                      00985  
                      00986  HALF_FAR_CALL copyf
0020   3180               M  pagesel copyf          
0021   2???               M  call copyf
                      00987 
                      00988 
                      00989  
                      00990  FAR_CALL printdigretrest,iszerof
0022   3180               M  pagesel iszerof
0023   2???               M  call iszerof
0024   3180               M  pagesel printdigretrest
                      00991 
                      00992  POP
0025   0013               M  moviw INDF0-- ; preserve the safety of this code under interruptible conditions. 
0026   3A00           00993  xorlw .0
0027   1903           00994  btfsc STATUS,Z
0028   2???           00995  goto hlllb51J1 
                      00996  
                      00997  ; char '0'
                      00998 
                      00999 
0029   3030           01000  movlw .48
                      01001 
                      01002 
                      01003    
                      01004  HALF_FAR_CALL safepush
002A   3180               M  pagesel safepush       
MPASM  5.35                        TARGET.ASM   3-10-2024  15:32:25         PAGE 30


LOC  OBJECT CODE     LINE SOURCE TEXT
  VALUE

002B   2???               M  call safepush
                      01005 
                      01006 
                      01007  
                      01008  FAR_CALL printdigretrest,printch
002C   3180               M  pagesel printch
002D   2???               M  call printch
002E   3180               M  pagesel printdigretrest
                      01009 
                      01010  
002F   2???           01011  goto hlllb51J2
                      01012  
                      01013 
0030                  01014 hlllb51J1:
                      01015 
                      01016 
                      01017  
                      01018  FAR_CALL printdigretrest,copyf
0030   3180               M  pagesel copyf
0031   2???               M  call copyf
0032   3180               M  pagesel printdigretrest
                      01019 
0033   002?           01020    banksel prettym
0034   08??           01021    movfw prettym
                      01022    
                      01023    
                      01024 
                      01025    
                      01026  FAR_CALL printdigretrest ,safepush
0035   3180               M  pagesel safepush
0036   2???               M  call safepush
0037   3180               M  pagesel printdigretrest
                      01027 
0038   002?           01028    banksel prettye
0039   08??           01029    movfw prettye
                      01030    
                      01031    
                      01032 
                      01033    
                      01034  HALF_FAR_CALL safepush
003A   3180               M  pagesel safepush       
003B   2???               M  call safepush
                      01035 
                      01036 
                      01037  
                      01038  HALF_FAR_CALL divf
003C   3180               M  pagesel divf           
003D   2???               M  call divf
                      01039 
                      01040 
                      01041  
                      01042  HALF_FAR_CALL ftou
003E   3180               M  pagesel ftou           
MPASM  5.35                        TARGET.ASM   3-10-2024  15:32:25         PAGE 31


LOC  OBJECT CODE     LINE SOURCE TEXT
  VALUE

003F   2???               M  call ftou
                      01043 
                      01044 
                      01045  
                      01046  FAR_CALL printdigretrest,copytop
0040   3180               M  pagesel copytop
0041   2???               M  call copytop
0042   3180               M  pagesel printdigretrest
                      01047 
                      01048  ; char '0'
                      01049 
                      01050 
0043   3030           01051  movlw .48
                      01052 
                      01053 
                      01054    
                      01055  HALF_FAR_CALL safepush
0044   3180               M  pagesel safepush       
0045   2???               M  call safepush
                      01056 
                      01057 
                      01058  
                      01059  HALF_FAR_CALL add
0046   3180               M  pagesel add            
0047   2???               M  call add
                      01060 
                      01061 
                      01062  
                      01063  FAR_CALL printdigretrest,printch
0048   3180               M  pagesel printch
0049   2???               M  call printch
004A   3180               M  pagesel printdigretrest
                      01064 
                      01065 
004B                  01066 hlllb51J2:
                      01067 
                      01068 
                      01069  
                      01070  FAR_CALL printdigretrest,utof
004B   3180               M  pagesel utof
004C   2???               M  call utof
004D   3180               M  pagesel printdigretrest
                      01071 
                      01072 
004E   3080           01073  movlw .128
                      01074  
                      01075 
                      01076 
                      01077 
                      01078    
                      01079  FAR_CALL printdigretrest ,safepush
004F   3180               M  pagesel safepush
0050   2???               M  call safepush
MPASM  5.35                        TARGET.ASM   3-10-2024  15:32:25         PAGE 32


LOC  OBJECT CODE     LINE SOURCE TEXT
  VALUE

0051   3180               M  pagesel printdigretrest
                      01080 
                      01081 
0052   3000           01082  movlw .0
                      01083  
                      01084 
                      01085 
                      01086    
                      01087  FAR_CALL printdigretrest ,safepush
0053   3180               M  pagesel safepush
0054   2???               M  call safepush
0055   3180               M  pagesel printdigretrest
                      01088 
0056   002?           01089    banksel prettym
0057   08??           01090    movfw prettym
                      01091    
                      01092    
                      01093 
                      01094    
                      01095  FAR_CALL printdigretrest ,safepush
0058   3180               M  pagesel safepush
0059   2???               M  call safepush
005A   3180               M  pagesel printdigretrest
                      01096 
005B   002?           01097    banksel prettye
005C   08??           01098    movfw prettye
                      01099    
                      01100    
                      01101 
                      01102    
                      01103  HALF_FAR_CALL safepush
005D   3180               M  pagesel safepush       
005E   2???               M  call safepush
                      01104 
                      01105 
                      01106  
                      01107  HALF_FAR_CALL mulf
005F   3180               M  pagesel mulf           
0060   2???               M  call mulf
                      01108 
                      01109 
                      01110  
                      01111  HALF_FAR_CALL mulf
0061   3180               M  pagesel mulf           
0062   2???               M  call mulf
                      01112 
                      01113 
                      01114  
                      01115  HALF_FAR_CALL addf
0063   3180               M  pagesel addf           
0064   2???               M  call addf
                      01116 
                      01117 
MPASM  5.35                        TARGET.ASM   3-10-2024  15:32:25         PAGE 33


LOC  OBJECT CODE     LINE SOURCE TEXT
  VALUE

                      01118  
                      01119  FAR_CALL printdigretrest,kpop
0065   3180               M  pagesel kpop
0066   2???               M  call kpop
0067   3180               M  pagesel printdigretrest
                      01120  
                      01121 #ifdef HLLMULTITASK 
0068   08??           01122  movf in_isr,f ;In shared RAM, no need for BANKSEL
0069   1903           01123  btfsc STATUS,Z
006A   2???           01124  goto $+3
006B   00??           01125  movwf pbase+1 ;in_isr... the "in isr" clause comes first in all of these macros. This
006C   2???           01126  goto $+2      ; is because isr execution is preemptive, and returns only at the 
006D   00??           01127  movwf pbase   ; completion of all triggered routines. So, it can starve out the main
                      01128 #else          ; thread, and speeding up isr execution helps this problem. In most of
                      01129  movwf pbase   ; these macros, in-isr execution takes just 4 instruction cycles.
                      01130 #endif 
                      01131 
                      01132 
                      01133  POP
006E   0013               M  moviw INDF0-- ; preserve the safety of this code under interruptible conditions. 
                      01134  
                      01135  FAR_CALL printdigretrest ,kpush
006F   3180               M  pagesel kpush
0070   2???               M  call kpush
0071   3180               M  pagesel printdigretrest
                      01136  
                      01137 
                      01138  POP
0072   0013               M  moviw INDF0-- ; preserve the safety of this code under interruptible conditions. 
                      01139  
                      01140  FAR_CALL printdigretrest ,kpush
0073   3180               M  pagesel kpush
0074   2???               M  call kpush
0075   3180               M  pagesel printdigretrest
                      01141  
                      01142 #ifdef HLLMULTITASK 
0076   08??           01143  movf in_isr,f ;In shared RAM, no need for BANKSEL
0077   1903           01144  btfsc STATUS,Z
0078   2???           01145  goto $+3
0079   08??           01146  movf pbase+1,w                 ;in_isr
007A   2???           01147  goto $+2
007B   08??           01148  movf pbase,w   ;not in_isr
                      01149 #else
                      01150  movf pbase,w   
                      01151 #endif  
                      01152 
                      01153  ; LOAD POINTER
                      01154 
007C   0084           01155  movwf FSR0L
                      01156  
                      01157 
                      01158  DISCARD
007D   0384               M  decf FSR0L,f 
MPASM  5.35                        TARGET.ASM   3-10-2024  15:32:25         PAGE 34


LOC  OBJECT CODE     LINE SOURCE TEXT
  VALUE

                      01159 
                      01160 
                      01161  DISCARD
007E   0384               M  decf FSR0L,f 
                      01162 
                      01163 
                      01164  
                      01165  HALF_FAR_CALL kpop
007F   3180               M  pagesel kpop           
0080   2???               M  call kpop
                      01166 
                      01167 
                      01168  
                      01169  HALF_FAR_CALL safepush
0081   3180               M  pagesel safepush       
0082   2???               M  call safepush
                      01170  
                      01171 
                      01172  
                      01173  HALF_FAR_CALL kpop
0083   3180               M  pagesel kpop           
0084   2???               M  call kpop
                      01174 
                      01175 
                      01176  
                      01177  FAR_CALL printdigretrest ,safepush
0085   3180               M  pagesel safepush
0086   2???               M  call safepush
0087   3180               M  pagesel printdigretrest
                      01178  
                      01179 
0088   0008           01180  return
                      01181  
0089                  01182 hllprgen2:
0089   2???           01183  goto hllprgen2
                      01184  
                      01185 
                      01186 
                      01187 
                      01188 
                      01189 
                      01190  
                      01191 
                      01192  
                      01193 hlog1h CODE
0000                  01194 andu: 
                      01195  POP
0000   0013               M  moviw INDF0-- ; preserve the safety of this code under interruptible conditions. 
0001   0500           01196  andwf HLINDF,w
0002   0384           01197  decf HLFSR,f 
                      01198  PUSH
0003   0018               M  movwi ++INDF0
0004   0008           01199  return
MPASM  5.35                        TARGET.ASM   3-10-2024  15:32:25         PAGE 35


LOC  OBJECT CODE     LINE SOURCE TEXT
  VALUE

                      01200  
                      01201 
                      01202 
                      01203 
                      01204 
                      01205 
                      01206 
                      01207 
                      01208  
                      01209 
                      01210 
                      01211 hlog1a CODE
                      01212 
                      01213 
                      01214 
                      01215 #define margp2 hllblss00
                      01216 
                      01217 
0000                  01218 clearbit:  
                      01219 #ifdef HLLMULTITASK
                      01220 #ifdef HLLGUARDhllblss 
0000   08??           01221  movf in_isr,f  
0001   1903           01222  btfsc STATUS,Z
                      01223  
                      01224 
                      01225 
0002   2???           01226  goto clearbit0
                      01227 
                      01228  POP
0003   0013               M  moviw INDF0-- ; preserve the safety of this code under interruptible conditions. 
0004   002?           01229  banksel margp2
0005   00??           01230  movwf margp2
                      01231  POP 
0006   0013               M  moviw INDF0-- ; preserve the safety of this code under interruptible conditions. 
0007   3A00           01232  xorlw .0
0008   1D03           01233  btfss STATUS,Z
0009   2???           01234  goto tff00h
                      01235  
000A   08??           01236  movfw margp2
000B   39FE           01237  andlw .255-.1
000C   2???           01238  goto tff99h
000D                  01239 tff00h: 
                      01240  
000D   3A01           01241  xorlw .1
000E   1D03           01242  btfss STATUS,Z
000F   2???           01243  goto tff01h
                      01244  
0010   08??           01245  movfw margp2
0011   39FD           01246  andlw .255-.2
0012   2???           01247  goto tff99h
0013                  01248 tff01h: 
0013   3A01           01249  xorlw .1
0014   3A02           01250  xorlw .2
MPASM  5.35                        TARGET.ASM   3-10-2024  15:32:25         PAGE 36


LOC  OBJECT CODE     LINE SOURCE TEXT
  VALUE

0015   1D03           01251  btfss STATUS,Z
0016   2???           01252  goto tff02h
                      01253  
0017   08??           01254  movfw margp2
0018   39FB           01255  andlw .255-.4
0019   2???           01256  goto tff99h
001A                  01257 tff02h: 
001A   3A02           01258  xorlw .2
001B   3A03           01259  xorlw .3
001C   1D03           01260  btfss STATUS,Z
001D   2???           01261  goto tff03h
                      01262  
001E   08??           01263  movfw margp2
001F   39F7           01264  andlw .255-.8
0020   2???           01265  goto tff99h
0021                  01266 tff03h: 
0021   3A03           01267  xorlw .3
0022   3A04           01268  xorlw .4
0023   1D03           01269  btfss STATUS,Z
0024   2???           01270  goto tff04h
                      01271  
0025   08??           01272  movfw margp2
0026   39EF           01273  andlw .255-.16
0027   2???           01274  goto tff99h
0028                  01275 tff04h: 
0028   3A04           01276  xorlw .4
0029   3A05           01277  xorlw .5
002A   1D03           01278  btfss STATUS,Z
002B   2???           01279  goto tff05h
                      01280  
002C   08??           01281  movfw margp2
002D   39DF           01282  andlw .255-.32
002E   2???           01283  goto tff99h
002F                  01284 tff05h: 
002F   3A05           01285  xorlw .5
0030   3A06           01286  xorlw .6
0031   1D03           01287  btfss STATUS,Z
0032   2???           01288  goto tff07h
                      01289  
0033   08??           01290  movfw margp2
0034   39BF           01291  andlw .255-.64
0035   2???           01292  goto tff99h
0036                  01293 tff07h: 
                      01294  
0036   08??           01295  movfw margp2
0037   397F           01296  andlw .255-.128
0038                  01297 tff99h:  
                      01298  PUSH
0038   0018               M  movwi ++INDF0
0039   0008           01299  return
                      01300 
                      01301 
                      01302 
MPASM  5.35                        TARGET.ASM   3-10-2024  15:32:25         PAGE 37


LOC  OBJECT CODE     LINE SOURCE TEXT
  VALUE

                      01303 
                      01304 #undefine margp2
                      01305 
                      01306 
                      01307 #define margp2 hllblss00+1
                      01308 
                      01309 
003A                  01310 clearbit0:
                      01311 #endif
                      01312 #endif
                      01313 
                      01314  POP
003A   0013               M  moviw INDF0-- ; preserve the safety of this code under interruptible conditions. 
003B   002?           01315  banksel margp2
003C   00??           01316  movwf margp2
                      01317  POP 
003D   0013               M  moviw INDF0-- ; preserve the safety of this code under interruptible conditions. 
003E   3A00           01318  xorlw .0
003F   1D03           01319  btfss STATUS,Z
0040   2???           01320  goto hllAAAAA
                      01321  
0041   08??           01322  movfw margp2
0042   39FE           01323  andlw .255-.1
0043   2???           01324  goto hllHAAAA
0044                  01325 hllAAAAA: 
                      01326  
0044   3A01           01327  xorlw .1
0045   1D03           01328  btfss STATUS,Z
0046   2???           01329  goto hllBAAAA
                      01330  
0047   08??           01331  movfw margp2
0048   39FD           01332  andlw .255-.2
0049   2???           01333  goto hllHAAAA
004A                  01334 hllBAAAA: 
004A   3A01           01335  xorlw .1
004B   3A02           01336  xorlw .2
004C   1D03           01337  btfss STATUS,Z
004D   2???           01338  goto hllCAAAA
                      01339  
004E   08??           01340  movfw margp2
004F   39FB           01341  andlw .255-.4
0050   2???           01342  goto hllHAAAA
0051                  01343 hllCAAAA: 
0051   3A02           01344  xorlw .2
0052   3A03           01345  xorlw .3
0053   1D03           01346  btfss STATUS,Z
0054   2???           01347  goto hllDAAAA
                      01348  
0055   08??           01349  movfw margp2
0056   39F7           01350  andlw .255-.8
0057   2???           01351  goto hllHAAAA
0058                  01352 hllDAAAA: 
0058   3A03           01353  xorlw .3
MPASM  5.35                        TARGET.ASM   3-10-2024  15:32:25         PAGE 38


LOC  OBJECT CODE     LINE SOURCE TEXT
  VALUE

0059   3A04           01354  xorlw .4
005A   1D03           01355  btfss STATUS,Z
005B   2???           01356  goto hllEAAAA
                      01357  
005C   08??           01358  movfw margp2
005D   39EF           01359  andlw .255-.16
005E   2???           01360  goto hllHAAAA
005F                  01361 hllEAAAA: 
005F   3A04           01362  xorlw .4
0060   3A05           01363  xorlw .5
0061   1D03           01364  btfss STATUS,Z
0062   2???           01365  goto hllFAAAA
                      01366  
0063   08??           01367  movfw margp2
0064   39DF           01368  andlw .255-.32
0065   2???           01369  goto hllHAAAA
0066                  01370 hllFAAAA: 
0066   3A05           01371  xorlw .5
0067   3A06           01372  xorlw .6
0068   1D03           01373  btfss STATUS,Z
0069   2???           01374  goto hllGAAAA
                      01375  
006A   08??           01376  movfw margp2
006B   39BF           01377  andlw .255-.64
006C   2???           01378  goto hllHAAAA
006D                  01379 hllGAAAA: 
                      01380  
006D   08??           01381  movfw margp2
006E   397F           01382  andlw .255-.128
006F                  01383 hllHAAAA:  
                      01384  PUSH
006F   0018               M  movwi ++INDF0
0070   0008           01385  return
                      01386 
                      01387 
                      01388 
                      01389 
                      01390 #undefine margp2
                      01391 
                      01392 
                      01393 
                      01394 
                      01395  
                      01396 
                      01397 cp44top CODE 
                      01398 
0000                  01399 copytop:
                      01400 POP
0000   0013               M  moviw INDF0-- ; preserve the safety of this code under interruptible conditions. 
                      01401 PUSH
0001   0018               M  movwi ++INDF0
                      01402 PUSH
0002   0018               M  movwi ++INDF0
MPASM  5.35                        TARGET.ASM   3-10-2024  15:32:25         PAGE 39


LOC  OBJECT CODE     LINE SOURCE TEXT
  VALUE

0003   0008           01403 return
                      01404 
                      01405 
                      01406 
                      01407 
                      01408 
                      01409 
                      01410 
                      01411  
                      01412 
                      01413 
                      01414 
                      01415 ukrnl2 UDATA
0000                  01416 stack res HLOE_STACK_SIZE
                      01417  
                      01418 ukrnl3 UDATA 
0000                  01419 alt_stack res HLOE_STACK2_SIZE
                      01420  
                      01421 
                      01422 
                      01423 ukernl udata 
                      01424 
                      01425 
                      01426 
                      01427 
                      01428 
0000                  01429 hllblss00 res 1           
                      01430 #ifdef HLLMULTITASK
                      01431 #ifdef HLLGUARDhllblss
0001                  01432 hllblss00isr res 1      
                      01433 #endif
                      01434 #endif
                      01435 
0002                  01436 hllblss01 res 1    
                      01437 #ifdef HLLMULTITASK
                      01438 #ifdef HLLGUARDhllblss
0003                  01439 hllblss01isr res 1      
                      01440 #endif
                      01441 #endif
                      01442 
0004                  01443 hllblss02 res 1    
                      01444 #ifdef HLLMULTITASK
                      01445 #ifdef HLLGUARDhllblss
0005                  01446 hllblss02isr res 1      
                      01447 #endif
                      01448 #endif
                      01449   
                      01450 ukrshr udata_shr
                      01451 
                      01452 
0000                  01453 softstack0 res 1                
                      01454 #ifdef HLLMULTITASK
0001                  01455 softstack0isr res 1
MPASM  5.35                        TARGET.ASM   3-10-2024  15:32:25         PAGE 40


LOC  OBJECT CODE     LINE SOURCE TEXT
  VALUE

                      01456 #endif
                      01457 
0002                  01458 softstack1 res 1                
                      01459 #ifdef HLLMULTITASK
0003                  01460 softstack1isr res 1
                      01461 #endif
                      01462 
0004                  01463 softstack2 res 1                
                      01464 #ifdef HLLMULTITASK
0005                  01465 softstack2isr res 1
                      01466 #endif
                      01467 
0006                  01468 alt_fsr res 1
0007                  01469 W_Save res 1 
0008                  01470 STATUS_Save res 1
0009                  01471 FSR_Save res 1
000A                  01472 ALT_Save res 1
000B                  01473 in_isr res 1
                      01474 
                      01475 hllkrna00 CODE
                      01476 
                      01477  
                      01478 
                      01479 
                      01480 #define mterm hllblss00
                      01481 
                      01482 
0000                  01483 mul:  
                      01484 #ifdef HLLMULTITASK
                      01485 #ifdef HLLGUARDhllblss 
0000   08??           01486  movf in_isr,f  
0001   1903           01487  btfsc STATUS,Z
                      01488  
                      01489 
                      01490 
0002   2???           01491  goto mul0
                      01492 
                      01493  POP
0003   0013               M  moviw INDF0-- ; preserve the safety of this code under interruptible conditions. 
0004   002?           01494  banksel mterm 
0005   00??           01495  movwf mterm
0006   0103           01496  clrw 
0007   0700           01497  addwf HLINDF,w 
0008   03??           01498  decf mterm,f 
0009   1D03           01499  btfss STATUS,Z 
000A   2???           01500  goto $-3
000B   0080           01501  movwf HLINDF
000C   0008           01502  return
                      01503 
                      01504 
                      01505 
                      01506 #undefine mterm
                      01507 
MPASM  5.35                        TARGET.ASM   3-10-2024  15:32:25         PAGE 41


LOC  OBJECT CODE     LINE SOURCE TEXT
  VALUE

                      01508 
                      01509 #define mterm hllblss00+1
                      01510 
                      01511 
000D                  01512 mul0:
                      01513 #endif
                      01514 #endif
                      01515 
                      01516  POP
000D   0013               M  moviw INDF0-- ; preserve the safety of this code under interruptible conditions. 
000E   002?           01517  banksel mterm 
000F   00??           01518  movwf mterm
0010   0103           01519  clrw 
0011   0700           01520  addwf HLINDF,w 
0012   03??           01521  decf mterm,f 
0013   1D03           01522  btfss STATUS,Z 
0014   2???           01523  goto $-3
0015   0080           01524  movwf HLINDF
0016   0008           01525  return
                      01526 
                      01527 
                      01528 
                      01529 #undefine mterm
                      01530 hllkrna01 CODE
                      01531 
0000                  01532 add: 
                      01533  POP
0000   0013               M  moviw INDF0-- ; preserve the safety of this code under interruptible conditions. 
0001   0700           01534  addwf HLINDF,w
0002   0384           01535  decf HLFSR,f 
                      01536  PUSH
0003   0018               M  movwi ++INDF0
0004   0008           01537  return
                      01538  
                      01539 hllkrna02 CODE 
                      01540 
0000                  01541 negti:  
0000   0980           01542  comf HLINDF,f
0001   0A80           01543  incf HLINDF,f
0002   0008           01544  return
                      01545  
                      01546 hllkrna03 CODE 
                      01547  
0000                  01548 printch:
                      01549  POP
0000   0013               M  moviw INDF0-- ; preserve the safety of this code under interruptible conditions. 
                      01550 #ifdef HLLMULTITASK 
                      01551  
0001   0020           01552  banksel PIR1
0002   1E11           01553  btfss PIR1,TXIF  
0003   2???           01554  goto $-1 
                      01555 #endif 
                      01556  
MPASM  5.35                        TARGET.ASM   3-10-2024  15:32:25         PAGE 42


LOC  OBJECT CODE     LINE SOURCE TEXT
  VALUE

0004   0023           01557  banksel TXREG
0005   009A           01558  movwf TXREG  
                      01559  
0006   0020           01560  banksel PIR1
0007   1E11           01561  btfss PIR1,TXIF  
0008   2???           01562  goto $-1  
0009   0008           01563  return  
                      01564 
                      01565 
                      01566 
                      01567 
                      01568 hllkrna04 CODE
                      01569  
                      01570 
                      01571 
                      01572 #define mterm hllblss00
                      01573 
                      01574 
                      01575 #define mdiv hllblss01
                      01576 
                      01577 
                      01578 #define mquot hllblss02
                      01579 
                      01580 
0000                  01581 modu:  
                      01582 #ifdef HLLMULTITASK
                      01583 #ifdef HLLGUARDhllblss 
0000   08??           01584  movf in_isr,f  
0001   1903           01585  btfsc STATUS,Z
                      01586  
                      01587 
                      01588 
0002   2???           01589  goto modu0
                      01590 
0003   002?           01591  banksel mquot 
0004   01??           01592  clrf mquot
                      01593  POP
0005   0013               M  moviw INDF0-- ; preserve the safety of this code under interruptible conditions. 
0006   00??           01594  movwf mdiv
                      01595  POP
0007   0013               M  moviw INDF0-- ; preserve the safety of this code under interruptible conditions. 
0008   00??           01596  movwf mterm
0009   08??           01597  movfw mdiv
000A   02??           01598  subwf mterm,f
000B   1C03           01599  btfss STATUS,C 
000C   2???           01600  goto $+3
000D   0A??           01601  incf mquot,f 
000E   2???           01602  goto $-4
000F   07??           01603  addwf mterm,w
                      01604  PUSH
0010   0018               M  movwi ++INDF0
0011   0008           01605  return 
                      01606 
MPASM  5.35                        TARGET.ASM   3-10-2024  15:32:25         PAGE 43


LOC  OBJECT CODE     LINE SOURCE TEXT
  VALUE

                      01607 
                      01608 
                      01609 #undefine mterm
                      01610 
                      01611 
                      01612 #undefine mdiv
                      01613 
                      01614 
                      01615 #undefine mquot
                      01616 
                      01617 
                      01618 #define mterm hllblss00+1
                      01619 
                      01620 
                      01621 #define mdiv hllblss01+1
                      01622 
                      01623 
                      01624 #define mquot hllblss02+1
                      01625 
                      01626 
0012                  01627 modu0:
                      01628 #endif
                      01629 #endif
                      01630 
0012   002?           01631  banksel mquot 
0013   01??           01632  clrf mquot
                      01633  POP
0014   0013               M  moviw INDF0-- ; preserve the safety of this code under interruptible conditions. 
0015   00??           01634  movwf mdiv
                      01635  POP
0016   0013               M  moviw INDF0-- ; preserve the safety of this code under interruptible conditions. 
0017   00??           01636  movwf mterm
0018   08??           01637  movfw mdiv
0019   02??           01638  subwf mterm,f
001A   1C03           01639  btfss STATUS,C 
001B   2???           01640  goto $+3
001C   0A??           01641  incf mquot,f 
001D   2???           01642  goto $-4
001E   07??           01643  addwf mterm,w
                      01644  PUSH
001F   0018               M  movwi ++INDF0
0020   0008           01645  return 
                      01646 
                      01647 
                      01648 
                      01649 #undefine mterm
                      01650 
                      01651 
                      01652 #undefine mdiv
                      01653 
                      01654 
                      01655 #undefine mquot
                      01656 hllkrna05 CODE
MPASM  5.35                        TARGET.ASM   3-10-2024  15:32:25         PAGE 44


LOC  OBJECT CODE     LINE SOURCE TEXT
  VALUE

                      01657 
                      01658 
                      01659 
                      01660 #define mterm hllblss00
                      01661 
                      01662 
                      01663 #define mdiv hllblss01
                      01664 
                      01665 
                      01666 #define mquot hllblss02
                      01667 
                      01668 
0000                  01669 divu:  
                      01670 #ifdef HLLMULTITASK
                      01671 #ifdef HLLGUARDhllblss 
0000   08??           01672  movf in_isr,f  
0001   1903           01673  btfsc STATUS,Z
                      01674  
                      01675 
                      01676 
0002   2???           01677  goto divu0
                      01678 
0003   002?           01679  banksel mquot 
0004   01??           01680  clrf mquot
                      01681  POP
0005   0013               M  moviw INDF0-- ; preserve the safety of this code under interruptible conditions. 
0006   00??           01682  movwf mdiv
                      01683  POP
0007   0013               M  moviw INDF0-- ; preserve the safety of this code under interruptible conditions. 
0008   00??           01684  movwf mterm
0009   08??           01685  movfw mdiv
000A   02??           01686  subwf mterm,f
000B   1C03           01687  btfss STATUS,C 
000C   2???           01688  goto $+3
000D   0A??           01689  incf mquot,f 
000E   2???           01690  goto $-4
000F   08??           01691  movfw mquot
                      01692  PUSH
0010   0018               M  movwi ++INDF0
0011   0008           01693  return 
                      01694 
                      01695 
                      01696 
                      01697 #undefine mterm
                      01698 
                      01699 
                      01700 #undefine mdiv
                      01701 
                      01702 
                      01703 #undefine mquot
                      01704 
                      01705 
                      01706 #define mterm hllblss00+1
MPASM  5.35                        TARGET.ASM   3-10-2024  15:32:25         PAGE 45


LOC  OBJECT CODE     LINE SOURCE TEXT
  VALUE

                      01707 
                      01708 
                      01709 #define mdiv hllblss01+1
                      01710 
                      01711 
                      01712 #define mquot hllblss02+1
                      01713 
                      01714 
0012                  01715 divu0:
                      01716 #endif
                      01717 #endif
                      01718 
0012   002?           01719  banksel mquot 
0013   01??           01720  clrf mquot
                      01721  POP
0014   0013               M  moviw INDF0-- ; preserve the safety of this code under interruptible conditions. 
0015   00??           01722  movwf mdiv
                      01723  POP
0016   0013               M  moviw INDF0-- ; preserve the safety of this code under interruptible conditions. 
0017   00??           01724  movwf mterm
0018   08??           01725  movfw mdiv
0019   02??           01726  subwf mterm,f
001A   1C03           01727  btfss STATUS,C 
001B   2???           01728  goto $+3
001C   0A??           01729  incf mquot,f 
001D   2???           01730  goto $-4
001E   08??           01731  movfw mquot
                      01732  PUSH
001F   0018               M  movwi ++INDF0
0020   0008           01733  return 
                      01734 
                      01735 
                      01736 
                      01737 #undefine mterm
                      01738 
                      01739 
                      01740 #undefine mdiv
                      01741 
                      01742 
                      01743 #undefine mquot
                      01744 hllkrna06 CODE
                      01745 
                      01746  
                      01747  
                      01748  
0000                  01749 getch:
0000   0023           01750  banksel RCSTA
0001   1C9D           01751  btfss RCSTA,OERR
0002   2???           01752  goto geth2
0003   121D           01753  bcf RCSTA,CREN
0004   161D           01754  bsf RCSTA,CREN
0005                  01755 geth2:
0005   1D1D           01756  btfss RCSTA,FERR
MPASM  5.35                        TARGET.ASM   3-10-2024  15:32:25         PAGE 46


LOC  OBJECT CODE     LINE SOURCE TEXT
  VALUE

0006   2???           01757  goto geth4
0007   139D           01758  bcf RCSTA,SPEN
0008   179D           01759  bsf RCSTA,SPEN
0009                  01760 geth4:
0009   0020           01761  banksel PIR1
000A                  01762 geth3: 
000A   1E91           01763  btfss PIR1,RCIF
000B   2???           01764  goto geth3
000C   0023           01765  banksel RCREG
000D   0819           01766  movf RCREG,w
                      01767  PUSH 
000E   0018               M  movwi ++INDF0
000F   0008           01768  return
                      01769  
                      01770 hllkrna07 CODE 
                      01771  
0000                  01772 eq: 
                      01773  POP 
0000   0013               M  moviw INDF0-- ; preserve the safety of this code under interruptible conditions. 
0001   0600           01774  xorwf HLINDF,w
0002   3001           01775  movlw .1 
0003   1D03           01776  btfss STATUS,Z
0004   3000           01777  movlw .0 
0005   0384           01778  decf HLFSR,f 
                      01779  PUSH 
0006   0018               M  movwi ++INDF0
0007   0008           01780  return
                      01781  
                      01782  
                      01783  
                      01784 
                      01785 #define sstack0 softstack0 
                      01786 #define sstack1 softstack1 
                      01787 #define sstack2 softstack2 
                      01788 
                      01789 hllparmcore macro 
                      01790  movwf sstack2
                      01791  movfw HLFSR 
                      01792            
                      01793                    
                      01794  movwf sstack0
                      01795  movfw HLINDF
                      01796  
                      01797  subwf sstack2,w
                      01798  movwf HLFSR 
                      01799  movfw HLINDF 
                      01800  
                      01801  movwf sstack1
                      01802  
                      01803  movfw sstack0
                      01804  movwf HLFSR 
                      01805  clrf sstack0
                      01806  movfw sstack1 
MPASM  5.35                        TARGET.ASM   3-10-2024  15:32:25         PAGE 47


LOC  OBJECT CODE     LINE SOURCE TEXT
  VALUE

                      01807  movwf HLINDF
                      01808  
                      01809  movfw sstack2
                      01810  pagesel kpush
                      01811  goto kpush 
                      01812  endm
                      01813 
                      01814  
                      01815 hllkrna08 CODE  
0000                  01816 parm:
                      01817  KPOP 
0000   0017               M  moviw INDF1--
                      01818  
                      01819 #ifdef HLLMULTITASK 
0001   08??           01820  movf in_isr,f 
0002   1D03           01821  btfss STATUS,Z
0003   2???           01822  goto parm4
                      01823  hllparmcore
0004   00??               M  movwf sstack2
0005   0804               M  movfw HLFSR 
                          M            
                          M                    
0006   00??               M  movwf sstack0
0007   0800               M  movfw HLINDF
                          M  
0008   02??               M  subwf sstack2,w
0009   0084               M  movwf HLFSR 
000A   0800               M  movfw HLINDF 
                          M  
000B   00??               M  movwf sstack1
                          M  
000C   08??               M  movfw sstack0
000D   0084               M  movwf HLFSR 
000E   01??               M  clrf sstack0
000F   08??               M  movfw sstack1 
0010   0080               M  movwf HLINDF
                          M  
0011   08??               M  movfw sstack2
0012   3180               M  pagesel kpush
0013   2???               M  goto kpush 
                      01824 #undefine sstack0 
                      01825 #undefine sstack1
                      01826 #undefine sstack2 
                      01827 #define sstack0 softstack0+1
                      01828 #define sstack1 softstack1+1
                      01829 #define sstack2 softstack2+1
0014                  01830 parm4:
                      01831 #endif 
                      01832  hllparmcore
0014   00??               M  movwf sstack2
0015   0804               M  movfw HLFSR 
                          M            
                          M                    
MPASM  5.35                        TARGET.ASM   3-10-2024  15:32:25         PAGE 48


LOC  OBJECT CODE     LINE SOURCE TEXT
  VALUE

0016   00??               M  movwf sstack0
0017   0800               M  movfw HLINDF
                          M  
0018   02??               M  subwf sstack2,w
0019   0084               M  movwf HLFSR 
001A   0800               M  movfw HLINDF 
                          M  
001B   00??               M  movwf sstack1
                          M  
001C   08??               M  movfw sstack0
001D   0084               M  movwf HLFSR 
001E   01??               M  clrf sstack0
001F   08??               M  movfw sstack1 
0020   0080               M  movwf HLINDF
                          M  
0021   08??               M  movfw sstack2
0022   3180               M  pagesel kpush
0023   2???               M  goto kpush 
                      01833 #undefine sstack0 
                      01834 #undefine sstack1
                      01835 #undefine sstack2 
                      01836  
                      01837 hllkrna09 CODE  
0000                  01838 kpop: 
                      01839  KPOP
0000   0017               M  moviw INDF1--
0001   0008           01840  return 
                      01841  
                      01842 hllkrna10 CODE   
0000                  01843 kpush: 
                      01844  KPUSH
0000   001C               M  movwi ++INDF1
0001   0008           01845  return
                      01846 
                      01847 hllkrna11 CODE   
0000                  01848 dispose:
                      01849  DISCARD
0000   0384               M  decf FSR0L,f 
0001   0008           01850  return 
                      01851  
                      01852  
                      01853 
                      01854 
                      01855 
                      01856 
                      01857 
                      01858 
                      01859  
                      01860  
                      01861 
                      01862  
                      01863 hlog1d CODE
                      01864 
MPASM  5.35                        TARGET.ASM   3-10-2024  15:32:25         PAGE 49


LOC  OBJECT CODE     LINE SOURCE TEXT
  VALUE

0000                  01865 oru: 
                      01866  POP
0000   0013               M  moviw INDF0-- ; preserve the safety of this code under interruptible conditions. 
0001   0400           01867  iorwf HLINDF,w
0002   0384           01868  decf HLFSR,f 
                      01869  PUSH
0003   0018               M  movwi ++INDF0
0004   0008           01870  return
                      01871 
                      01872  
                      01873 
                      01874 
                      01875 
                      01876 
                      01877 
                      01878 
                      01879 
                      01880 
                      01881 hllkrn444 CODE    
0000                  01882 safepush: 
                      01883  PUSH
0000   0018               M  movwi ++INDF0
                      01884  
                      01885  
                      01886  
0001   0804           01887  movf HLFSR,w
0002   3C??           01888  sublw stack  
0003   1903           01889  btfsc STATUS,Z
0004   2???           01890  goto kspox5 
0005   1803           01891  btfsc STATUS,C 
0006   2???           01892  goto sperr11 
0007                  01893 kspox5:
                      01894   
                      01895 
0007   0804           01896  movf HLFSR,w
0008   3E01           01897  addlw .1
0009   3C??           01898  sublw (stack+HLOE_STACK_SIZE)  
000A   1C03           01899  btfss STATUS,C
000B   2???           01900  goto sperr11
000C   0800           01901  movf HLINDF,w
000D   0008           01902  return
000E                  01903 sperr11:
000E   138B           01904  BCF INTCON,GIE 
                      01905  DISCARD 
000F   0384               M  decf FSR0L,f 
0010                  01906 dmm445:
0010   3021           01907  movlw '!' 
                      01908  PUSH
0011   0018               M  movwi ++INDF0
                      01909  
                      01910  FAR_CALL safepush,printch
0012   3180               M  pagesel printch
0013   2???               M  call printch
MPASM  5.35                        TARGET.ASM   3-10-2024  15:32:25         PAGE 50


LOC  OBJECT CODE     LINE SOURCE TEXT
  VALUE

0014   3180               M  pagesel safepush
0015   2???           01911  goto dmm445
                      01912  
                      01913  
                      01914 
                      01915 
                      01916 
                      01917 
                      01918 
                      01919  
                      01920  
                      01921 
                      01922  
                      01923 hlog1b CODE
                      01924 
                      01925 
                      01926 #define margp2 hllblss00
                      01927 
                      01928 
0000                  01929 setbit:  
                      01930 #ifdef HLLMULTITASK
                      01931 #ifdef HLLGUARDhllblss 
0000   08??           01932  movf in_isr,f  
0001   1903           01933  btfsc STATUS,Z
                      01934  
                      01935 
                      01936 
0002   2???           01937  goto setbit0
                      01938 
                      01939  POP
0003   0013               M  moviw INDF0-- ; preserve the safety of this code under interruptible conditions. 
0004   002?           01940  banksel margp2
0005   00??           01941  movwf  margp2
                      01942  POP
0006   0013               M  moviw INDF0-- ; preserve the safety of this code under interruptible conditions. 
0007   3A00           01943  xorlw .0
0008   1D03           01944  btfss STATUS,Z
0009   2???           01945  goto tcf00h
                      01946  
000A   08??           01947  movfw  margp2
000B   3801           01948  iorlw .1
000C   2???           01949  goto tcf99h
000D                  01950 tcf00h: 
                      01951  
000D   3A01           01952  xorlw .1
000E   1D03           01953  btfss STATUS,Z
000F   2???           01954  goto tcf01h
                      01955  
0010   08??           01956  movfw  margp2
0011   3802           01957  iorlw .2
0012   2???           01958  goto tcf99h
0013                  01959 tcf01h: 
0013   3A01           01960  xorlw .1
MPASM  5.35                        TARGET.ASM   3-10-2024  15:32:25         PAGE 51


LOC  OBJECT CODE     LINE SOURCE TEXT
  VALUE

0014   3A02           01961  xorlw .2
0015   1D03           01962  btfss STATUS,Z
0016   2???           01963  goto tcf02h
                      01964  
0017   08??           01965  movfw margp2
0018   3804           01966  iorlw .4
0019   2???           01967  goto tcf99h
001A                  01968 tcf02h: 
001A   3A02           01969  xorlw .2
001B   3A03           01970  xorlw .3
001C   1D03           01971  btfss STATUS,Z
001D   2???           01972  goto tcf03h
                      01973  
001E   08??           01974  movfw margp2
001F   3808           01975  iorlw .8
0020   2???           01976  goto tcf99h
0021                  01977 tcf03h: 
0021   3A03           01978  xorlw .3
0022   3A04           01979  xorlw .4
0023   1D03           01980  btfss STATUS,Z
0024   2???           01981  goto tcf04h
                      01982  
0025   08??           01983  movfw margp2
0026   3810           01984  iorlw .16
0027   2???           01985  goto tcf99h
0028                  01986 tcf04h: 
0028   3A04           01987  xorlw .4
0029   3A05           01988  xorlw .5
002A   1D03           01989  btfss STATUS,Z
002B   2???           01990  goto tcf05h
                      01991  
002C   08??           01992  movfw margp2
002D   3820           01993  iorlw .32
002E   2???           01994  goto tcf99h
002F                  01995 tcf05h: 
002F   3A05           01996  xorlw .5
0030   3A06           01997  xorlw .6
0031   1D03           01998  btfss STATUS,Z
0032   2???           01999  goto tcf07h
                      02000  
0033   08??           02001  movfw margp2
0034   3840           02002  iorlw .64
0035   2???           02003  goto tcf99h
0036                  02004 tcf07h: 
                      02005  
0036   08??           02006  movfw margp2
0037   3880           02007  iorlw .128 
0038                  02008 tcf99h:  
                      02009  PUSH 
0038   0018               M  movwi ++INDF0
0039   0008           02010  return
                      02011 
                      02012 
MPASM  5.35                        TARGET.ASM   3-10-2024  15:32:25         PAGE 52


LOC  OBJECT CODE     LINE SOURCE TEXT
  VALUE

                      02013 
                      02014 
                      02015 #undefine margp2
                      02016 
                      02017 
                      02018 #define margp2 hllblss00+1
                      02019 
                      02020 
003A                  02021 setbit0:
                      02022 #endif
                      02023 #endif
                      02024 
                      02025  POP
003A   0013               M  moviw INDF0-- ; preserve the safety of this code under interruptible conditions. 
003B   002?           02026  banksel margp2
003C   00??           02027  movwf  margp2
                      02028  POP
003D   0013               M  moviw INDF0-- ; preserve the safety of this code under interruptible conditions. 
003E   3A00           02029  xorlw .0
003F   1D03           02030  btfss STATUS,Z
0040   2???           02031  goto hllKAAAA
                      02032  
0041   08??           02033  movfw  margp2
0042   3801           02034  iorlw .1
0043   2???           02035  goto hllRAAAA
0044                  02036 hllKAAAA: 
                      02037  
0044   3A01           02038  xorlw .1
0045   1D03           02039  btfss STATUS,Z
0046   2???           02040  goto hllLAAAA
                      02041  
0047   08??           02042  movfw  margp2
0048   3802           02043  iorlw .2
0049   2???           02044  goto hllRAAAA
004A                  02045 hllLAAAA: 
004A   3A01           02046  xorlw .1
004B   3A02           02047  xorlw .2
004C   1D03           02048  btfss STATUS,Z
004D   2???           02049  goto hllMAAAA
                      02050  
004E   08??           02051  movfw margp2
004F   3804           02052  iorlw .4
0050   2???           02053  goto hllRAAAA
0051                  02054 hllMAAAA: 
0051   3A02           02055  xorlw .2
0052   3A03           02056  xorlw .3
0053   1D03           02057  btfss STATUS,Z
0054   2???           02058  goto hllNAAAA
                      02059  
0055   08??           02060  movfw margp2
0056   3808           02061  iorlw .8
0057   2???           02062  goto hllRAAAA
0058                  02063 hllNAAAA: 
MPASM  5.35                        TARGET.ASM   3-10-2024  15:32:25         PAGE 53


LOC  OBJECT CODE     LINE SOURCE TEXT
  VALUE

0058   3A03           02064  xorlw .3
0059   3A04           02065  xorlw .4
005A   1D03           02066  btfss STATUS,Z
005B   2???           02067  goto hllOAAAA
                      02068  
005C   08??           02069  movfw margp2
005D   3810           02070  iorlw .16
005E   2???           02071  goto hllRAAAA
005F                  02072 hllOAAAA: 
005F   3A04           02073  xorlw .4
0060   3A05           02074  xorlw .5
0061   1D03           02075  btfss STATUS,Z
0062   2???           02076  goto hllPAAAA
                      02077  
0063   08??           02078  movfw margp2
0064   3820           02079  iorlw .32
0065   2???           02080  goto hllRAAAA
0066                  02081 hllPAAAA: 
0066   3A05           02082  xorlw .5
0067   3A06           02083  xorlw .6
0068   1D03           02084  btfss STATUS,Z
0069   2???           02085  goto hllQAAAA
                      02086  
006A   08??           02087  movfw margp2
006B   3840           02088  iorlw .64
006C   2???           02089  goto hllRAAAA
006D                  02090 hllQAAAA: 
                      02091  
006D   08??           02092  movfw margp2
006E   3880           02093  iorlw .128 
006F                  02094 hllRAAAA:  
                      02095  PUSH 
006F   0018               M  movwi ++INDF0
0070   0008           02096  return
                      02097 
                      02098 
                      02099 
                      02100 
                      02101 #undefine margp2
                      02102 
                      02103 
                      02104 
                      02105 
                      02106 sfpu UDATA
                      02107  
                      02108  
                      02109  
                      02110  
0000                  02111 sfploc00 res .1
0001                  02112 sfpaux00 res .1
                      02113 
                      02114 #ifdef HLLMULTITASK   
                      02115 #ifdef HLLGUARDsfploc
MPASM  5.35                        TARGET.ASM   3-10-2024  15:32:25         PAGE 54


LOC  OBJECT CODE     LINE SOURCE TEXT
  VALUE

                      02116 sfploc00isr res .1
                      02117 sfpaux00isr res .1
                      02118 #endif
                      02119 #endif
                      02120 
0002                  02121 sfploc01 res .1
0003                  02122 sfpaux01 res .1
                      02123 
                      02124 #ifdef HLLMULTITASK
                      02125 #ifdef HLLGUARDsfploc
                      02126 sfploc01isr res .1
                      02127 sfpaux01isr res .1
                      02128 #endif
                      02129 #endif
                      02130 
                      02131 
0004                  02132 sfploc02 res .1
0005                  02133 sfpaux02 res .1
                      02134 
                      02135 #ifdef HLLMULTITASK
                      02136 #ifdef HLLGUARDsfploc
                      02137 sfploc02isr res .1
                      02138 sfpaux02isr res .1
                      02139 #endif
                      02140 #endif
                      02141 
                      02142 
0006                  02143 sfploc03 res .1
0007                  02144 sfpaux03 res .1
                      02145 
                      02146 #ifdef HLLMULTITASK
                      02147 #ifdef HLLGUARDsfploc
                      02148 sfploc03isr res .1
                      02149 sfpaux03isr res .1
                      02150 #endif
                      02151 #endif
                      02152 
                      02153 
0008                  02154 sfploc04 res .1
                      02155 
                      02156 #ifdef HLLMULTITASK
                      02157 #ifdef HLLGUARDsfploc
                      02158 sfploc04isr res .1
                      02159 #endif
                      02160 #endif
                      02161 
                      02162 
0009                  02163 sfploc05 res .1
                      02164 
                      02165 #ifdef HLLMULTITASK
                      02166 #ifdef HLLGUARDsfploc
                      02167 sfploc05isr res .1
                      02168 #endif
MPASM  5.35                        TARGET.ASM   3-10-2024  15:32:25         PAGE 55


LOC  OBJECT CODE     LINE SOURCE TEXT
  VALUE

                      02169 #endif
                      02170 
                      02171 
000A                  02172 sfploc06 res .1
                      02173 
                      02174 #ifdef HLLMULTITASK
                      02175 #ifdef HLLGUARDsfploc
                      02176 sfploc06isr res .1
                      02177 #endif
                      02178 #endif
                      02179 
                      02180 
000B                  02181 sfploc07 res .1
                      02182 
                      02183 #ifdef HLLMULTITASK
                      02184 #ifdef HLLGUARDsfploc
                      02185 sfploc07isr res .1
                      02186 #endif
                      02187 #endif
                      02188 
                      02189 
000C                  02190 sfploc08 res .1
                      02191 
                      02192 #ifdef HLLMULTITASK
                      02193 #ifdef HLLGUARDsfploc
                      02194 sfploc08isr res .1
                      02195 #endif
                      02196 #endif
                      02197 
                      02198 
000D                  02199 sfploc09 res .1
                      02200 
                      02201 #ifdef HLLMULTITASK
                      02202 #ifdef HLLGUARDsfploc
                      02203 sfploc09isr res .1
                      02204 #endif
                      02205 #endif
                      02206 
                      02207 
000E                  02208 sfploc10 res .1
                      02209 
                      02210 #ifdef HLLMULTITASK
                      02211 #ifdef HLLGUARDsfploc
                      02212 sfploc10isr res .1
                      02213 #endif
                      02214 #endif
                      02215 
                      02216 
000F                  02217 sfploc11 res .1
                      02218 
                      02219 #ifdef HLLMULTITASK
                      02220 #ifdef HLLGUARDsfploc
                      02221 sfploc11isr res .1
MPASM  5.35                        TARGET.ASM   3-10-2024  15:32:25         PAGE 56


LOC  OBJECT CODE     LINE SOURCE TEXT
  VALUE

                      02222 #endif
                      02223 #endif
                      02224 
                      02225 
0010                  02226 sfploc12 res .1
                      02227 
                      02228 #ifdef HLLMULTITASK
                      02229 #ifdef HLLGUARDsfploc
                      02230 sfploc12isr res .1
                      02231 #endif
                      02232 #endif
                      02233 
                      02234 
0011                  02235 sfploc13 res .1
                      02236 
                      02237 #ifdef HLLMULTITASK
                      02238 #ifdef HLLGUARDsfploc
                      02239 sfploc13isr res .1
                      02240 #endif
                      02241 #endif
                      02242 
                      02243 
0012                  02244 sfploc14 res .1
                      02245 
                      02246 #ifdef HLLMULTITASK
                      02247 #ifdef HLLGUARDsfploc
                      02248 sfploc14isr res .1
                      02249 #endif
                      02250 #endif
                      02251 
                      02252 
0013                  02253 sfploc15 res .1
                      02254 
                      02255 #ifdef HLLMULTITASK
                      02256 #ifdef HLLGUARDsfploc
                      02257 sfploc15isr res .1
                      02258 #endif
                      02259 #endif
                      02260 
                      02261 
0014                  02262 sfploc16 res .1
                      02263 
                      02264 #ifdef HLLMULTITASK
                      02265 #ifdef HLLGUARDsfploc
                      02266 sfploc16isr res .1
                      02267 #endif
                      02268 #endif
                      02269 
                      02270 
0015                  02271 sfploc17 res .1 
                      02272 
                      02273 #ifdef HLLMULTITASK
                      02274 #ifdef HLLGUARDsfploc
MPASM  5.35                        TARGET.ASM   3-10-2024  15:32:25         PAGE 57


LOC  OBJECT CODE     LINE SOURCE TEXT
  VALUE

                      02275 sfploc17isr res .1
                      02276 #endif
                      02277 #endif
                      02278 
                      02279 
                      02280  
                      02281 
                      02282 
                      02283 
                      02284 
                      02285 
                      02286 
                      02287 
                      02288 
                      02289  
                      02290  
                      02291 
                      02292 sfp_add CODE
                      02293 
                      02294 
                      02295 
                      02296 
                      02297 #define mout_hi sfploc00
                      02298 
                      02299 
                      02300 #define big_c sfploc01
                      02301 
                      02302 
                      02303 #define min2_lower sfploc02
                      02304 
                      02305 
                      02306 #define minres sfploc03
                      02307 
                      02308 
                      02309 #define fulmin2H sfploc04
                      02310 
                      02311 
                      02312 #define fulminH sfploc05
                      02313 
                      02314 
                      02315 #define min_lower sfploc06
                      02316 
                      02317 
                      02318 #define rev sfploc07
                      02319 
                      02320 
                      02321 #define fulmin2 sfploc08
                      02322 
                      02323 
                      02324 #define fulmin sfploc09
                      02325 
                      02326 
                      02327 #define multiplier sfploc10
MPASM  5.35                        TARGET.ASM   3-10-2024  15:32:25         PAGE 58


LOC  OBJECT CODE     LINE SOURCE TEXT
  VALUE

                      02328 
                      02329 
                      02330 #define mout sfploc11
                      02331 
                      02332 
                      02333 #define util sfploc12
                      02334 
                      02335 
                      02336 #define neg sfploc13
                      02337 
                      02338 
                      02339 #define ein2 sfploc14
                      02340 
                      02341 
                      02342 #define min2 sfploc15
                      02343 
                      02344 
                      02345 #define ein1 sfploc16
                      02346 
                      02347 
                      02348 #define min sfploc17
                      02349 
                      02350 
0000                  02351 addf:  
                      02352 #ifdef HLLMULTITASK
                      02353 #ifdef HLLGUARDsfploc 
                      02354  movf in_isr,f  
                      02355  btfsc STATUS,Z
                      02356  
                      02357 
                      02358 
                      02359  goto addf0
                      02360 
                      02361 
                      02362  
                      02363  
                      02364  
                      02365  
                      02366  
                      02367  
                      02368  
                      02369  
                      02370  POP
                      02371  banksel min
                      02372  movwf ein2 
                      02373  POP
                      02374  banksel min
                      02375  movwf min2 
                      02376 
                      02377  POP
                      02378  banksel min
                      02379  movwf ein1 
                      02380 
MPASM  5.35                        TARGET.ASM   3-10-2024  15:32:25         PAGE 59


LOC  OBJECT CODE     LINE SOURCE TEXT
  VALUE

                      02381  POP
                      02382  banksel min
                      02383  movwf min 
                      02384  
                      02385  
                      02386  
                      02387  
                      02388  bcf minres,0 
                      02389  
                      02390  
                      02391  
                      02392  clrf mout 
                      02393  
                      02394  
                      02395  
                      02396  
                      02397  
                      02398  clrf neg
                      02399  btfsc min,7
                      02400  bsf neg,0
                      02401  
                      02402  
                      02403  
                      02404  btfsc min2,7
                      02405  bsf neg,1
                      02406  
                      02407 
                      02408 
                      02409 
                      02410  btfsc ein2,7  
                      02411  goto yzpt44
                      02412  
                      02413  btfss ein1,7
                      02414  goto yzpt65
                      02415  
                      02416  goto ein_lt_ein2
                      02417 yzpt65: 
                      02418  
                      02419  movfw ein1
                      02420  subwf ein2,w    
                      02421  btfss STATUS,C 
                      02422  goto ein_lt_ein1  
                      02423 lz_ein15:
                      02424  goto ein_lt_ein2  
                      02425 yzpt44:   
                      02426  
                      02427  
                      02428  btfsc ein1,7
                      02429  goto yzpt65  
                      02430 ein_lt_ein1:  
                      02431  
                      02432  
                      02433 
MPASM  5.35                        TARGET.ASM   3-10-2024  15:32:25         PAGE 60


LOC  OBJECT CODE     LINE SOURCE TEXT
  VALUE

                      02434 
                      02435  movf ein2,w
                      02436  xorwf ein1,f
                      02437 
                      02438  movf ein1,w
                      02439  xorwf ein2,f
                      02440 
                      02441  movf ein2,w
                      02442  xorwf ein1,f
                      02443 
                      02444 
                      02445  movf min2,w
                      02446  xorwf min,f
                      02447 
                      02448  movf min,w
                      02449  xorwf min2,f
                      02450 
                      02451  movf min2,w
                      02452  xorwf min,f
                      02453  
                      02454  
                      02455  
                      02456  bsf rev,0 
                      02457  
                      02458  
                      02459  
                      02460  goto ein_lt_ein2_done 
                      02461 ein_lt_ein2: 
                      02462  
                      02463  
                      02464  
                      02465  clrf rev 
                      02466 ein_lt_ein2_done: 
                      02467  
                      02468  
                      02469  
                      02470  
                      02471  movfw min 
                      02472  andlw .127 
                      02473  movwf min 
                      02474  
                      02475  
                      02476  
                      02477  movfw min2 
                      02478  andlw .127 
                      02479  movwf min2 
                      02480  
                      02481  
                      02482  
                      02483  clrf fulminH 
                      02484  movfw min 
                      02485  addlw .128 
                      02486  btfsc STATUS,C 
MPASM  5.35                        TARGET.ASM   3-10-2024  15:32:25         PAGE 61


LOC  OBJECT CODE     LINE SOURCE TEXT
  VALUE

                      02487  incf fulminH,f 
                      02488  
                      02489  
                      02490  movwf fulmin 
                      02491  
                      02492  
                      02493  
                      02494  clrf fulmin2H 
                      02495  movfw min2 
                      02496  addlw .128 
                      02497  btfsc STATUS,C 
                      02498  incf fulmin2H,f 
                      02499  
                      02500  movwf fulmin2 
                      02501  
                      02502         
                      02503         
                      02504         
                      02505         
                      02506         
                      02507 
                      02508 
                      02509  clrf min_lower
                      02510 
                      02511  clrf min2_lower
                      02512  
                      02513 whi77:
                      02514 
                      02515 
                      02516  movfw ein1 
                      02517  xorwf ein2,w 
                      02518  btfsc STATUS,Z 
                      02519  goto eein2outw  
                      02520  
                      02521 
                      02522 
                      02523  RSHIFT min_lower
                      02524  
                      02525 
                      02526 
                      02527  RSHIFT fulmin
                      02528  
                      02529 
                      02530  btfss STATUS,C
                      02531  goto nocar001
                      02532  
                      02533 
                      02534  bsf min_lower,7
                      02535 nocar001:
                      02536 
                      02537 
                      02538 
                      02539 
MPASM  5.35                        TARGET.ASM   3-10-2024  15:32:25         PAGE 62


LOC  OBJECT CODE     LINE SOURCE TEXT
  VALUE

                      02540  incf ein1,f
                      02541 
                      02542 
                      02543  goto whi77
                      02544  
                      02545 
                      02546 eein2outw:      
                      02547 
                      02548  
                      02549  
                      02550  
                      02551  
                      02552  
                      02553  btfss rev,0 
                      02554  goto if_2_done 
                      02555 
                      02556 
                      02557 
                      02558  movf fulmin2,w
                      02559  xorwf fulmin,f
                      02560 
                      02561  movf fulmin,w
                      02562  xorwf fulmin2,f
                      02563 
                      02564  movf fulmin2,w
                      02565  xorwf fulmin,f 
                      02566  
                      02567  
                      02568  movfw min_lower 
                      02569  movwf min2_lower 
                      02570  
                      02571  clrf min_lower
                      02572  
                      02573  
                      02574  
                      02575  
                      02576  
                      02577 if_2_done: 
                      02578 
                      02579  banksel min_lower
                      02580 
                      02581  
                      02582  
                      02583 
                      02584 nrev0:  
                      02585 
                      02586  btfss neg,0
                      02587  goto nextspeci0
                      02588  
                      02589 
                      02590  btfss neg,1
                      02591  goto nextspeci0
                      02592 
MPASM  5.35                        TARGET.ASM   3-10-2024  15:32:25         PAGE 63


LOC  OBJECT CODE     LINE SOURCE TEXT
  VALUE

                      02593 
                      02594 
                      02595 
                      02596  bsf minres,0
                      02597 
                      02598  goto nextspeci2
                      02599 
                      02600  
                      02601  
                      02602  
                      02603  
                      02604 nextspeci0:
                      02605  
                      02606 
                      02607  btfss neg,0
                      02608  goto nextspeci1 
                      02609 
                      02610  
                      02611 rrrout0:
                      02612 
                      02613         
                      02614         
                      02615         
                      02616  movfw fulmin 
                      02617  subwf fulmin2,w 
                      02618  movwf mout 
                      02619  
                      02620  
                      02621  btfsc STATUS,C
                      02622  goto nc11rr            
                      02623                 
                      02624         
                      02625  bsf minres,0   
                      02626         
                      02627         
                      02628  goto rrrout1   
                      02629         
                      02630 nc11rr:
                      02631 
                      02632         
                      02633  movf mout,f
                      02634  btfsc STATUS,Z
                      02635  goto specidone0        
                      02636 mouty:
                      02637 
                      02638         
                      02639  btfsc mout,7   
                      02640  goto nn91   
                      02641         
                      02642         
                      02643     
                      02644  LSHIFT mout
                      02645  
MPASM  5.35                        TARGET.ASM   3-10-2024  15:32:25         PAGE 64


LOC  OBJECT CODE     LINE SOURCE TEXT
  VALUE

                      02646         
                      02647  btfss min_lower,7      
                      02648  goto yym43   
                      02649 
                      02650  
                      02651  decf mout,f    
                      02652 
                      02653         
                      02654  movlw .255
                      02655  xorwf mout,w
                      02656  btfss STATUS,Z
                      02657  goto yym43     
                      02658         
                      02659      
                      02660  bsf minres,0
                      02661  
                      02662          
                      02663  goto rrrout1
                      02664          
                      02665 
                      02666 yym43:
                      02667 
                      02668    
                      02669  LSHIFT min_lower
                      02670  
                      02671         
                      02672  decf ein1,f    
                      02673 
                      02674         
                      02675  goto mouty
                      02676 
                      02677 nn91:
                      02678         
                      02679  btfss min_lower,7      
                      02680  goto trup5   
                      02681                 
                      02682         
                      02683  decf mout,f
                      02684 
                      02685         
                      02686  movlw .255
                      02687  xorwf mout,w
                      02688  btfss STATUS,Z
                      02689  goto fltu54    
                      02690                 
                      02691      
                      02692  bsf minres,0    
                      02693          
                      02694          
                      02695  goto rrrout1    
                      02696          
                      02697          
                      02698 fltu54:
MPASM  5.35                        TARGET.ASM   3-10-2024  15:32:25         PAGE 65


LOC  OBJECT CODE     LINE SOURCE TEXT
  VALUE

                      02699         
                      02700  movlw .127
                      02701  xorwf mout,w
                      02702  btfss STATUS,Z
                      02703  goto trup5     
                      02704         
                      02705         
                      02706         
                      02707         
                      02708  LSHIFT mout
                      02709         
                      02710         
                      02711  decf ein1,f    
                      02712         
                      02713         
                      02714  btfsc min_lower,6
                      02715  goto trup5 
                      02716         
                      02717         
                      02718  incf mout,f    
                      02719         
                      02720 trup5:
                      02721         
                      02722  goto specidone0
                      02723 nextspeci1:
                      02724  
                      02725 
                      02726         
                      02727  btfss neg,1
                      02728  goto nextspeci2 
                      02729  
                      02730         
                      02731 rrrout1:
                      02732 
                      02733         
                      02734  movfw fulmin2
                      02735  subwf fulmin,w 
                      02736  movwf mout 
                      02737 
                      02738  
                      02739  btfsc STATUS,C
                      02740  goto rmxd3             
                      02741         
                      02742         
                      02743         
                      02744         
                      02745  bsf minres,0
                      02746         
                      02747         
                      02748  goto rrrout0   
                      02749 
                      02750 rmxd3:
                      02751 
MPASM  5.35                        TARGET.ASM   3-10-2024  15:32:25         PAGE 66


LOC  OBJECT CODE     LINE SOURCE TEXT
  VALUE

                      02752         
                      02753  movf mout,f 
                      02754  btfsc STATUS,Z 
                      02755  goto specidone0 
                      02756         
                      02757 moutx:
                      02758 
                      02759         
                      02760  btfsc mout,7
                      02761  goto nn91b
                      02762  
                      02763         
                      02764         
                      02765     
                      02766  LSHIFT mout 
                      02767  
                      02768         
                      02769  btfss min2_lower,7
                      02770  goto spyr5
                      02771 
                      02772         
                      02773         
                      02774  decf mout,f    
                      02775         
                      02776         
                      02777  movlw .255
                      02778  xorwf mout,w
                      02779  btfss STATUS,Z
                      02780  goto spyr5     
                      02781         
                      02782 
                      02783  bsf minres,0
                      02784         
                      02785 
                      02786  goto rrrout0
                      02787         
                      02788 spyr5:
                      02789 
                      02790  
                      02791  LSHIFT min2_lower
                      02792  
                      02793 
                      02794  decf ein1,f
                      02795    
                      02796         
                      02797  goto moutx     
                      02798 nn91b:
                      02799 
                      02800         
                      02801  btfss min2_lower,7
                      02802  goto cxaa
                      02803 
                      02804         
MPASM  5.35                        TARGET.ASM   3-10-2024  15:32:25         PAGE 67


LOC  OBJECT CODE     LINE SOURCE TEXT
  VALUE

                      02805  decf mout,f    
                      02806         
                      02807         
                      02808  movlw .255
                      02809  xorwf mout,w
                      02810  btfss STATUS,Z
                      02811  goto iwrtt     
                      02812                 
                      02813         
                      02814  bsf minres,0
                      02815  
                      02816         
                      02817  goto rrrout0
                      02818 iwrtt:
                      02819 
                      02820 
                      02821         
                      02822  movlw .127
                      02823  xorwf mout,w
                      02824  btfss STATUS,Z
                      02825  goto cxaa      
                      02826                 
                      02827         
                      02828         
                      02829         
                      02830  LSHIFT mout
                      02831 
                      02832         
                      02833  decf ein1,f    
                      02834 
                      02835         
                      02836  btfsc min2_lower,6
                      02837  goto cxaa 
                      02838  
                      02839         
                      02840         
                      02841  incf mout,f    
                      02842         
                      02843 cxaa:
                      02844 
                      02845         
                      02846  goto specidone0
                      02847 
                      02848 tpc0lea:
                      02849          
                      02850  movfw fulmin
                      02851  subwf fulmin2,w 
                      02852  movwf mout 
                      02853          
                      02854          
                      02855          
                      02856      
                      02857  bsf minres,0    
MPASM  5.35                        TARGET.ASM   3-10-2024  15:32:25         PAGE 68


LOC  OBJECT CODE     LINE SOURCE TEXT
  VALUE

                      02858         
                      02859  goto specidone0
                      02860 
                      02861         
                      02862 nextspeci2:
                      02863 
                      02864 
                      02865  
                      02866 
                      02867         
                      02868  clrf mout_hi
                      02869         
                      02870         
                      02871         
                      02872  movf fulmin,w
                      02873  addwf fulmin2,w
                      02874  movwf mout
                      02875         
                      02876         
                      02877 
                      02878         
                      02879  btfss STATUS,C 
                      02880  goto cxab                      
                      02881         
                      02882         
                      02883  incf mout_hi,f 
                      02884         
                      02885 cxab:
                      02886 
                      02887 
                      02888 
                      02889         
                      02890  movf min_lower,w
                      02891  addwf min2_lower,w
                      02892  btfsc STATUS,C
                      02893  goto bihhg   
                      02894  
                      02895 
                      02896         
                      02897         
                      02898  andlw .128     
                      02899  btfss STATUS,Z
                      02900  goto bihhg       
                      02901         
                      02902         
                      02903  goto bihh0     
                      02904         
                      02905 bihhg:
                      02906 
                      02907 
                      02908         
                      02909  incf mout,f    
                      02910         
MPASM  5.35                        TARGET.ASM   3-10-2024  15:32:25         PAGE 69


LOC  OBJECT CODE     LINE SOURCE TEXT
  VALUE

                      02911         
                      02912  movf mout,f
                      02913  btfss STATUS,Z
                      02914  goto bihh0 
                      02915 
                      02916         
                      02917  incf mout_hi,f
                      02918 
                      02919 bihh0:
                      02920         
                      02921  movf mout_hi,f
                      02922  btfsc STATUS,Z
                      02923  goto specidone0 
                      02924 
                      02925         
                      02926         
                      02927         
                      02928         
                      02929  clrf big_c
                      02930  RSHIFT fulmin
                      02931  btfsc STATUS,C
                      02932  bsf big_c,0
                      02933         
                      02934         
                      02935  RSHIFT min_lower
                      02936 
                      02937         
                      02938         
                      02939  btfss big_c,0
                      02940  goto ddnyy
                      02941         
                      02942         
                      02943         
                      02944  bsf min_lower,7        
                      02945         
                      02946 ddnyy:
                      02947 
                      02948         
                      02949         
                      02950  clrf big_c
                      02951  RSHIFT fulmin2
                      02952  btfsc STATUS,C
                      02953  bsf big_c,0
                      02954         
                      02955         
                      02956         
                      02957         
                      02958  RSHIFT min2_lower
                      02959         
                      02960         
                      02961         
                      02962  btfss big_c,0
                      02963  goto ddnzz
MPASM  5.35                        TARGET.ASM   3-10-2024  15:32:25         PAGE 70


LOC  OBJECT CODE     LINE SOURCE TEXT
  VALUE

                      02964 
                      02965         
                      02966         
                      02967         
                      02968  bsf min_lower,7                
                      02969         
                      02970 ddnzz:
                      02971 
                      02972         
                      02973  incf ein1,f    
                      02974         
                      02975         
                      02976  goto nextspeci2
                      02977 
                      02978 
                      02979 specidone0:
                      02980 
                      02981  movfw mout 
                      02982  
                      02983  
                      02984  btfss STATUS,Z 
                      02985  goto nomoutzeer 
                      02986  
                      02987  
                      02988  
                      02989  movlw .0 
                      02990 
                      02991  PUSH
                      02992  
                      02993  
                      02994  
                      02995  movlw 0x80 
                      02996  PUSH
                      02997  
                      02998  
                      02999  
                      03000  goto re455tu
                      03001  
                      03002  
                      03003  
                      03004 nomoutzeer: 
                      03005  
                      03006  
                      03007  
                      03008  
                      03009  movfw mout
                      03010  addlw -.128 
                      03011  movwf mout 
                      03012 
                      03013  
                      03014  
                      03015  
                      03016  btfsc minres,0 
MPASM  5.35                        TARGET.ASM   3-10-2024  15:32:25         PAGE 71


LOC  OBJECT CODE     LINE SOURCE TEXT
  VALUE

                      03017  bsf mout,7
                      03018  
                      03019  movfw mout 
                      03020  PUSH
                      03021  
                      03022  
                      03023  
                      03024  banksel min
                      03025  movfw ein1 
                      03026 
                      03027  PUSH
                      03028  
                      03029 re455tu:
                      03030  
                      03031  return 
                      03032 
                      03033  
                      03034 
                      03035 
                      03036 #undefine mout_hi
                      03037 
                      03038 
                      03039 #undefine big_c
                      03040 
                      03041 
                      03042 #undefine min2_lower
                      03043 
                      03044 
                      03045 #undefine minres
                      03046 
                      03047 
                      03048 #undefine fulmin2H
                      03049 
                      03050 
                      03051 #undefine fulminH
                      03052 
                      03053 
                      03054 #undefine min_lower
                      03055 
                      03056 
                      03057 #undefine rev
                      03058 
                      03059 
                      03060 #undefine fulmin2
                      03061 
                      03062 
                      03063 #undefine fulmin
                      03064 
                      03065 
                      03066 #undefine multiplier
                      03067 
                      03068 
                      03069 #undefine mout
MPASM  5.35                        TARGET.ASM   3-10-2024  15:32:25         PAGE 72


LOC  OBJECT CODE     LINE SOURCE TEXT
  VALUE

                      03070 
                      03071 
                      03072 #undefine util
                      03073 
                      03074 
                      03075 #undefine neg
                      03076 
                      03077 
                      03078 #undefine ein2
                      03079 
                      03080 
                      03081 #undefine min2
                      03082 
                      03083 
                      03084 #undefine ein1
                      03085 
                      03086 
                      03087 #undefine min
                      03088 
                      03089 
                      03090 #define mout_hi sfploc00+1
                      03091 
                      03092 
                      03093 #define big_c sfploc01+1
                      03094 
                      03095 
                      03096 #define min2_lower sfploc02+1
                      03097 
                      03098 
                      03099 #define minres sfploc03+1
                      03100 
                      03101 
                      03102 #define fulmin2H sfploc04+1
                      03103 
                      03104 
                      03105 #define fulminH sfploc05+1
                      03106 
                      03107 
                      03108 #define min_lower sfploc06+1
                      03109 
                      03110 
                      03111 #define rev sfploc07+1
                      03112 
                      03113 
                      03114 #define fulmin2 sfploc08+1
                      03115 
                      03116 
                      03117 #define fulmin sfploc09+1
                      03118 
                      03119 
                      03120 #define multiplier sfploc10+1
                      03121 
                      03122 
MPASM  5.35                        TARGET.ASM   3-10-2024  15:32:25         PAGE 73


LOC  OBJECT CODE     LINE SOURCE TEXT
  VALUE

                      03123 #define mout sfploc11+1
                      03124 
                      03125 
                      03126 #define util sfploc12+1
                      03127 
                      03128 
                      03129 #define neg sfploc13+1
                      03130 
                      03131 
                      03132 #define ein2 sfploc14+1
                      03133 
                      03134 
                      03135 #define min2 sfploc15+1
                      03136 
                      03137 
                      03138 #define ein1 sfploc16+1
                      03139 
                      03140 
                      03141 #define min sfploc17+1
                      03142 
                      03143 
                      03144 addf0:
                      03145 #endif
                      03146 #endif
                      03147 
                      03148 
                      03149  
                      03150  
                      03151  
                      03152  
                      03153  
                      03154  
                      03155  
                      03156  
                      03157  POP
0000   0013               M  moviw INDF0-- ; preserve the safety of this code under interruptible conditions. 
0001   002?           03158  banksel min
0002   00??           03159  movwf ein2 
                      03160  POP
0003   0013               M  moviw INDF0-- ; preserve the safety of this code under interruptible conditions. 
0004   002?           03161  banksel min
0005   00??           03162  movwf min2 
                      03163 
                      03164  POP
0006   0013               M  moviw INDF0-- ; preserve the safety of this code under interruptible conditions. 
0007   002?           03165  banksel min
0008   00??           03166  movwf ein1 
                      03167 
                      03168  POP
0009   0013               M  moviw INDF0-- ; preserve the safety of this code under interruptible conditions. 
000A   002?           03169  banksel min
000B   00??           03170  movwf min 
                      03171  
MPASM  5.35                        TARGET.ASM   3-10-2024  15:32:25         PAGE 74


LOC  OBJECT CODE     LINE SOURCE TEXT
  VALUE

                      03172  
                      03173  
                      03174  
000C   1000           03175  bcf minres,0 
                      03176  
                      03177  
                      03178  
000D   01??           03179  clrf mout 
                      03180  
                      03181  
                      03182  
                      03183  
                      03184  
000E   01??           03185  clrf neg
000F   1B80           03186  btfsc min,7
0010   1400           03187  bsf neg,0
                      03188  
                      03189  
                      03190  
0011   1B80           03191  btfsc min2,7
0012   1480           03192  bsf neg,1
                      03193  
                      03194 
                      03195 
                      03196 
0013   1B80           03197  btfsc ein2,7  
0014   2???           03198  goto hllUAAAA
                      03199  
0015   1F80           03200  btfss ein1,7
0016   2???           03201  goto hllSAAAA
                      03202  
0017   2???           03203  goto hllWAAAA
0018                  03204 hllSAAAA: 
                      03205  
0018   08??           03206  movfw ein1
0019   02??           03207  subwf ein2,w    
001A   1C03           03208  btfss STATUS,C 
001B   2???           03209  goto hllVAAAA  
001C                  03210 hllTAAAA:
001C   2???           03211  goto hllWAAAA  
001D                  03212 hllUAAAA:   
                      03213  
                      03214  
001D   1B80           03215  btfsc ein1,7
001E   2???           03216  goto hllSAAAA  
001F                  03217 hllVAAAA:  
                      03218  
                      03219  
                      03220 
                      03221 
001F   08??           03222  movf ein2,w
0020   06??           03223  xorwf ein1,f
                      03224 
MPASM  5.35                        TARGET.ASM   3-10-2024  15:32:25         PAGE 75


LOC  OBJECT CODE     LINE SOURCE TEXT
  VALUE

0021   08??           03225  movf ein1,w
0022   06??           03226  xorwf ein2,f
                      03227 
0023   08??           03228  movf ein2,w
0024   06??           03229  xorwf ein1,f
                      03230 
                      03231 
0025   08??           03232  movf min2,w
0026   06??           03233  xorwf min,f
                      03234 
0027   08??           03235  movf min,w
0028   06??           03236  xorwf min2,f
                      03237 
0029   08??           03238  movf min2,w
002A   06??           03239  xorwf min,f
                      03240  
                      03241  
                      03242  
002B   1400           03243  bsf rev,0 
                      03244  
                      03245  
                      03246  
002C   2???           03247  goto hllWAAAA_done 
002D                  03248 hllWAAAA: 
                      03249  
                      03250  
                      03251  
002D   01??           03252  clrf rev 
002E                  03253 hllWAAAA_done: 
                      03254  
                      03255  
                      03256  
                      03257  
002E   08??           03258  movfw min 
002F   397F           03259  andlw .127 
0030   00??           03260  movwf min 
                      03261  
                      03262  
                      03263  
0031   08??           03264  movfw min2 
0032   397F           03265  andlw .127 
0033   00??           03266  movwf min2 
                      03267  
                      03268  
                      03269  
0034   01??           03270  clrf fulminH 
0035   08??           03271  movfw min 
0036   3E80           03272  addlw .128 
0037   1803           03273  btfsc STATUS,C 
0038   0A??           03274  incf fulminH,f 
                      03275  
                      03276  
0039   00??           03277  movwf fulmin 
MPASM  5.35                        TARGET.ASM   3-10-2024  15:32:25         PAGE 76


LOC  OBJECT CODE     LINE SOURCE TEXT
  VALUE

                      03278  
                      03279  
                      03280  
003A   01??           03281  clrf fulmin2H 
003B   08??           03282  movfw min2 
003C   3E80           03283  addlw .128 
003D   1803           03284  btfsc STATUS,C 
003E   0A??           03285  incf fulmin2H,f 
                      03286  
003F   00??           03287  movwf fulmin2 
                      03288  
                      03289         
                      03290         
                      03291         
                      03292         
                      03293         
                      03294 
                      03295 
0040   01??           03296  clrf min_lower
                      03297 
0041   01??           03298  clrf min2_lower
                      03299  
0042                  03300 hllYAAAA:
                      03301 
                      03302 
0042   08??           03303  movfw ein1 
0043   06??           03304  xorwf ein2,w 
0044   1903           03305  btfsc STATUS,Z 
0045   2???           03306  goto hllABAAA  
                      03307  
                      03308 
                      03309 
                      03310  RSHIFT min_lower
0046   36??               M  lsrf sfploc06,f
                      03311  
                      03312 
                      03313 
                      03314  RSHIFT fulmin
0047   36??               M  lsrf sfploc09,f
                      03315  
                      03316 
0048   1C03           03317  btfss STATUS,C
0049   2???           03318  goto hllZAAAA
                      03319  
                      03320 
004A   1780           03321  bsf min_lower,7
004B                  03322 hllZAAAA:
                      03323 
                      03324 
                      03325 
                      03326 
004B   0A??           03327  incf ein1,f
                      03328 
MPASM  5.35                        TARGET.ASM   3-10-2024  15:32:25         PAGE 77


LOC  OBJECT CODE     LINE SOURCE TEXT
  VALUE

                      03329 
004C   2???           03330  goto hllYAAAA
                      03331  
                      03332 
004D                  03333 hllABAAA:       
                      03334 
                      03335  
                      03336  
                      03337  
                      03338  
                      03339  
004D   1C00           03340  btfss rev,0 
004E   2???           03341  goto hllBBAAA 
                      03342 
                      03343 
                      03344 
004F   08??           03345  movf fulmin2,w
0050   06??           03346  xorwf fulmin,f
                      03347 
0051   08??           03348  movf fulmin,w
0052   06??           03349  xorwf fulmin2,f
                      03350 
0053   08??           03351  movf fulmin2,w
0054   06??           03352  xorwf fulmin,f 
                      03353  
                      03354  
0055   08??           03355  movfw min_lower 
0056   00??           03356  movwf min2_lower 
                      03357  
0057   01??           03358  clrf min_lower
                      03359  
                      03360  
                      03361  
                      03362  
                      03363  
0058                  03364 hllBBAAA: 
                      03365 
0058   002?           03366  banksel min_lower
                      03367 
                      03368  
                      03369  
                      03370 
0059                  03371 hllCBAAA:       
                      03372 
0059   1C00           03373  btfss neg,0
005A   2???           03374  goto hllDBAAA
                      03375  
                      03376 
005B   1C80           03377  btfss neg,1
005C   2???           03378  goto hllDBAAA
                      03379 
                      03380 
                      03381 
MPASM  5.35                        TARGET.ASM   3-10-2024  15:32:25         PAGE 78


LOC  OBJECT CODE     LINE SOURCE TEXT
  VALUE

                      03382 
005D   1400           03383  bsf minres,0
                      03384 
005E   2???           03385  goto hllUBAAA
                      03386 
                      03387  
                      03388  
                      03389  
                      03390  
005F                  03391 hllDBAAA:
                      03392  
                      03393 
005F   1C00           03394  btfss neg,0
0060   2???           03395  goto hllLBAAA 
                      03396 
                      03397  
0061                  03398 hllEBAAA:
                      03399 
                      03400         
                      03401         
                      03402         
0061   08??           03403  movfw fulmin 
0062   02??           03404  subwf fulmin2,w 
0063   00??           03405  movwf mout 
                      03406  
                      03407  
0064   1803           03408  btfsc STATUS,C
0065   2???           03409  goto hllFBAAA          
                      03410                 
                      03411         
0066   1400           03412  bsf minres,0   
                      03413         
                      03414         
0067   2???           03415  goto hllMBAAA  
                      03416         
0068                  03417 hllFBAAA:
                      03418 
                      03419         
0068   08??           03420  movf mout,f
0069   1903           03421  btfsc STATUS,Z
006A   2???           03422  goto hllACAAA  
006B                  03423 hllGBAAA:
                      03424 
                      03425         
006B   1B80           03426  btfsc mout,7   
006C   2???           03427  goto hllIBAAA   
                      03428         
                      03429         
                      03430     
                      03431  LSHIFT mout
006D   35??               M  lslf sfploc11,f
                      03432  
                      03433         
MPASM  5.35                        TARGET.ASM   3-10-2024  15:32:25         PAGE 79


LOC  OBJECT CODE     LINE SOURCE TEXT
  VALUE

006E   1F80           03434  btfss min_lower,7      
006F   2???           03435  goto hllHBAAA   
                      03436 
                      03437  
0070   03??           03438  decf mout,f    
                      03439 
                      03440         
0071   30FF           03441  movlw .255
0072   06??           03442  xorwf mout,w
0073   1D03           03443  btfss STATUS,Z
0074   2???           03444  goto hllHBAAA  
                      03445         
                      03446      
0075   1400           03447  bsf minres,0
                      03448  
                      03449          
0076   2???           03450  goto hllMBAAA
                      03451          
                      03452 
0077                  03453 hllHBAAA:
                      03454 
                      03455    
                      03456  LSHIFT min_lower
0077   35??               M  lslf sfploc06,f
                      03457  
                      03458         
0078   03??           03459  decf ein1,f    
                      03460 
                      03461         
0079   2???           03462  goto hllGBAAA
                      03463 
007A                  03464 hllIBAAA:
                      03465         
007A   1F80           03466  btfss min_lower,7      
007B   2???           03467  goto hllKBAAA   
                      03468                 
                      03469         
007C   03??           03470  decf mout,f
                      03471 
                      03472         
007D   30FF           03473  movlw .255
007E   06??           03474  xorwf mout,w
007F   1D03           03475  btfss STATUS,Z
0080   2???           03476  goto hllJBAAA  
                      03477                 
                      03478      
0081   1400           03479  bsf minres,0    
                      03480          
                      03481          
0082   2???           03482  goto hllMBAAA   
                      03483          
                      03484          
0083                  03485 hllJBAAA:
MPASM  5.35                        TARGET.ASM   3-10-2024  15:32:25         PAGE 80


LOC  OBJECT CODE     LINE SOURCE TEXT
  VALUE

                      03486         
0083   307F           03487  movlw .127
0084   06??           03488  xorwf mout,w
0085   1D03           03489  btfss STATUS,Z
0086   2???           03490  goto hllKBAAA  
                      03491         
                      03492         
                      03493         
                      03494         
                      03495  LSHIFT mout
0087   35??               M  lslf sfploc11,f
                      03496         
                      03497         
0088   03??           03498  decf ein1,f    
                      03499         
                      03500         
0089   1B00           03501  btfsc min_lower,6
008A   2???           03502  goto hllKBAAA 
                      03503         
                      03504         
008B   0A??           03505  incf mout,f    
                      03506         
008C                  03507 hllKBAAA:
                      03508         
008C   2???           03509  goto hllACAAA
008D                  03510 hllLBAAA:
                      03511  
                      03512 
                      03513         
008D   1C80           03514  btfss neg,1
008E   2???           03515  goto hllUBAAA 
                      03516  
                      03517         
008F                  03518 hllMBAAA:
                      03519 
                      03520         
008F   08??           03521  movfw fulmin2
0090   02??           03522  subwf fulmin,w 
0091   00??           03523  movwf mout 
                      03524 
                      03525  
0092   1803           03526  btfsc STATUS,C
0093   2???           03527  goto hllNBAAA          
                      03528         
                      03529         
                      03530         
                      03531         
0094   1400           03532  bsf minres,0
                      03533         
                      03534         
0095   2???           03535  goto hllEBAAA  
                      03536 
0096                  03537 hllNBAAA:
MPASM  5.35                        TARGET.ASM   3-10-2024  15:32:25         PAGE 81


LOC  OBJECT CODE     LINE SOURCE TEXT
  VALUE

                      03538 
                      03539         
0096   08??           03540  movf mout,f 
0097   1903           03541  btfsc STATUS,Z 
0098   2???           03542  goto hllACAAA 
                      03543         
0099                  03544 hllOBAAA:
                      03545 
                      03546         
0099   1B80           03547  btfsc mout,7
009A   2???           03548  goto hllIBAAAb
                      03549  
                      03550         
                      03551         
                      03552     
                      03553  LSHIFT mout 
009B   35??               M  lslf sfploc11,f
                      03554  
                      03555         
009C   1F80           03556  btfss min2_lower,7
009D   2???           03557  goto hllPBAAA
                      03558 
                      03559         
                      03560         
009E   03??           03561  decf mout,f    
                      03562         
                      03563         
009F   30FF           03564  movlw .255
00A0   06??           03565  xorwf mout,w
00A1   1D03           03566  btfss STATUS,Z
00A2   2???           03567  goto hllPBAAA  
                      03568         
                      03569 
00A3   1400           03570  bsf minres,0
                      03571         
                      03572 
00A4   2???           03573  goto hllEBAAA
                      03574         
00A5                  03575 hllPBAAA:
                      03576 
                      03577  
                      03578  LSHIFT min2_lower
00A5   35??               M  lslf sfploc02,f
                      03579  
                      03580 
00A6   03??           03581  decf ein1,f
                      03582    
                      03583         
00A7   2???           03584  goto hllOBAAA  
00A8                  03585 hllIBAAAb:
                      03586 
                      03587         
00A8   1F80           03588  btfss min2_lower,7
MPASM  5.35                        TARGET.ASM   3-10-2024  15:32:25         PAGE 82


LOC  OBJECT CODE     LINE SOURCE TEXT
  VALUE

00A9   2???           03589  goto hllSBAAA
                      03590 
                      03591         
00AA   03??           03592  decf mout,f    
                      03593         
                      03594         
00AB   30FF           03595  movlw .255
00AC   06??           03596  xorwf mout,w
00AD   1D03           03597  btfss STATUS,Z
00AE   2???           03598  goto hllRBAAA  
                      03599                 
                      03600         
00AF   1400           03601  bsf minres,0
                      03602  
                      03603         
00B0   2???           03604  goto hllEBAAA
00B1                  03605 hllRBAAA:
                      03606 
                      03607 
                      03608         
00B1   307F           03609  movlw .127
00B2   06??           03610  xorwf mout,w
00B3   1D03           03611  btfss STATUS,Z
00B4   2???           03612  goto hllSBAAA  
                      03613                 
                      03614         
                      03615         
                      03616         
                      03617  LSHIFT mout
00B5   35??               M  lslf sfploc11,f
                      03618 
                      03619         
00B6   03??           03620  decf ein1,f    
                      03621 
                      03622         
00B7   1B00           03623  btfsc min2_lower,6
00B8   2???           03624  goto hllSBAAA 
                      03625  
                      03626         
                      03627         
00B9   0A??           03628  incf mout,f    
                      03629         
00BA                  03630 hllSBAAA:
                      03631 
                      03632         
00BA   2???           03633  goto hllACAAA
                      03634 
00BB                  03635 hllTBAAA:
                      03636          
00BB   08??           03637  movfw fulmin
00BC   02??           03638  subwf fulmin2,w 
00BD   00??           03639  movwf mout 
                      03640          
MPASM  5.35                        TARGET.ASM   3-10-2024  15:32:25         PAGE 83


LOC  OBJECT CODE     LINE SOURCE TEXT
  VALUE

                      03641          
                      03642          
                      03643      
00BE   1400           03644  bsf minres,0    
                      03645         
00BF   2???           03646  goto hllACAAA
                      03647 
                      03648         
00C0                  03649 hllUBAAA:
                      03650 
                      03651 
                      03652  
                      03653 
                      03654         
00C0   01??           03655  clrf mout_hi
                      03656         
                      03657         
                      03658         
00C1   08??           03659  movf fulmin,w
00C2   07??           03660  addwf fulmin2,w
00C3   00??           03661  movwf mout
                      03662         
                      03663         
                      03664 
                      03665         
00C4   1C03           03666  btfss STATUS,C 
00C5   2???           03667  goto hllVBAAA                  
                      03668         
                      03669         
00C6   0A??           03670  incf mout_hi,f 
                      03671         
00C7                  03672 hllVBAAA:
                      03673 
                      03674 
                      03675 
                      03676         
00C7   08??           03677  movf min_lower,w
00C8   07??           03678  addwf min2_lower,w
00C9   1803           03679  btfsc STATUS,C
00CA   2???           03680  goto hllWBAAA   
                      03681  
                      03682 
                      03683         
                      03684         
00CB   3980           03685  andlw .128     
00CC   1D03           03686  btfss STATUS,Z
00CD   2???           03687  goto hllWBAAA    
                      03688         
                      03689         
00CE   2???           03690  goto hllXBAAA  
                      03691         
00CF                  03692 hllWBAAA:
                      03693 
MPASM  5.35                        TARGET.ASM   3-10-2024  15:32:25         PAGE 84


LOC  OBJECT CODE     LINE SOURCE TEXT
  VALUE

                      03694 
                      03695         
00CF   0A??           03696  incf mout,f    
                      03697         
                      03698         
00D0   08??           03699  movf mout,f
00D1   1D03           03700  btfss STATUS,Z
00D2   2???           03701  goto hllXBAAA 
                      03702 
                      03703         
00D3   0A??           03704  incf mout_hi,f
                      03705 
00D4                  03706 hllXBAAA:
                      03707         
00D4   08??           03708  movf mout_hi,f
00D5   1903           03709  btfsc STATUS,Z
00D6   2???           03710  goto hllACAAA 
                      03711 
                      03712         
                      03713         
                      03714         
                      03715         
00D7   01??           03716  clrf big_c
                      03717  RSHIFT fulmin
00D8   36??               M  lsrf sfploc09,f
00D9   1803           03718  btfsc STATUS,C
00DA   1400           03719  bsf big_c,0
                      03720         
                      03721         
                      03722  RSHIFT min_lower
00DB   36??               M  lsrf sfploc06,f
                      03723 
                      03724         
                      03725         
00DC   1C00           03726  btfss big_c,0
00DD   2???           03727  goto hllYBAAA
                      03728         
                      03729         
                      03730         
00DE   1780           03731  bsf min_lower,7        
                      03732         
00DF                  03733 hllYBAAA:
                      03734 
                      03735         
                      03736         
00DF   01??           03737  clrf big_c
                      03738  RSHIFT fulmin2
00E0   36??               M  lsrf sfploc08,f
00E1   1803           03739  btfsc STATUS,C
00E2   1400           03740  bsf big_c,0
                      03741         
                      03742         
                      03743         
MPASM  5.35                        TARGET.ASM   3-10-2024  15:32:25         PAGE 85


LOC  OBJECT CODE     LINE SOURCE TEXT
  VALUE

                      03744         
                      03745  RSHIFT min2_lower
00E3   36??               M  lsrf sfploc02,f
                      03746         
                      03747         
                      03748         
00E4   1C00           03749  btfss big_c,0
00E5   2???           03750  goto hllZBAAA
                      03751 
                      03752         
                      03753         
                      03754         
00E6   1780           03755  bsf min_lower,7                
                      03756         
00E7                  03757 hllZBAAA:
                      03758 
                      03759         
00E7   0A??           03760  incf ein1,f    
                      03761         
                      03762         
00E8   2???           03763  goto hllUBAAA
                      03764 
                      03765 
00E9                  03766 hllACAAA:
                      03767 
00E9   08??           03768  movfw mout 
                      03769  
                      03770  
00EA   1D03           03771  btfss STATUS,Z 
00EB   2???           03772  goto hllBCAAA 
                      03773  
                      03774  
                      03775  
00EC   3000           03776  movlw .0 
                      03777 
                      03778  PUSH
00ED   0018               M  movwi ++INDF0
                      03779  
                      03780  
                      03781  
00EE   3080           03782  movlw 0x80 
                      03783  PUSH
00EF   0018               M  movwi ++INDF0
                      03784  
                      03785  
                      03786  
00F0   2???           03787  goto hllCCAAA
                      03788  
                      03789  
                      03790  
00F1                  03791 hllBCAAA: 
                      03792  
                      03793  
MPASM  5.35                        TARGET.ASM   3-10-2024  15:32:25         PAGE 86


LOC  OBJECT CODE     LINE SOURCE TEXT
  VALUE

                      03794  
                      03795  
00F1   08??           03796  movfw mout
00F2   3E80           03797  addlw -.128 
00F3   00??           03798  movwf mout 
                      03799 
                      03800  
                      03801  
                      03802  
00F4   1800           03803  btfsc minres,0 
00F5   1780           03804  bsf mout,7
                      03805  
00F6   08??           03806  movfw mout 
                      03807  PUSH
00F7   0018               M  movwi ++INDF0
                      03808  
                      03809  
                      03810  
00F8   002?           03811  banksel min
00F9   08??           03812  movfw ein1 
                      03813 
                      03814  PUSH
00FA   0018               M  movwi ++INDF0
                      03815  
00FB                  03816 hllCCAAA:
                      03817  
00FB   0008           03818  return 
                      03819 
                      03820  
                      03821 
                      03822 
                      03823 #undefine mout_hi
                      03824 
                      03825 
                      03826 #undefine big_c
                      03827 
                      03828 
                      03829 #undefine min2_lower
                      03830 
                      03831 
                      03832 #undefine minres
                      03833 
                      03834 
                      03835 #undefine fulmin2H
                      03836 
                      03837 
                      03838 #undefine fulminH
                      03839 
                      03840 
                      03841 #undefine min_lower
                      03842 
                      03843 
                      03844 #undefine rev
MPASM  5.35                        TARGET.ASM   3-10-2024  15:32:25         PAGE 87


LOC  OBJECT CODE     LINE SOURCE TEXT
  VALUE

                      03845 
                      03846 
                      03847 #undefine fulmin2
                      03848 
                      03849 
                      03850 #undefine fulmin
                      03851 
                      03852 
                      03853 #undefine multiplier
                      03854 
                      03855 
                      03856 #undefine mout
                      03857 
                      03858 
                      03859 #undefine util
                      03860 
                      03861 
                      03862 #undefine neg
                      03863 
                      03864 
                      03865 #undefine ein2
                      03866 
                      03867 
                      03868 #undefine min2
                      03869 
                      03870 
                      03871 #undefine ein1
                      03872 
                      03873 
                      03874 #undefine min
                      03875 
                      03876 
                      03877 
                      03878 
                      03879  
                      03880 
                      03881 sfp_copy CODE 
                      03882 
                      03883 
                      03884 
                      03885 #define mye sfploc00
                      03886 
                      03887 
                      03888 #define mym sfploc01
                      03889 
                      03890 
0000                  03891 copyf:  
                      03892 #ifdef HLLMULTITASK
                      03893 #ifdef HLLGUARDsfploc 
                      03894  movf in_isr,f  
                      03895  btfsc STATUS,Z
                      03896  
                      03897 
MPASM  5.35                        TARGET.ASM   3-10-2024  15:32:25         PAGE 88


LOC  OBJECT CODE     LINE SOURCE TEXT
  VALUE

                      03898 
                      03899  goto copyf0
                      03900 
                      03901  POP
                      03902  banksel mye 
                      03903  movwf mye
                      03904  POP
                      03905  movwf mym
                      03906  PUSH
                      03907  movfw mye
                      03908  PUSH
                      03909  movfw mym
                      03910  PUSH
                      03911  movfw mye
                      03912  PUSH
                      03913  return
                      03914  
                      03915 
                      03916 
                      03917 #undefine mye
                      03918 
                      03919 
                      03920 #undefine mym
                      03921 
                      03922 
                      03923 #define mye sfploc00+1
                      03924 
                      03925 
                      03926 #define mym sfploc01+1
                      03927 
                      03928 
                      03929 copyf0:
                      03930 #endif
                      03931 #endif
                      03932 
                      03933  POP
0000   0013               M  moviw INDF0-- ; preserve the safety of this code under interruptible conditions. 
0001   002?           03934  banksel mye 
0002   00??           03935  movwf mye
                      03936  POP
0003   0013               M  moviw INDF0-- ; preserve the safety of this code under interruptible conditions. 
0004   00??           03937  movwf mym
                      03938  PUSH
0005   0018               M  movwi ++INDF0
0006   08??           03939  movfw mye
                      03940  PUSH
0007   0018               M  movwi ++INDF0
0008   08??           03941  movfw mym
                      03942  PUSH
0009   0018               M  movwi ++INDF0
000A   08??           03943  movfw mye
                      03944  PUSH
000B   0018               M  movwi ++INDF0
MPASM  5.35                        TARGET.ASM   3-10-2024  15:32:25         PAGE 89


LOC  OBJECT CODE     LINE SOURCE TEXT
  VALUE

000C   0008           03945  return
                      03946  
                      03947 
                      03948 
                      03949 #undefine mye
                      03950 
                      03951 
                      03952 #undefine mym
                      03953 
                      03954 
                      03955 
                      03956 
                      03957 
                      03958 
                      03959 
                      03960 
                      03961 
                      03962 
                      03963 
                      03964   
                      03965  
                      03966 
                      03967 sfp_div CODE 
                      03968 
                      03969 
                      03970 #define rounded sfploc00
                      03971 
                      03972 
                      03973 #define big_c sfploc01
                      03974 
                      03975 
                      03976 #define a_hi_msb sfploc02
                      03977 
                      03978 
                      03979 #define loop_count sfploc03
                      03980 
                      03981 
                      03982 #define run_total sfploc04
                      03983 
                      03984 
                      03985 #define min2_lower sfploc05
                      03986 
                      03987 
                      03988 #define subtrahend sfploc06
                      03989 
                      03990 
                      03991 #define quotient_lo sfploc07
                      03992 
                      03993 
                      03994 #define term sfploc08
                      03995 
                      03996 
                      03997 #define exam sfploc09
MPASM  5.35                        TARGET.ASM   3-10-2024  15:32:25         PAGE 90


LOC  OBJECT CODE     LINE SOURCE TEXT
  VALUE

                      03998 
                      03999 
                      04000 #define multiplier sfploc10
                      04001 
                      04002 
                      04003 #define mout sfploc11
                      04004 
                      04005 
                      04006 #define util sfploc12
                      04007 
                      04008 
                      04009 #define neg sfploc13
                      04010 
                      04011 
                      04012 #define ein2 sfploc14
                      04013 
                      04014 
                      04015 #define min2 sfploc15
                      04016 
                      04017 
                      04018 #define ein sfploc16
                      04019 
                      04020 
                      04021 #define min sfploc17
                      04022 
                      04023 
0000                  04024 divf:  
                      04025 #ifdef HLLMULTITASK
                      04026 #ifdef HLLGUARDsfploc 
                      04027  movf in_isr,f  
                      04028  btfsc STATUS,Z
                      04029  
                      04030 
                      04031 
                      04032  goto divf0
                      04033 
                      04034 
                      04035 
                      04036 
                      04037 
                      04038 
                      04039 
                      04040 
                      04041 
                      04042 
                      04043 
                      04044 
                      04045 
                      04046 
                      04047 
                      04048  POP
                      04049 
                      04050  banksel min
MPASM  5.35                        TARGET.ASM   3-10-2024  15:32:25         PAGE 91


LOC  OBJECT CODE     LINE SOURCE TEXT
  VALUE

                      04051  movwf ein2 
                      04052  clrf neg 
                      04053 
                      04054 
                      04055  POP
                      04056 
                      04057  banksel min
                      04058  movwf min2 
                      04059  btfsc min2,7
                      04060  bsf neg,1
                      04061  bcf min2,7 
                      04062 
                      04063  POP
                      04064 
                      04065  banksel min
                      04066  movwf ein 
                      04067 
                      04068  POP
                      04069 
                      04070  banksel min
                      04071  movwf min 
                      04072  btfsc min,7
                      04073  bsf neg,0 
                      04074  bcf min,7 
                      04075  movfw ein 
                      04076  movwf util 
                      04077  movfw ein2 
                      04078  subwf util,f 
                      04079 
                      04080  clrf exam 
                      04081 
                      04082  
                      04083  movfw min 
                      04084  addlw .128 
                      04085  movwf min 
                      04086 
                      04087  movfw min2 
                      04088  addlw .128 
                      04089  movwf min2 
                      04090 
                      04091  
                      04092  
                      04093 
                      04094  
                      04095  movwf term 
                      04096 
                      04097 
                      04098 
                      04099 
                      04100  clrf quotient_lo
                      04101 
                      04102 
                      04103  clrf subtrahend
MPASM  5.35                        TARGET.ASM   3-10-2024  15:32:25         PAGE 92


LOC  OBJECT CODE     LINE SOURCE TEXT
  VALUE

                      04104 
                      04105 
                      04106  clrf min2_lower
                      04107 
                      04108 
                      04109  clrf run_total
                      04110 
                      04111 
                      04112  clrf loop_count
                      04113 
                      04114 f4tp:
                      04115 
                      04116  movf loop_count,w
                      04117  xorlw .16
                      04118  btfsc STATUS,Z
                      04119  goto f4dn
                      04120 
                      04121 
                      04122  movf min,w
                      04123  andlw .128
                      04124  movwf a_hi_msb
                      04125  
                      04126 
                      04127  LSHIFT min2_lower
                      04128 
                      04129 
                      04130 
                      04131  LSHIFT run_total
                      04132 
                      04133 
                      04134  btfss STATUS,C
                      04135  goto que4
                      04136 
                      04137 
                      04138  incf min2_lower,f
                      04139 
                      04140 que4:
                      04141 
                      04142 
                      04143  LSHIFT min
                      04144 
                      04145 
                      04146 
                      04147  LSHIFT quotient_lo
                      04148 
                      04149 
                      04150  btfsc STATUS,C
                      04151 
                      04152 
                      04153 
                      04154  incf min,f
                      04155 
                      04156 
MPASM  5.35                        TARGET.ASM   3-10-2024  15:32:25         PAGE 93


LOC  OBJECT CODE     LINE SOURCE TEXT
  VALUE

                      04157  movf a_hi_msb,f
                      04158  btfsc STATUS,Z
                      04159  goto nry4
                      04160 
                      04161 
                      04162  incf run_total,f
                      04163 
                      04164 
                      04165  btfsc STATUS,Z
                      04166  incf min2_lower,f
                      04167 
                      04168 nry4:
                      04169 
                      04170 
                      04171  clrf big_c 
                      04172  movfw min2
                      04173  subwf run_total,w 
                      04174  btfss STATUS,C 
                      04175  bsf big_c,0 
                      04176 
                      04177 
                      04178  movf subtrahend,w
                      04179  subwf min2_lower,f 
                      04180 
                      04181 
                      04182  movf min2,w
                      04183  subwf run_total,f
                      04184 
                      04185 
                      04186  btfsc big_c,0 
                      04187  decf min2_lower,f
                      04188 
                      04189 
                      04190  btfss min2_lower,7
                      04191  goto ga4g0
                      04192 
                      04193 
                      04194 
                      04195  movf min2,w
                      04196  addwf run_total,w
                      04197  clrf big_c
                      04198  btfsc STATUS,C
                      04199  bsf big_c,0
                      04200 
                      04201 
                      04202  movf subtrahend,w
                      04203  addwf min2_lower,f
                      04204 
                      04205 
                      04206  movf min2,w
                      04207  addwf run_total,f
                      04208 
                      04209 
MPASM  5.35                        TARGET.ASM   3-10-2024  15:32:25         PAGE 94


LOC  OBJECT CODE     LINE SOURCE TEXT
  VALUE

                      04210 
                      04211  btfsc big_c,0 
                      04212  incf min2_lower,f
                      04213 
                      04214 
                      04215 
                      04216  movlw .254
                      04217  andwf quotient_lo,f
                      04218 
                      04219 
                      04220  goto ga5g0
                      04221 ga4g0:
                      04222 
                      04223 
                      04224  movlw .1
                      04225  iorwf quotient_lo,f
                      04226 ga5g0:
                      04227 
                      04228 
                      04229 
                      04230  incf loop_count,f
                      04231 
                      04232 
                      04233  goto f4tp
                      04234 
                      04235 f4dn:
                      04236 
                      04237 
                      04238  movf quotient_lo,w
                      04239  movwf mout
                      04240 
                      04241 
                      04242  clrf multiplier
                      04243  btfsc min,0
                      04244  bsf multiplier,0
                      04245 
                      04246  
                      04247  RSHIFT term
                      04248  
                      04249  clrf rounded
                      04250  movfw run_total
                      04251  subwf term,w    
                      04252  btfsc STATUS,C 
                      04253  goto fr9rh   
                      04254  incf mout,f 
                      04255  bsf rounded,0 
                      04256  
                      04257 fr9rh:
                      04258  
                      04259 
                      04260 
                      04261  movf multiplier,f
                      04262  btfsc STATUS,Z
MPASM  5.35                        TARGET.ASM   3-10-2024  15:32:25         PAGE 95


LOC  OBJECT CODE     LINE SOURCE TEXT
  VALUE

                      04263  goto notmult0
                      04264  
                      04265 
                      04266 
                      04267 
                      04268 
                      04269  
                      04270  btfss mout,0
                      04271  goto prpg1
                      04272 
                      04273  
                      04274  btfsc rounded,0
                      04275  goto prpg1
                      04276  
                      04277  
                      04278 
                      04279  RSHIFT mout
                      04280  
                      04281 
                      04282  incf mout,f
                      04283 
                      04284 
                      04285  goto prpgm
                      04286 
                      04287 prpg1:
                      04288 
                      04289 
                      04290  RSHIFT mout
                      04291  
                      04292 prpgm:
                      04293 
                      04294 
                      04295  bsf mout,7
                      04296 
                      04297  goto notmult1
                      04298 notmult0:
                      04299  decf util,f 
                      04300 notmult1:
                      04301  movfw mout 
                      04302 
                      04303 retrydvif1: 
                      04304 
                      04305   addlw -.128 
                      04306   movwf exam 
                      04307   btfss exam,7 
                      04308   goto nodivfcarr2 
                      04309   addlw .128    
                      04310 
                      04311  
                      04312  decf util,f 
                      04313 
                      04314  
                      04315  LSHIFT mout
MPASM  5.35                        TARGET.ASM   3-10-2024  15:32:25         PAGE 96


LOC  OBJECT CODE     LINE SOURCE TEXT
  VALUE

                      04316  movfw mout 
                      04317  goto retrydvif1 
                      04318 
                      04319 nodivfcarr2: 
                      04320 
                      04321 
                      04322  movwf mout
                      04323 
                      04324 
                      04325 
                      04326  
                      04327  
                      04328  btfsc neg,0
                      04329  goto ita33nq 
                      04330  btfss neg,1
                      04331  goto div_sames 
                      04332  goto div_dif5 
                      04333 ita33nq: 
                      04334  btfsc neg,1
                      04335  goto div_sames 
                      04336 
                      04337 div_dif5: 
                      04338 
                      04339  
                      04340  
                      04341  
                      04342  
                      04343  movfw mout 
                      04344  iorlw .128 
                      04345  movwf mout 
                      04346  
                      04347 
                      04348 div_sames: 
                      04349  movfw mout 
                      04350  PUSH
                      04351  banksel min
                      04352  movfw util 
                      04353  PUSH
                      04354  
                      04355  return 
                      04356 
                      04357  
                      04358  
                      04359 
                      04360 
                      04361 #undefine rounded
                      04362 
                      04363 
                      04364 #undefine big_c
                      04365 
                      04366 
                      04367 #undefine a_hi_msb
                      04368 
MPASM  5.35                        TARGET.ASM   3-10-2024  15:32:25         PAGE 97


LOC  OBJECT CODE     LINE SOURCE TEXT
  VALUE

                      04369 
                      04370 #undefine loop_count
                      04371 
                      04372 
                      04373 #undefine run_total
                      04374 
                      04375 
                      04376 #undefine min2_lower
                      04377 
                      04378 
                      04379 #undefine subtrahend
                      04380 
                      04381 
                      04382 #undefine quotient_lo
                      04383 
                      04384 
                      04385 #undefine term
                      04386 
                      04387 
                      04388 #undefine exam
                      04389 
                      04390 
                      04391 #undefine multiplier
                      04392 
                      04393 
                      04394 #undefine mout
                      04395 
                      04396 
                      04397 #undefine util
                      04398 
                      04399 
                      04400 #undefine neg
                      04401 
                      04402 
                      04403 #undefine ein2
                      04404 
                      04405 
                      04406 #undefine min2
                      04407 
                      04408 
                      04409 #undefine ein
                      04410 
                      04411 
                      04412 #undefine min
                      04413 
                      04414 
                      04415 #define rounded sfploc00+1
                      04416 
                      04417 
                      04418 #define big_c sfploc01+1
                      04419 
                      04420 
                      04421 #define a_hi_msb sfploc02+1
MPASM  5.35                        TARGET.ASM   3-10-2024  15:32:25         PAGE 98


LOC  OBJECT CODE     LINE SOURCE TEXT
  VALUE

                      04422 
                      04423 
                      04424 #define loop_count sfploc03+1
                      04425 
                      04426 
                      04427 #define run_total sfploc04+1
                      04428 
                      04429 
                      04430 #define min2_lower sfploc05+1
                      04431 
                      04432 
                      04433 #define subtrahend sfploc06+1
                      04434 
                      04435 
                      04436 #define quotient_lo sfploc07+1
                      04437 
                      04438 
                      04439 #define term sfploc08+1
                      04440 
                      04441 
                      04442 #define exam sfploc09+1
                      04443 
                      04444 
                      04445 #define multiplier sfploc10+1
                      04446 
                      04447 
                      04448 #define mout sfploc11+1
                      04449 
                      04450 
                      04451 #define util sfploc12+1
                      04452 
                      04453 
                      04454 #define neg sfploc13+1
                      04455 
                      04456 
                      04457 #define ein2 sfploc14+1
                      04458 
                      04459 
                      04460 #define min2 sfploc15+1
                      04461 
                      04462 
                      04463 #define ein sfploc16+1
                      04464 
                      04465 
                      04466 #define min sfploc17+1
                      04467 
                      04468 
                      04469 divf0:
                      04470 #endif
                      04471 #endif
                      04472 
                      04473 
                      04474 
MPASM  5.35                        TARGET.ASM   3-10-2024  15:32:25         PAGE 99


LOC  OBJECT CODE     LINE SOURCE TEXT
  VALUE

                      04475 
                      04476 
                      04477 
                      04478 
                      04479 
                      04480 
                      04481 
                      04482 
                      04483 
                      04484 
                      04485 
                      04486 
                      04487  POP
0000   0013               M  moviw INDF0-- ; preserve the safety of this code under interruptible conditions. 
                      04488 
0001   002?           04489  banksel min
0002   00??           04490  movwf ein2 
0003   01??           04491  clrf neg 
                      04492 
                      04493 
                      04494  POP
0004   0013               M  moviw INDF0-- ; preserve the safety of this code under interruptible conditions. 
                      04495 
0005   002?           04496  banksel min
0006   00??           04497  movwf min2 
0007   1B80           04498  btfsc min2,7
0008   1480           04499  bsf neg,1
0009   1380           04500  bcf min2,7 
                      04501 
                      04502  POP
000A   0013               M  moviw INDF0-- ; preserve the safety of this code under interruptible conditions. 
                      04503 
000B   002?           04504  banksel min
000C   00??           04505  movwf ein 
                      04506 
                      04507  POP
000D   0013               M  moviw INDF0-- ; preserve the safety of this code under interruptible conditions. 
                      04508 
000E   002?           04509  banksel min
000F   00??           04510  movwf min 
0010   1B80           04511  btfsc min,7
0011   1400           04512  bsf neg,0 
0012   1380           04513  bcf min,7 
0013   08??           04514  movfw ein 
0014   00??           04515  movwf util 
0015   08??           04516  movfw ein2 
0016   02??           04517  subwf util,f 
                      04518 
0017   01??           04519  clrf exam 
                      04520 
                      04521  
0018   08??           04522  movfw min 
0019   3E80           04523  addlw .128 
MPASM  5.35                        TARGET.ASM   3-10-2024  15:32:25         PAGE 100


LOC  OBJECT CODE     LINE SOURCE TEXT
  VALUE

001A   00??           04524  movwf min 
                      04525 
001B   08??           04526  movfw min2 
001C   3E80           04527  addlw .128 
001D   00??           04528  movwf min2 
                      04529 
                      04530  
                      04531  
                      04532 
                      04533  
001E   00??           04534  movwf term 
                      04535 
                      04536 
                      04537 
                      04538 
001F   01??           04539  clrf quotient_lo
                      04540 
                      04541 
0020   01??           04542  clrf subtrahend
                      04543 
                      04544 
0021   01??           04545  clrf min2_lower
                      04546 
                      04547 
0022   01??           04548  clrf run_total
                      04549 
                      04550 
0023   01??           04551  clrf loop_count
                      04552 
0024                  04553 hllDCAAA:
                      04554 
0024   08??           04555  movf loop_count,w
0025   3A10           04556  xorlw .16
0026   1903           04557  btfsc STATUS,Z
0027   2???           04558  goto hllICAAA
                      04559 
                      04560 
0028   08??           04561  movf min,w
0029   3980           04562  andlw .128
002A   00??           04563  movwf a_hi_msb
                      04564  
                      04565 
                      04566  LSHIFT min2_lower
002B   35??               M  lslf sfploc05,f
                      04567 
                      04568 
                      04569 
                      04570  LSHIFT run_total
002C   35??               M  lslf sfploc04,f
                      04571 
                      04572 
002D   1C03           04573  btfss STATUS,C
002E   2???           04574  goto hllECAAA
MPASM  5.35                        TARGET.ASM   3-10-2024  15:32:25         PAGE 101


LOC  OBJECT CODE     LINE SOURCE TEXT
  VALUE

                      04575 
                      04576 
002F   0A??           04577  incf min2_lower,f
                      04578 
0030                  04579 hllECAAA:
                      04580 
                      04581 
                      04582  LSHIFT min
0030   35??               M  lslf sfploc17,f
                      04583 
                      04584 
                      04585 
                      04586  LSHIFT quotient_lo
0031   35??               M  lslf sfploc07,f
                      04587 
                      04588 
0032   1803           04589  btfsc STATUS,C
                      04590 
                      04591 
                      04592 
0033   0A??           04593  incf min,f
                      04594 
                      04595 
0034   08??           04596  movf a_hi_msb,f
0035   1903           04597  btfsc STATUS,Z
0036   2???           04598  goto hllFCAAA
                      04599 
                      04600 
0037   0A??           04601  incf run_total,f
                      04602 
                      04603 
0038   1903           04604  btfsc STATUS,Z
0039   0A??           04605  incf min2_lower,f
                      04606 
003A                  04607 hllFCAAA:
                      04608 
                      04609 
003A   01??           04610  clrf big_c 
003B   08??           04611  movfw min2
003C   02??           04612  subwf run_total,w 
003D   1C03           04613  btfss STATUS,C 
003E   1400           04614  bsf big_c,0 
                      04615 
                      04616 
003F   08??           04617  movf subtrahend,w
0040   02??           04618  subwf min2_lower,f 
                      04619 
                      04620 
0041   08??           04621  movf min2,w
0042   02??           04622  subwf run_total,f
                      04623 
                      04624 
0043   1800           04625  btfsc big_c,0 
MPASM  5.35                        TARGET.ASM   3-10-2024  15:32:25         PAGE 102


LOC  OBJECT CODE     LINE SOURCE TEXT
  VALUE

0044   03??           04626  decf min2_lower,f
                      04627 
                      04628 
0045   1F80           04629  btfss min2_lower,7
0046   2???           04630  goto hllGCAAA
                      04631 
                      04632 
                      04633 
0047   08??           04634  movf min2,w
0048   07??           04635  addwf run_total,w
0049   01??           04636  clrf big_c
004A   1803           04637  btfsc STATUS,C
004B   1400           04638  bsf big_c,0
                      04639 
                      04640 
004C   08??           04641  movf subtrahend,w
004D   07??           04642  addwf min2_lower,f
                      04643 
                      04644 
004E   08??           04645  movf min2,w
004F   07??           04646  addwf run_total,f
                      04647 
                      04648 
                      04649 
0050   1800           04650  btfsc big_c,0 
0051   0A??           04651  incf min2_lower,f
                      04652 
                      04653 
                      04654 
0052   30FE           04655  movlw .254
0053   05??           04656  andwf quotient_lo,f
                      04657 
                      04658 
0054   2???           04659  goto hllHCAAA
0055                  04660 hllGCAAA:
                      04661 
                      04662 
0055   3001           04663  movlw .1
0056   04??           04664  iorwf quotient_lo,f
0057                  04665 hllHCAAA:
                      04666 
                      04667 
                      04668 
0057   0A??           04669  incf loop_count,f
                      04670 
                      04671 
0058   2???           04672  goto hllDCAAA
                      04673 
0059                  04674 hllICAAA:
                      04675 
                      04676 
0059   08??           04677  movf quotient_lo,w
005A   00??           04678  movwf mout
MPASM  5.35                        TARGET.ASM   3-10-2024  15:32:25         PAGE 103


LOC  OBJECT CODE     LINE SOURCE TEXT
  VALUE

                      04679 
                      04680 
005B   01??           04681  clrf multiplier
005C   1800           04682  btfsc min,0
005D   1400           04683  bsf multiplier,0
                      04684 
                      04685  
                      04686  RSHIFT term
005E   36??               M  lsrf sfploc08,f
                      04687  
005F   01??           04688  clrf rounded
0060   08??           04689  movfw run_total
0061   02??           04690  subwf term,w    
0062   1803           04691  btfsc STATUS,C 
0063   2???           04692  goto hllJCAAA   
0064   0A??           04693  incf mout,f 
0065   1400           04694  bsf rounded,0 
                      04695  
0066                  04696 hllJCAAA:
                      04697  
                      04698 
                      04699 
0066   08??           04700  movf multiplier,f
0067   1903           04701  btfsc STATUS,Z
0068   2???           04702  goto hllMCAAA
                      04703  
                      04704 
                      04705 
                      04706 
                      04707 
                      04708  
0069   1C00           04709  btfss mout,0
006A   2???           04710  goto hllKCAAA
                      04711 
                      04712  
006B   1800           04713  btfsc rounded,0
006C   2???           04714  goto hllKCAAA
                      04715  
                      04716  
                      04717 
                      04718  RSHIFT mout
006D   36??               M  lsrf sfploc11,f
                      04719  
                      04720 
006E   0A??           04721  incf mout,f
                      04722 
                      04723 
006F   2???           04724  goto hllLCAAA
                      04725 
0070                  04726 hllKCAAA:
                      04727 
                      04728 
                      04729  RSHIFT mout
MPASM  5.35                        TARGET.ASM   3-10-2024  15:32:25         PAGE 104


LOC  OBJECT CODE     LINE SOURCE TEXT
  VALUE

0070   36??               M  lsrf sfploc11,f
                      04730  
0071                  04731 hllLCAAA:
                      04732 
                      04733 
0071   1780           04734  bsf mout,7
                      04735 
0072   2???           04736  goto hllNCAAA
0073                  04737 hllMCAAA:
0073   03??           04738  decf util,f 
0074                  04739 hllNCAAA:
0074   08??           04740  movfw mout 
                      04741 
0075                  04742 hllOCAAA: 
                      04743 
0075   3E80           04744   addlw -.128 
0076   00??           04745   movwf exam 
0077   1F80           04746   btfss exam,7 
0078   2???           04747   goto hllPCAAA 
0079   3E80           04748   addlw .128    
                      04749 
                      04750  
007A   03??           04751  decf util,f 
                      04752 
                      04753  
                      04754  LSHIFT mout
007B   35??               M  lslf sfploc11,f
007C   08??           04755  movfw mout 
007D   2???           04756  goto hllOCAAA 
                      04757 
007E                  04758 hllPCAAA: 
                      04759 
                      04760 
007E   00??           04761  movwf mout
                      04762 
                      04763 
                      04764 
                      04765  
                      04766  
007F   1800           04767  btfsc neg,0
0080   2???           04768  goto hllQCAAA 
0081   1C80           04769  btfss neg,1
0082   2???           04770  goto hllSCAAA 
0083   2???           04771  goto hllRCAAA 
0084                  04772 hllQCAAA: 
0084   1880           04773  btfsc neg,1
0085   2???           04774  goto hllSCAAA 
                      04775 
0086                  04776 hllRCAAA: 
                      04777 
                      04778  
                      04779  
                      04780  
MPASM  5.35                        TARGET.ASM   3-10-2024  15:32:25         PAGE 105


LOC  OBJECT CODE     LINE SOURCE TEXT
  VALUE

                      04781  
0086   08??           04782  movfw mout 
0087   3880           04783  iorlw .128 
0088   00??           04784  movwf mout 
                      04785  
                      04786 
0089                  04787 hllSCAAA: 
0089   08??           04788  movfw mout 
                      04789  PUSH
008A   0018               M  movwi ++INDF0
008B   002?           04790  banksel min
008C   08??           04791  movfw util 
                      04792  PUSH
008D   0018               M  movwi ++INDF0
                      04793  
008E   0008           04794  return 
                      04795 
                      04796  
                      04797  
                      04798 
                      04799 
                      04800 #undefine rounded
                      04801 
                      04802 
                      04803 #undefine big_c
                      04804 
                      04805 
                      04806 #undefine a_hi_msb
                      04807 
                      04808 
                      04809 #undefine loop_count
                      04810 
                      04811 
                      04812 #undefine run_total
                      04813 
                      04814 
                      04815 #undefine min2_lower
                      04816 
                      04817 
                      04818 #undefine subtrahend
                      04819 
                      04820 
                      04821 #undefine quotient_lo
                      04822 
                      04823 
                      04824 #undefine term
                      04825 
                      04826 
                      04827 #undefine exam
                      04828 
                      04829 
                      04830 #undefine multiplier
                      04831 
MPASM  5.35                        TARGET.ASM   3-10-2024  15:32:25         PAGE 106


LOC  OBJECT CODE     LINE SOURCE TEXT
  VALUE

                      04832 
                      04833 #undefine mout
                      04834 
                      04835 
                      04836 #undefine util
                      04837 
                      04838 
                      04839 #undefine neg
                      04840 
                      04841 
                      04842 #undefine ein2
                      04843 
                      04844 
                      04845 #undefine min2
                      04846 
                      04847 
                      04848 #undefine ein
                      04849 
                      04850 
                      04851 #undefine min
                      04852 
                      04853 
                      04854 
                      04855 
                      04856  
                      04857 
                      04858 sfp_tou CODE 
                      04859 
                      04860 
                      04861 
                      04862 #define util sfploc00
                      04863 
                      04864 
                      04865 #define divisor sfploc01
                      04866 
                      04867 
                      04868 #define karg2 sfploc02
                      04869 
                      04870 
                      04871 #define karg1 sfploc03
                      04872 
                      04873 
0000                  04874 ftou:  
                      04875 #ifdef HLLMULTITASK
                      04876 #ifdef HLLGUARDsfploc 
                      04877  movf in_isr,f  
                      04878  btfsc STATUS,Z
                      04879  
                      04880 
                      04881 
                      04882  goto ftou0
                      04883 
                      04884 
MPASM  5.35                        TARGET.ASM   3-10-2024  15:32:25         PAGE 107


LOC  OBJECT CODE     LINE SOURCE TEXT
  VALUE

                      04885 
                      04886 
                      04887 
                      04888 
                      04889  POP
                      04890  banksel karg2
                      04891  movwf karg2 
                      04892  clrf karg1 
                      04893  
                      04894  
                      04895  
                      04896  
                      04897  btfss karg2,7
                      04898  goto re55zek
                      04899  POP
                      04900  goto re55zer 
                      04901 re55zek:
                      04902  
                      04903  POP
                      04904  addlw .128
                      04905  banksel karg1
                      04906  movwf karg1 
                      04907  
                      04908  movfw karg2
                      04909  sublw .7
                      04910  
                      04911  movwf divisor 
                      04912 
                      04913  movlw high FPRollTbl3 
                      04914  movwf PCLATH 
                      04915  movlw low FPRollTbl3
                      04916  addwf divisor,w 
                      04917  btfsc STATUS,C 
                      04918  incf PCLATH,f 
                      04919  movwf PCL 
                      04920 
                      04921 
                      04922 FPRollTbl3:
                      04923  goto shift0
                      04924  goto shift1
                      04925  goto shift2 
                      04926  goto shift3
                      04927  goto shift4
                      04928  goto shift5
                      04929  goto shift6
                      04930  goto shift7
                      04931  
                      04932 shift7:
                      04933  RSHIFT karg1
                      04934  rrf util,f
                      04935 shift6:
                      04936  RSHIFT karg1
                      04937  rrf util,f
MPASM  5.35                        TARGET.ASM   3-10-2024  15:32:25         PAGE 108


LOC  OBJECT CODE     LINE SOURCE TEXT
  VALUE

                      04938 shift5:
                      04939  RSHIFT karg1
                      04940  rrf util,f
                      04941 shift4:
                      04942  RSHIFT karg1
                      04943  rrf util,f
                      04944 shift3:
                      04945  RSHIFT karg1
                      04946  rrf util,f
                      04947 shift2:
                      04948  RSHIFT karg1
                      04949  rrf util,f
                      04950 shift1:
                      04951  RSHIFT karg1
                      04952  rrf util,f
                      04953 shift0:
                      04954 
                      04955 re55zer:
                      04956  banksel karg1
                      04957  movfw karg1 
                      04958  PUSH
                      04959  
                      04960  
                      04961  return
                      04962 
                      04963 
                      04964 
                      04965 
                      04966 #undefine util
                      04967 
                      04968 
                      04969 #undefine divisor
                      04970 
                      04971 
                      04972 #undefine karg2
                      04973 
                      04974 
                      04975 #undefine karg1
                      04976 
                      04977 
                      04978 #define util sfploc00+1
                      04979 
                      04980 
                      04981 #define divisor sfploc01+1
                      04982 
                      04983 
                      04984 #define karg2 sfploc02+1
                      04985 
                      04986 
                      04987 #define karg1 sfploc03+1
                      04988 
                      04989 
                      04990 ftou0:
MPASM  5.35                        TARGET.ASM   3-10-2024  15:32:25         PAGE 109


LOC  OBJECT CODE     LINE SOURCE TEXT
  VALUE

                      04991 #endif
                      04992 #endif
                      04993 
                      04994 
                      04995 
                      04996 
                      04997 
                      04998 
                      04999  POP
0000   0013               M  moviw INDF0-- ; preserve the safety of this code under interruptible conditions. 
0001   002?           05000  banksel karg2
0002   00??           05001  movwf karg2 
0003   01??           05002  clrf karg1 
                      05003  
                      05004  
                      05005  
                      05006  
0004   1F80           05007  btfss karg2,7
0005   2???           05008  goto hllTCAAA
                      05009  POP
0006   0013               M  moviw INDF0-- ; preserve the safety of this code under interruptible conditions. 
0007   2???           05010  goto hllDDAAA 
0008                  05011 hllTCAAA:
                      05012  
                      05013  POP
0008   0013               M  moviw INDF0-- ; preserve the safety of this code under interruptible conditions. 
0009   3E80           05014  addlw .128
000A   002?           05015  banksel karg1
000B   00??           05016  movwf karg1 
                      05017  
000C   08??           05018  movfw karg2
000D   3C07           05019  sublw .7
                      05020  
000E   00??           05021  movwf divisor 
                      05022 
000F   30??           05023  movlw high hllUCAAA 
0010   008A           05024  movwf PCLATH 
0011   30??           05025  movlw low hllUCAAA
0012   07??           05026  addwf divisor,w 
0013   1803           05027  btfsc STATUS,C 
0014   0A8A           05028  incf PCLATH,f 
0015   0082           05029  movwf PCL 
                      05030 
                      05031 
0016                  05032 hllUCAAA:
0016   2???           05033  goto hllCDAAA
0017   2???           05034  goto hllBDAAA
0018   2???           05035  goto hllADAAA 
0019   2???           05036  goto hllZCAAA
001A   2???           05037  goto hllYCAAA
001B   2???           05038  goto hllXCAAA
001C   2???           05039  goto hllWCAAA
001D   2???           05040  goto hllVCAAA
MPASM  5.35                        TARGET.ASM   3-10-2024  15:32:25         PAGE 110


LOC  OBJECT CODE     LINE SOURCE TEXT
  VALUE

                      05041  
001E                  05042 hllVCAAA:
                      05043  RSHIFT karg1
001E   36??               M  lsrf sfploc03,f
001F   0C??           05044  rrf util,f
0020                  05045 hllWCAAA:
                      05046  RSHIFT karg1
0020   36??               M  lsrf sfploc03,f
0021   0C??           05047  rrf util,f
0022                  05048 hllXCAAA:
                      05049  RSHIFT karg1
0022   36??               M  lsrf sfploc03,f
0023   0C??           05050  rrf util,f
0024                  05051 hllYCAAA:
                      05052  RSHIFT karg1
0024   36??               M  lsrf sfploc03,f
0025   0C??           05053  rrf util,f
0026                  05054 hllZCAAA:
                      05055  RSHIFT karg1
0026   36??               M  lsrf sfploc03,f
0027   0C??           05056  rrf util,f
0028                  05057 hllADAAA:
                      05058  RSHIFT karg1
0028   36??               M  lsrf sfploc03,f
0029   0C??           05059  rrf util,f
002A                  05060 hllBDAAA:
                      05061  RSHIFT karg1
002A   36??               M  lsrf sfploc03,f
002B   0C??           05062  rrf util,f
002C                  05063 hllCDAAA:
                      05064 
002C                  05065 hllDDAAA:
002C   002?           05066  banksel karg1
002D   08??           05067  movfw karg1 
                      05068  PUSH
002E   0018               M  movwi ++INDF0
                      05069  
                      05070  
002F   0008           05071  return
                      05072 
                      05073 
                      05074 
                      05075 
                      05076 #undefine util
                      05077 
                      05078 
                      05079 #undefine divisor
                      05080 
                      05081 
                      05082 #undefine karg2
                      05083 
                      05084 
                      05085 #undefine karg1
MPASM  5.35                        TARGET.ASM   3-10-2024  15:32:25         PAGE 111


LOC  OBJECT CODE     LINE SOURCE TEXT
  VALUE

                      05086 
                      05087 
                      05088 
                      05089 
                      05090 
                      05091 
                      05092  
                      05093  
                      05094 
                      05095 
                      05096 sfp_iszero CODE
                      05097 
0000                  05098 iszerof: 
                      05099  POP
0000   0013               M  moviw INDF0-- ; preserve the safety of this code under interruptible conditions. 
0001   3A80           05100  xorlw 0x80 
0002   1D03           05101  btfss STATUS,Z 
0003   2???           05102  goto nonzf 
                      05103  POP
0004   0013               M  moviw INDF0-- ; preserve the safety of this code under interruptible conditions. 
0005   397F           05104  andlw .127
0006   3A00           05105  xorlw .0 
0007   1D03           05106  btfss STATUS,Z 
0008   2???           05107  goto nonzg
0009   3001           05108  movlw .1 
000A   2???           05109  goto nonzr
000B                  05110 nonzf: 
000B   0384           05111  decf HLFSR,f
000C                  05112 nonzg:  
000C   3000           05113  movlw .0 
000D                  05114 nonzr:  
                      05115  PUSH
000D   0018               M  movwi ++INDF0
000E   0008           05116  return 
                      05117 
                      05118 
                      05119  
                      05120  
                      05121 
                      05122 
                      05123 
                      05124 
                      05125 
                      05126 
                      05127 
                      05128  
                      05129  
                      05130 
                      05131 sfp_mul CODE
                      05132 
                      05133 
                      05134 
                      05135 
MPASM  5.35                        TARGET.ASM   3-10-2024  15:32:25         PAGE 112


LOC  OBJECT CODE     LINE SOURCE TEXT
  VALUE

                      05136 #define savelsb sfploc00
                      05137 
                      05138 
                      05139 #define iterator sfploc01
                      05140 
                      05141 
                      05142 #define hi_byte sfploc02
                      05143 
                      05144 
                      05145 #define make_mout sfploc03
                      05146 
                      05147 
                      05148 #define factor2 sfploc04
                      05149 
                      05150 
                      05151 #define factor1 sfploc05
                      05152 
                      05153 
                      05154 #define mulhi sfploc06
                      05155 
                      05156 
                      05157 #define mout sfploc07
                      05158 
                      05159 
                      05160 #define util sfploc08
                      05161 
                      05162 
                      05163 #define neg sfploc09
                      05164 
                      05165 
                      05166 #define ein2 sfploc10
                      05167 
                      05168 
                      05169 #define min2 sfploc11
                      05170 
                      05171 
                      05172 #define ein sfploc12
                      05173 
                      05174 
                      05175 #define min sfploc13
                      05176 
                      05177 
0000                  05178 mulf:  
                      05179 #ifdef HLLMULTITASK
                      05180 #ifdef HLLGUARDsfploc 
                      05181  movf in_isr,f  
                      05182  btfsc STATUS,Z
                      05183  
                      05184 
                      05185 
                      05186  goto mulf0
                      05187 
                      05188 
MPASM  5.35                        TARGET.ASM   3-10-2024  15:32:25         PAGE 113


LOC  OBJECT CODE     LINE SOURCE TEXT
  VALUE

                      05189  
                      05190  POP
                      05191 
                      05192  
                      05193  banksel ein2
                      05194  movwf ein2 
                      05195  xorlw .128 
                      05196  btfss STATUS,Z
                      05197  goto mulf_zokr1
                      05198  movlw .127     
                      05199  
                      05200  andwf HLINDF,w 
                      05201  
                      05202  btfsc STATUS,Z
                      05203  goto mulf_zeer1
                      05204  
                      05205 mulf_zokr1: 
                      05206 
                      05207  
                      05208  
                      05209  clrf neg 
                      05210  
                      05211  
                      05212  
                      05213  POP
                      05214 
                      05215  
                      05216  banksel min2
                      05217  movwf min2 
                      05218  btfsc min2,7
                      05219  bsf neg,1      
                      05220 
                      05221  
                      05222  bcf min2,7 
                      05223 
                      05224  POP
                      05225 
                      05226  banksel ein
                      05227  movwf ein
                      05228  xorlw .128 
                      05229  btfss STATUS,Z
                      05230  goto mulf_zokr2
                      05231  movlw .127
                      05232 
                      05233  andwf HLINDF,w 
                      05234  btfsc STATUS,Z
                      05235  goto mulf_zeer2
                      05236 mulf_zokr2:
                      05237 
                      05238  POP
                      05239 
                      05240  
                      05241  banksel min
MPASM  5.35                        TARGET.ASM   3-10-2024  15:32:25         PAGE 114


LOC  OBJECT CODE     LINE SOURCE TEXT
  VALUE

                      05242  movwf min 
                      05243  btfsc min,7
                      05244  bsf neg,0
                      05245 
                      05246  
                      05247  bcf min,7 
                      05248  
                      05249  
                      05250  
                      05251  movfw ein 
                      05252 
                      05253  
                      05254  movwf util 
                      05255 
                      05256  
                      05257  movfw ein2 
                      05258 
                      05259  
                      05260  addwf util,f 
                      05261  
                      05262  
                      05263  movfw min 
                      05264 
                      05265  
                      05266  addlw .128 
                      05267 
                      05268  
                      05269  PUSH
                      05270  banksel min2
                      05271  movfw min2 
                      05272  addlw .128 
                      05273 
                      05274  PUSH
                      05275  goto kmul16 
                      05276 
                      05277 bmul16:
                      05278 
                      05279  
                      05280  POP
                      05281 
                      05282 
                      05283  banksel mout
                      05284  movwf mout 
                      05285 
                      05286  
                      05287  btfss mout,7 
                      05288  goto no_mulf_carry 
                      05289 
                      05290  
                      05291  POP
                      05292 
                      05293  
                      05294  banksel util
MPASM  5.35                        TARGET.ASM   3-10-2024  15:32:25         PAGE 115


LOC  OBJECT CODE     LINE SOURCE TEXT
  VALUE

                      05295  incf util,f 
                      05296 
                      05297 
                      05298  
                      05299  andlw .128 
                      05300  btfss STATUS,Z
                      05301  incf mout,f
                      05302 
                      05303  goto mulf_if1_done 
                      05304 
                      05305 
                      05306 no_mulf_carry: 
                      05307 
                      05308  
                      05309  
                      05310  
                      05311  
                      05312  
                      05313 
                      05314  
                      05315  bcf STATUS,C 
                      05316 
                      05317  
                      05318  POP
                      05319 
                      05320  banksel savelsb
                      05321  movwf savelsb
                      05322  
                      05323  
                      05324  andlw .128 
                      05325  btfss STATUS,Z 
                      05326  bsf STATUS,C 
                      05327 
                      05328  
                      05329  
                      05330  banksel mout
                      05331  rlf mout,f 
                      05332 
                      05333  
                      05334  
                      05335  
                      05336  movf savelsb,w
                      05337 
                      05338  banksel mout
                      05339  andlw .64
                      05340  btfss STATUS,Z
                      05341  incf mout,f
                      05342  
                      05343 
                      05344 
                      05345 mulf_if1_done: 
                      05346 
                      05347  
MPASM  5.35                        TARGET.ASM   3-10-2024  15:32:25         PAGE 116


LOC  OBJECT CODE     LINE SOURCE TEXT
  VALUE

                      05348  movfw mout 
                      05349 
                      05350  
                      05351  addlw -.128 
                      05352 
                      05353  
                      05354  movwf mout 
                      05355 
                      05356  
                      05357  btfsc neg,0
                      05358  goto ita22nq 
                      05359  btfss neg,1
                      05360  goto mul_sames 
                      05361  goto mul_dif5 
                      05362 ita22nq: 
                      05363  btfsc neg,1
                      05364  goto mul_sames 
                      05365 
                      05366 mul_dif5: 
                      05367 
                      05368  
                      05369  movfw mout 
                      05370 
                      05371  
                      05372  iorlw .128 
                      05373 
                      05374  
                      05375  movwf mout 
                      05376 
                      05377 
                      05378 mul_sames: 
                      05379 
                      05380  
                      05381  movfw mout 
                      05382 
                      05383  
                      05384  PUSH
                      05385 
                      05386  
                      05387  banksel util
                      05388  movfw util 
                      05389  PUSH
                      05390  
                      05391  goto reto9k 
                      05392 
                      05393 mulf_zeer1: 
                      05394 
                      05395  POP
                      05396  POP
                      05397 
                      05398 
                      05399 mulf_zeer2:
                      05400  POP
MPASM  5.35                        TARGET.ASM   3-10-2024  15:32:25         PAGE 117


LOC  OBJECT CODE     LINE SOURCE TEXT
  VALUE

                      05401 
                      05402  
                      05403  movlw .128
                      05404  PUSH
                      05405  PUSH
                      05406 
                      05407  
                      05408  
                      05409 reto9k:
                      05410  
                      05411  return
                      05412  
                      05413  
                      05414  
                      05415  
                      05416 kmul16: 
                      05417 
                      05418  POP
                      05419  banksel factor1
                      05420  movwf factor1
                      05421 
                      05422  POP
                      05423  banksel factor2
                      05424  movwf factor2
                      05425 
                      05426 
                      05427  
                      05428  clrf hi_byte
                      05429  
                      05430  clrf make_mout
                      05431  
                      05432  clrf iterator
                      05433 
                      05434 bptz2:
                      05435 
                      05436  
                      05437  btfss factor1,0
                      05438  goto nyyu11
                      05439 
                      05440  
                      05441  
                      05442  movfw factor2
                      05443  addwf make_mout,f
                      05444 
                      05445  
                      05446  btfsc STATUS,C
                      05447  incf hi_byte,f
                      05448 
                      05449 
                      05450 nyyu11:
                      05451  
                      05452  
                      05453  RSHIFT factor1
MPASM  5.35                        TARGET.ASM   3-10-2024  15:32:25         PAGE 118


LOC  OBJECT CODE     LINE SOURCE TEXT
  VALUE

                      05454  
                      05455  
                      05456  
                      05457  RSHIFT hi_byte
                      05458  
                      05459  
                      05460  
                      05461  
                      05462  
                      05463  
                      05464  rrf make_mout,f
                      05465 
                      05466 
                      05467  
                      05468  
                      05469  
                      05470  
                      05471  
                      05472  
                      05473  
                      05474  
                      05475  
                      05476  
                      05477  
                      05478  
                      05479  btfsc STATUS,C
                      05480  bsf factor1,7 
                      05481 
                      05482 
                      05483  incf iterator,f
                      05484 
                      05485 
                      05486  movlw .8
                      05487  xorwf iterator,w
                      05488  btfss STATUS,Z
                      05489  goto bptz2
                      05490 
                      05491  
                      05492  movfw factor1 
                      05493  PUSH
                      05494 
                      05495  
                      05496  banksel make_mout
                      05497  movfw make_mout
                      05498  PUSH
                      05499 
                      05500  goto bmul16 
                      05501 
                      05502 
                      05503 
                      05504 
                      05505 
                      05506 #undefine savelsb
MPASM  5.35                        TARGET.ASM   3-10-2024  15:32:25         PAGE 119


LOC  OBJECT CODE     LINE SOURCE TEXT
  VALUE

                      05507 
                      05508 
                      05509 #undefine iterator
                      05510 
                      05511 
                      05512 #undefine hi_byte
                      05513 
                      05514 
                      05515 #undefine make_mout
                      05516 
                      05517 
                      05518 #undefine factor2
                      05519 
                      05520 
                      05521 #undefine factor1
                      05522 
                      05523 
                      05524 #undefine mulhi
                      05525 
                      05526 
                      05527 #undefine mout
                      05528 
                      05529 
                      05530 #undefine util
                      05531 
                      05532 
                      05533 #undefine neg
                      05534 
                      05535 
                      05536 #undefine ein2
                      05537 
                      05538 
                      05539 #undefine min2
                      05540 
                      05541 
                      05542 #undefine ein
                      05543 
                      05544 
                      05545 #undefine min
                      05546 
                      05547 
                      05548 #define savelsb sfploc00+1
                      05549 
                      05550 
                      05551 #define iterator sfploc01+1
                      05552 
                      05553 
                      05554 #define hi_byte sfploc02+1
                      05555 
                      05556 
                      05557 #define make_mout sfploc03+1
                      05558 
                      05559 
MPASM  5.35                        TARGET.ASM   3-10-2024  15:32:25         PAGE 120


LOC  OBJECT CODE     LINE SOURCE TEXT
  VALUE

                      05560 #define factor2 sfploc04+1
                      05561 
                      05562 
                      05563 #define factor1 sfploc05+1
                      05564 
                      05565 
                      05566 #define mulhi sfploc06+1
                      05567 
                      05568 
                      05569 #define mout sfploc07+1
                      05570 
                      05571 
                      05572 #define util sfploc08+1
                      05573 
                      05574 
                      05575 #define neg sfploc09+1
                      05576 
                      05577 
                      05578 #define ein2 sfploc10+1
                      05579 
                      05580 
                      05581 #define min2 sfploc11+1
                      05582 
                      05583 
                      05584 #define ein sfploc12+1
                      05585 
                      05586 
                      05587 #define min sfploc13+1
                      05588 
                      05589 
                      05590 mulf0:
                      05591 #endif
                      05592 #endif
                      05593 
                      05594 
                      05595  
                      05596  POP
0000   0013               M  moviw INDF0-- ; preserve the safety of this code under interruptible conditions. 
                      05597 
                      05598  
0001   002?           05599  banksel ein2
0002   00??           05600  movwf ein2 
0003   3A80           05601  xorlw .128 
0004   1D03           05602  btfss STATUS,Z
0005   2???           05603  goto hllEDAAA
0006   307F           05604  movlw .127     
                      05605  
0007   0500           05606  andwf HLINDF,w 
                      05607  
0008   1903           05608  btfsc STATUS,Z
0009   2???           05609  goto hllMDAAA
                      05610  
000A                  05611 hllEDAAA: 
MPASM  5.35                        TARGET.ASM   3-10-2024  15:32:25         PAGE 121


LOC  OBJECT CODE     LINE SOURCE TEXT
  VALUE

                      05612 
                      05613  
                      05614  
000A   01??           05615  clrf neg 
                      05616  
                      05617  
                      05618  
                      05619  POP
000B   0013               M  moviw INDF0-- ; preserve the safety of this code under interruptible conditions. 
                      05620 
                      05621  
000C   002?           05622  banksel min2
000D   00??           05623  movwf min2 
000E   1B80           05624  btfsc min2,7
000F   1480           05625  bsf neg,1      
                      05626 
                      05627  
0010   1380           05628  bcf min2,7 
                      05629 
                      05630  POP
0011   0013               M  moviw INDF0-- ; preserve the safety of this code under interruptible conditions. 
                      05631 
0012   002?           05632  banksel ein
0013   00??           05633  movwf ein
0014   3A80           05634  xorlw .128 
0015   1D03           05635  btfss STATUS,Z
0016   2???           05636  goto hllFDAAA
0017   307F           05637  movlw .127
                      05638 
0018   0500           05639  andwf HLINDF,w 
0019   1903           05640  btfsc STATUS,Z
001A   2???           05641  goto hllNDAAA
001B                  05642 hllFDAAA:
                      05643 
                      05644  POP
001B   0013               M  moviw INDF0-- ; preserve the safety of this code under interruptible conditions. 
                      05645 
                      05646  
001C   002?           05647  banksel min
001D   00??           05648  movwf min 
001E   1B80           05649  btfsc min,7
001F   1400           05650  bsf neg,0
                      05651 
                      05652  
0020   1380           05653  bcf min,7 
                      05654  
                      05655  
                      05656  
0021   08??           05657  movfw ein 
                      05658 
                      05659  
0022   00??           05660  movwf util 
                      05661 
MPASM  5.35                        TARGET.ASM   3-10-2024  15:32:25         PAGE 122


LOC  OBJECT CODE     LINE SOURCE TEXT
  VALUE

                      05662  
0023   08??           05663  movfw ein2 
                      05664 
                      05665  
0024   07??           05666  addwf util,f 
                      05667  
                      05668  
0025   08??           05669  movfw min 
                      05670 
                      05671  
0026   3E80           05672  addlw .128 
                      05673 
                      05674  
                      05675  PUSH
0027   0018               M  movwi ++INDF0
0028   002?           05676  banksel min2
0029   08??           05677  movfw min2 
002A   3E80           05678  addlw .128 
                      05679 
                      05680  PUSH
002B   0018               M  movwi ++INDF0
002C   2???           05681  goto hllPDAAA 
                      05682 
002D                  05683 hllGDAAA:
                      05684 
                      05685  
                      05686  POP
002D   0013               M  moviw INDF0-- ; preserve the safety of this code under interruptible conditions. 
                      05687 
                      05688 
002E   002?           05689  banksel mout
002F   00??           05690  movwf mout 
                      05691 
                      05692  
0030   1F80           05693  btfss mout,7 
0031   2???           05694  goto hllHDAAA 
                      05695 
                      05696  
                      05697  POP
0032   0013               M  moviw INDF0-- ; preserve the safety of this code under interruptible conditions. 
                      05698 
                      05699  
0033   002?           05700  banksel util
0034   0A??           05701  incf util,f 
                      05702 
                      05703 
                      05704  
0035   3980           05705  andlw .128 
0036   1D03           05706  btfss STATUS,Z
0037   0A??           05707  incf mout,f
                      05708 
0038   2???           05709  goto hllIDAAA 
                      05710 
MPASM  5.35                        TARGET.ASM   3-10-2024  15:32:25         PAGE 123


LOC  OBJECT CODE     LINE SOURCE TEXT
  VALUE

                      05711 
0039                  05712 hllHDAAA: 
                      05713 
                      05714  
                      05715  
                      05716  
                      05717  
                      05718  
                      05719 
                      05720  
0039   1003           05721  bcf STATUS,C 
                      05722 
                      05723  
                      05724  POP
003A   0013               M  moviw INDF0-- ; preserve the safety of this code under interruptible conditions. 
                      05725 
003B   002?           05726  banksel savelsb
003C   00??           05727  movwf savelsb
                      05728  
                      05729  
003D   3980           05730  andlw .128 
003E   1D03           05731  btfss STATUS,Z 
003F   1403           05732  bsf STATUS,C 
                      05733 
                      05734  
                      05735  
0040   002?           05736  banksel mout
0041   0D??           05737  rlf mout,f 
                      05738 
                      05739  
                      05740  
                      05741  
0042   08??           05742  movf savelsb,w
                      05743 
0043   002?           05744  banksel mout
0044   3940           05745  andlw .64
0045   1D03           05746  btfss STATUS,Z
0046   0A??           05747  incf mout,f
                      05748  
                      05749 
                      05750 
0047                  05751 hllIDAAA: 
                      05752 
                      05753  
0047   08??           05754  movfw mout 
                      05755 
                      05756  
0048   3E80           05757  addlw -.128 
                      05758 
                      05759  
0049   00??           05760  movwf mout 
                      05761 
                      05762  
MPASM  5.35                        TARGET.ASM   3-10-2024  15:32:25         PAGE 124


LOC  OBJECT CODE     LINE SOURCE TEXT
  VALUE

004A   1800           05763  btfsc neg,0
004B   2???           05764  goto hllJDAAA 
004C   1C80           05765  btfss neg,1
004D   2???           05766  goto hllLDAAA 
004E   2???           05767  goto hllKDAAA 
004F                  05768 hllJDAAA: 
004F   1880           05769  btfsc neg,1
0050   2???           05770  goto hllLDAAA 
                      05771 
0051                  05772 hllKDAAA: 
                      05773 
                      05774  
0051   08??           05775  movfw mout 
                      05776 
                      05777  
0052   3880           05778  iorlw .128 
                      05779 
                      05780  
0053   00??           05781  movwf mout 
                      05782 
                      05783 
0054                  05784 hllLDAAA: 
                      05785 
                      05786  
0054   08??           05787  movfw mout 
                      05788 
                      05789  
                      05790  PUSH
0055   0018               M  movwi ++INDF0
                      05791 
                      05792  
0056   002?           05793  banksel util
0057   08??           05794  movfw util 
                      05795  PUSH
0058   0018               M  movwi ++INDF0
                      05796  
0059   2???           05797  goto hllODAAA 
                      05798 
005A                  05799 hllMDAAA: 
                      05800 
                      05801  POP
005A   0013               M  moviw INDF0-- ; preserve the safety of this code under interruptible conditions. 
                      05802  POP
005B   0013               M  moviw INDF0-- ; preserve the safety of this code under interruptible conditions. 
                      05803 
                      05804 
005C                  05805 hllNDAAA:
                      05806  POP
005C   0013               M  moviw INDF0-- ; preserve the safety of this code under interruptible conditions. 
                      05807 
                      05808  
005D   3080           05809  movlw .128
                      05810  PUSH
MPASM  5.35                        TARGET.ASM   3-10-2024  15:32:25         PAGE 125


LOC  OBJECT CODE     LINE SOURCE TEXT
  VALUE

005E   0018               M  movwi ++INDF0
                      05811  PUSH
005F   0018               M  movwi ++INDF0
                      05812 
                      05813  
                      05814  
0060                  05815 hllODAAA:
                      05816  
0060   0008           05817  return
                      05818  
                      05819  
                      05820  
                      05821  
0061                  05822 hllPDAAA: 
                      05823 
                      05824  POP
0061   0013               M  moviw INDF0-- ; preserve the safety of this code under interruptible conditions. 
0062   002?           05825  banksel factor1
0063   00??           05826  movwf factor1
                      05827 
                      05828  POP
0064   0013               M  moviw INDF0-- ; preserve the safety of this code under interruptible conditions. 
0065   002?           05829  banksel factor2
0066   00??           05830  movwf factor2
                      05831 
                      05832 
                      05833  
0067   01??           05834  clrf hi_byte
                      05835  
0068   01??           05836  clrf make_mout
                      05837  
0069   01??           05838  clrf iterator
                      05839 
006A                  05840 hllQDAAA:
                      05841 
                      05842  
006A   1C00           05843  btfss factor1,0
006B   2???           05844  goto hllRDAAA
                      05845 
                      05846  
                      05847  
006C   08??           05848  movfw factor2
006D   07??           05849  addwf make_mout,f
                      05850 
                      05851  
006E   1803           05852  btfsc STATUS,C
006F   0A??           05853  incf hi_byte,f
                      05854 
                      05855 
0070                  05856 hllRDAAA:
                      05857  
                      05858  
                      05859  RSHIFT factor1
MPASM  5.35                        TARGET.ASM   3-10-2024  15:32:25         PAGE 126


LOC  OBJECT CODE     LINE SOURCE TEXT
  VALUE

0070   36??               M  lsrf sfploc05,f
                      05860  
                      05861  
                      05862  
                      05863  RSHIFT hi_byte
0071   36??               M  lsrf sfploc02,f
                      05864  
                      05865  
                      05866  
                      05867  
                      05868  
                      05869  
0072   0C??           05870  rrf make_mout,f
                      05871 
                      05872 
                      05873  
                      05874  
                      05875  
                      05876  
                      05877  
                      05878  
                      05879  
                      05880  
                      05881  
                      05882  
                      05883  
                      05884  
0073   1803           05885  btfsc STATUS,C
0074   1780           05886  bsf factor1,7 
                      05887 
                      05888 
0075   0A??           05889  incf iterator,f
                      05890 
                      05891 
0076   3008           05892  movlw .8
0077   06??           05893  xorwf iterator,w
0078   1D03           05894  btfss STATUS,Z
0079   2???           05895  goto hllQDAAA
                      05896 
                      05897  
007A   08??           05898  movfw factor1 
                      05899  PUSH
007B   0018               M  movwi ++INDF0
                      05900 
                      05901  
007C   002?           05902  banksel make_mout
007D   08??           05903  movfw make_mout
                      05904  PUSH
007E   0018               M  movwi ++INDF0
                      05905 
007F   2???           05906  goto hllGDAAA 
                      05907 
                      05908 
MPASM  5.35                        TARGET.ASM   3-10-2024  15:32:25         PAGE 127


LOC  OBJECT CODE     LINE SOURCE TEXT
  VALUE

                      05909 
                      05910 
                      05911 
                      05912 #undefine savelsb
                      05913 
                      05914 
                      05915 #undefine iterator
                      05916 
                      05917 
                      05918 #undefine hi_byte
                      05919 
                      05920 
                      05921 #undefine make_mout
                      05922 
                      05923 
                      05924 #undefine factor2
                      05925 
                      05926 
                      05927 #undefine factor1
                      05928 
                      05929 
                      05930 #undefine mulhi
                      05931 
                      05932 
                      05933 #undefine mout
                      05934 
                      05935 
                      05936 #undefine util
                      05937 
                      05938 
                      05939 #undefine neg
                      05940 
                      05941 
                      05942 #undefine ein2
                      05943 
                      05944 
                      05945 #undefine min2
                      05946 
                      05947 
                      05948 #undefine ein
                      05949 
                      05950 
                      05951 #undefine min
                      05952 
                      05953 
                      05954 
                      05955 
                      05956 
                      05957  
                      05958 
                      05959 
                      05960 
                      05961 sfp_uto CODE 
MPASM  5.35                        TARGET.ASM   3-10-2024  15:32:25         PAGE 128


LOC  OBJECT CODE     LINE SOURCE TEXT
  VALUE

                      05962 
                      05963 
                      05964 
                      05965 #define arg1 sfploc00
                      05966 
                      05967 
0000                  05968 utof:  
                      05969 #ifdef HLLMULTITASK
                      05970 #ifdef HLLGUARDsfploc 
                      05971  movf in_isr,f  
                      05972  btfsc STATUS,Z
                      05973  
                      05974 
                      05975 
                      05976  goto utof0
                      05977 
                      05978  
                      05979  POP
                      05980  banksel arg1 
                      05981  movwf arg1
                      05982 
                      05983  btfss arg1,7
                      05984  goto mbww0 
                      05985  
                      05986  
                      05987  
                      05988 
                      05989  bcf arg1,7 
                      05990  movfw arg1 
                      05991  
                      05992  PUSH
                      05993 
                      05994 
                      05995  movlw .7
                      05996  PUSH
                      05997  
                      05998  goto ret101
                      05999 
                      06000 mbww0: 
                      06001  btfss arg1,6
                      06002  goto mbww1 
                      06003 
                      06004 
                      06005  
                      06006  
                      06007 
                      06008  
                      06009  
                      06010  
                      06011 
                      06012  banksel arg1
                      06013  bcf arg1,6 
                      06014  bcf STATUS,C 
MPASM  5.35                        TARGET.ASM   3-10-2024  15:32:25         PAGE 129


LOC  OBJECT CODE     LINE SOURCE TEXT
  VALUE

                      06015  rlf arg1,f
                      06016  movfw arg1
                      06017  PUSH
                      06018 
                      06019  movlw .6
                      06020  PUSH
                      06021  
                      06022  goto ret101
                      06023 mbww1: 
                      06024 
                      06025  btfss arg1,5
                      06026  goto mbww2
                      06027 
                      06028  banksel arg1
                      06029  bcf arg1,5 
                      06030  bcf STATUS,C 
                      06031  rlf arg1,f
                      06032  rlf arg1,f
                      06033  movfw arg1
                      06034  PUSH
                      06035 
                      06036  movlw .5
                      06037  PUSH
                      06038  
                      06039  goto ret101
                      06040 mbww2: 
                      06041 
                      06042  btfss arg1,4
                      06043  goto mbww3
                      06044 
                      06045 
                      06046  banksel arg1
                      06047  bcf arg1,4 
                      06048  bcf STATUS,C 
                      06049  rlf arg1,f
                      06050  rlf arg1,f
                      06051  rlf arg1,f
                      06052  movfw arg1
                      06053  PUSH
                      06054 
                      06055  movlw .4
                      06056  PUSH
                      06057  
                      06058  goto ret101
                      06059 mbww3: 
                      06060 
                      06061  btfss arg1,3
                      06062  goto mbww4
                      06063 
                      06064  banksel arg1
                      06065  bcf arg1,3 
                      06066  bcf STATUS,C 
                      06067  rlf arg1,f
MPASM  5.35                        TARGET.ASM   3-10-2024  15:32:25         PAGE 130


LOC  OBJECT CODE     LINE SOURCE TEXT
  VALUE

                      06068  rlf arg1,f
                      06069  rlf arg1,f
                      06070  rlf arg1,f
                      06071  movfw arg1
                      06072  PUSH
                      06073 
                      06074  movlw .3
                      06075  PUSH
                      06076  
                      06077  goto ret101
                      06078 
                      06079 mbww4: 
                      06080 
                      06081  btfss arg1,2
                      06082  goto mbww5
                      06083 
                      06084 
                      06085  banksel arg1
                      06086  bcf arg1,2 
                      06087  bcf STATUS,C 
                      06088  rlf arg1,f
                      06089  rlf arg1,f
                      06090  rlf arg1,f
                      06091  rlf arg1,f
                      06092  rlf arg1,f
                      06093  movfw arg1
                      06094  PUSH
                      06095 
                      06096 
                      06097  movlw .2
                      06098  PUSH
                      06099  
                      06100  goto ret101
                      06101 
                      06102 mbww5: 
                      06103 
                      06104  btfss arg1,1
                      06105  goto mbww6
                      06106 
                      06107  banksel arg1
                      06108  bcf arg1,1 
                      06109  bcf STATUS,C 
                      06110  rlf arg1,f
                      06111  rlf arg1,f
                      06112  rlf arg1,f
                      06113  rlf arg1,f
                      06114  rlf arg1,f
                      06115  rlf arg1,f
                      06116  movfw arg1
                      06117  PUSH
                      06118 
                      06119  movlw .1
                      06120  PUSH
MPASM  5.35                        TARGET.ASM   3-10-2024  15:32:25         PAGE 131


LOC  OBJECT CODE     LINE SOURCE TEXT
  VALUE

                      06121 
                      06122  goto ret101
                      06123 mbww6: 
                      06124  btfss arg1,0
                      06125  goto tis00
                      06126  movlw .0
                      06127  PUSH
                      06128 
                      06129  movlw .0
                      06130  PUSH
                      06131  
                      06132  goto ret101
                      06133 tis00:
                      06134  movlw .0
                      06135  PUSH
                      06136 
                      06137  movlw -.128
                      06138  PUSH
                      06139  
                      06140 ret101:
                      06141  
                      06142  return
                      06143 
                      06144 
                      06145 
                      06146 
                      06147 #undefine arg1
                      06148 
                      06149 
                      06150 #define arg1 sfploc00+1
                      06151 
                      06152 
                      06153 utof0:
                      06154 #endif
                      06155 #endif
                      06156 
                      06157  
                      06158  POP
0000   0013               M  moviw INDF0-- ; preserve the safety of this code under interruptible conditions. 
0001   002?           06159  banksel arg1 
0002   00??           06160  movwf arg1
                      06161 
0003   1F80           06162  btfss arg1,7
0004   2???           06163  goto hllUDAAA 
                      06164  
                      06165  
                      06166  
                      06167 
0005   1380           06168  bcf arg1,7 
0006   08??           06169  movfw arg1 
                      06170  
                      06171  PUSH
0007   0018               M  movwi ++INDF0
MPASM  5.35                        TARGET.ASM   3-10-2024  15:32:25         PAGE 132


LOC  OBJECT CODE     LINE SOURCE TEXT
  VALUE

                      06172 
                      06173 
0008   3007           06174  movlw .7
                      06175  PUSH
0009   0018               M  movwi ++INDF0
                      06176  
000A   2???           06177  goto hllCEAAA
                      06178 
000B                  06179 hllUDAAA: 
000B   1F00           06180  btfss arg1,6
000C   2???           06181  goto hllVDAAA 
                      06182 
                      06183 
                      06184  
                      06185  
                      06186 
                      06187  
                      06188  
                      06189  
                      06190 
000D   002?           06191  banksel arg1
000E   1300           06192  bcf arg1,6 
000F   1003           06193  bcf STATUS,C 
0010   0D??           06194  rlf arg1,f
0011   08??           06195  movfw arg1
                      06196  PUSH
0012   0018               M  movwi ++INDF0
                      06197 
0013   3006           06198  movlw .6
                      06199  PUSH
0014   0018               M  movwi ++INDF0
                      06200  
0015   2???           06201  goto hllCEAAA
0016                  06202 hllVDAAA: 
                      06203 
0016   1E80           06204  btfss arg1,5
0017   2???           06205  goto hllWDAAA
                      06206 
0018   002?           06207  banksel arg1
0019   1280           06208  bcf arg1,5 
001A   1003           06209  bcf STATUS,C 
001B   0D??           06210  rlf arg1,f
001C   0D??           06211  rlf arg1,f
001D   08??           06212  movfw arg1
                      06213  PUSH
001E   0018               M  movwi ++INDF0
                      06214 
001F   3005           06215  movlw .5
                      06216  PUSH
0020   0018               M  movwi ++INDF0
                      06217  
0021   2???           06218  goto hllCEAAA
0022                  06219 hllWDAAA: 
MPASM  5.35                        TARGET.ASM   3-10-2024  15:32:25         PAGE 133


LOC  OBJECT CODE     LINE SOURCE TEXT
  VALUE

                      06220 
0022   1E00           06221  btfss arg1,4
0023   2???           06222  goto hllXDAAA
                      06223 
                      06224 
0024   002?           06225  banksel arg1
0025   1200           06226  bcf arg1,4 
0026   1003           06227  bcf STATUS,C 
0027   0D??           06228  rlf arg1,f
0028   0D??           06229  rlf arg1,f
0029   0D??           06230  rlf arg1,f
002A   08??           06231  movfw arg1
                      06232  PUSH
002B   0018               M  movwi ++INDF0
                      06233 
002C   3004           06234  movlw .4
                      06235  PUSH
002D   0018               M  movwi ++INDF0
                      06236  
002E   2???           06237  goto hllCEAAA
002F                  06238 hllXDAAA: 
                      06239 
002F   1D80           06240  btfss arg1,3
0030   2???           06241  goto hllYDAAA
                      06242 
0031   002?           06243  banksel arg1
0032   1180           06244  bcf arg1,3 
0033   1003           06245  bcf STATUS,C 
0034   0D??           06246  rlf arg1,f
0035   0D??           06247  rlf arg1,f
0036   0D??           06248  rlf arg1,f
0037   0D??           06249  rlf arg1,f
0038   08??           06250  movfw arg1
                      06251  PUSH
0039   0018               M  movwi ++INDF0
                      06252 
003A   3003           06253  movlw .3
                      06254  PUSH
003B   0018               M  movwi ++INDF0
                      06255  
003C   2???           06256  goto hllCEAAA
                      06257 
003D                  06258 hllYDAAA: 
                      06259 
003D   1D00           06260  btfss arg1,2
003E   2???           06261  goto hllZDAAA
                      06262 
                      06263 
003F   002?           06264  banksel arg1
0040   1100           06265  bcf arg1,2 
0041   1003           06266  bcf STATUS,C 
0042   0D??           06267  rlf arg1,f
0043   0D??           06268  rlf arg1,f
MPASM  5.35                        TARGET.ASM   3-10-2024  15:32:25         PAGE 134


LOC  OBJECT CODE     LINE SOURCE TEXT
  VALUE

0044   0D??           06269  rlf arg1,f
0045   0D??           06270  rlf arg1,f
0046   0D??           06271  rlf arg1,f
0047   08??           06272  movfw arg1
                      06273  PUSH
0048   0018               M  movwi ++INDF0
                      06274 
                      06275 
0049   3002           06276  movlw .2
                      06277  PUSH
004A   0018               M  movwi ++INDF0
                      06278  
004B   2???           06279  goto hllCEAAA
                      06280 
004C                  06281 hllZDAAA: 
                      06282 
004C   1C80           06283  btfss arg1,1
004D   2???           06284  goto hllAEAAA
                      06285 
004E   002?           06286  banksel arg1
004F   1080           06287  bcf arg1,1 
0050   1003           06288  bcf STATUS,C 
0051   0D??           06289  rlf arg1,f
0052   0D??           06290  rlf arg1,f
0053   0D??           06291  rlf arg1,f
0054   0D??           06292  rlf arg1,f
0055   0D??           06293  rlf arg1,f
0056   0D??           06294  rlf arg1,f
0057   08??           06295  movfw arg1
                      06296  PUSH
0058   0018               M  movwi ++INDF0
                      06297 
0059   3001           06298  movlw .1
                      06299  PUSH
005A   0018               M  movwi ++INDF0
                      06300 
005B   2???           06301  goto hllCEAAA
005C                  06302 hllAEAAA: 
005C   1C00           06303  btfss arg1,0
005D   2???           06304  goto hllBEAAA
005E   3000           06305  movlw .0
                      06306  PUSH
005F   0018               M  movwi ++INDF0
                      06307 
0060   3000           06308  movlw .0
                      06309  PUSH
0061   0018               M  movwi ++INDF0
                      06310  
0062   2???           06311  goto hllCEAAA
0063                  06312 hllBEAAA:
0063   3000           06313  movlw .0
                      06314  PUSH
0064   0018               M  movwi ++INDF0
MPASM  5.35                        TARGET.ASM   3-10-2024  15:32:25         PAGE 135


LOC  OBJECT CODE     LINE SOURCE TEXT
  VALUE

                      06315 
0065   3080           06316  movlw -.128
                      06317  PUSH
0066   0018               M  movwi ++INDF0
                      06318  
0067                  06319 hllCEAAA:
                      06320  
0067   0008           06321  return
                      06322 
                      06323 
                      06324 
                      06325 
                      06326 #undefine arg1
                      06327 
C9A4 DFFF             06328  end
MPASM  5.35                        TARGET.ASM   3-10-2024  15:32:25         PAGE 136


SYMBOL TABLE
  LABEL                             VALUE 

ABDEN                             00000000
ABDOVF                            00000007
ACKDT                             00000005
ACKEN                             00000004
ACKSTAT                           00000006
ACKTIM                            00000007
ADCON0                            0000009D
ADCON1                            0000009E
ADCS0                             00000004
ADCS1                             00000005
ADCS2                             00000006
ADDEN                             00000003
ADFM                              00000007
ADFVR0                            00000000
ADFVR1                            00000001
ADGO                              00000001
ADIE                              00000006
ADIF                              00000006
ADNREF                            00000002
ADON                              00000000
ADPREF0                           00000000
ADPREF1                           00000001
ADRES                             0000009B
ADRESH                            0000009C
ADRESL                            0000009B
AHEN                              00000001
ALT_Save                          0000000A
ANSA0                             00000000
ANSA1                             00000001
ANSA2                             00000002
ANSA3                             00000003
ANSA4                             00000004
ANSB1                             00000001
ANSB2                             00000002
ANSB3                             00000003
ANSB4                             00000004
ANSB5                             00000005
ANSB6                             00000006
ANSB7                             00000007
ANSELA                            0000018C
ANSELB                            0000018D
APFCON0                           0000011D
APFCON1                           0000011E
BAUDCON                           0000019F
BCL1IE                            00000003
BCL1IF                            00000003
BCL2IE                            00000001
BCL2IF                            00000001
BF                                00000000
BOEN                              00000004
BORCON                            00000116
BORRDY                            00000000
BRG16                             00000003
MPASM  5.35                        TARGET.ASM   3-10-2024  15:32:25         PAGE 137


SYMBOL TABLE
  LABEL                             VALUE 

BRGH                              00000002
BSR                               00000008
BSR0                              00000000
BSR1                              00000001
BSR2                              00000002
BSR3                              00000003
BSR4                              00000004
BSR_SHAD                          00000FE6
C                                 00000000
C1HYS                             00000001
C1IE                              00000005
C1IF                              00000005
C1INTN                            00000006
C1INTP                            00000007
C1NCH0                            00000000
C1NCH1                            00000001
C1OE                              00000005
C1ON                              00000007
C1OUT                             00000006
C1PCH0                            00000004
C1PCH1                            00000005
C1POL                             00000004
C1SP                              00000002
C1SYNC                            00000000
C1TSEL0                           00000000
C1TSEL1                           00000001
C2HYS                             00000001
C2IE                              00000006
C2IF                              00000006
C2INTN                            00000006
C2INTP                            00000007
C2NCH0                            00000000
C2NCH1                            00000001
C2OE                              00000005
C2ON                              00000007
C2OUT                             00000006
C2PCH0                            00000004
C2PCH1                            00000005
C2POL                             00000004
C2SP                              00000002
C2SYNC                            00000000
C2TSEL0                           00000002
C2TSEL1                           00000003
C3TSEL0                           00000004
C3TSEL1                           00000005
C4TSEL0                           00000006
C4TSEL1                           00000007
CCP1AS                            00000295
CCP1AS0                           00000004
CCP1AS1                           00000005
CCP1AS2                           00000006
CCP1ASE                           00000007
CCP1CON                           00000293
MPASM  5.35                        TARGET.ASM   3-10-2024  15:32:25         PAGE 138


SYMBOL TABLE
  LABEL                             VALUE 

CCP1IE                            00000002
CCP1IF                            00000002
CCP1M0                            00000000
CCP1M1                            00000001
CCP1M2                            00000002
CCP1M3                            00000003
CCP1SEL                           00000000
CCP2AS                            0000029C
CCP2AS0                           00000004
CCP2AS1                           00000005
CCP2AS2                           00000006
CCP2ASE                           00000007
CCP2CON                           0000029A
CCP2IE                            00000000
CCP2IF                            00000000
CCP2M0                            00000000
CCP2M1                            00000001
CCP2M2                            00000002
CCP2M3                            00000003
CCP2SEL                           00000003
CCP3CON                           00000313
CCP3IE                            00000004
CCP3IF                            00000004
CCP3M0                            00000000
CCP3M1                            00000001
CCP3M2                            00000002
CCP3M3                            00000003
CCP4CON                           0000031A
CCP4IE                            00000005
CCP4IF                            00000005
CCP4M0                            00000000
CCP4M1                            00000001
CCP4M2                            00000002
CCP4M3                            00000003
CCPR1H                            00000292
CCPR1L                            00000291
CCPR2H                            00000299
CCPR2L                            00000298
CCPR3H                            00000312
CCPR3L                            00000311
CCPR4H                            00000319
CCPR4L                            00000318
CCPTMRS                           0000029E
CCPTMRS0                          0000029E
CDAFVR0                           00000002
CDAFVR1                           00000003
CFGS                              00000006
CHS0                              00000002
CHS1                              00000003
CHS2                              00000004
CHS3                              00000005
CHS4                              00000006
CKE                               00000006
MPASM  5.35                        TARGET.ASM   3-10-2024  15:32:25         PAGE 139


SYMBOL TABLE
  LABEL                             VALUE 

CKP                               00000004
CLKRCON                           0000039A
CLKRDC0                           00000003
CLKRDC1                           00000004
CLKRDIV0                          00000000
CLKRDIV1                          00000001
CLKRDIV2                          00000002
CLKREN                            00000007
CLKROE                            00000006
CLKRSLR                           00000005
CM1CON0                           00000111
CM1CON1                           00000112
CM2CON0                           00000113
CM2CON1                           00000114
CMOUT                             00000115
COPY                              
CPSCH0                            00000000
CPSCH1                            00000001
CPSCH2                            00000002
CPSCH3                            00000003
CPSCON0                           0000001E
CPSCON1                           0000001F
CPSON                             00000007
CPSOUT                            00000001
CPSRNG0                           00000002
CPSRNG1                           00000003
CREN                              00000004
CSRC                              00000007
C_SHAD                            00000000
DACCON0                           00000118
DACCON1                           00000119
DACEN                             00000007
DACLPS                            00000006
DACNSS                            00000000
DACOE                             00000005
DACPSS0                           00000002
DACPSS1                           00000003
DACR0                             00000000
DACR1                             00000001
DACR2                             00000002
DACR3                             00000003
DACR4                             00000004
DC                                00000001
DC1B0                             00000004
DC1B1                             00000005
DC2B0                             00000004
DC2B1                             00000005
DC3B0                             00000004
DC3B1                             00000005
DC4B0                             00000004
DC4B1                             00000005
DC_SHAD                           00000001
DHEN                              00000000
MPASM  5.35                        TARGET.ASM   3-10-2024  15:32:25         PAGE 140


SYMBOL TABLE
  LABEL                             VALUE 

DISCARD                           
D_NOT_A                           00000005
ECCP1AS                           00000295
ECCP2AS                           0000029C
EEADR                             00000191
EEADRH                            00000192
EEADRL                            00000191
EECON1                            00000195
EECON2                            00000196
EEDAT                             00000193
EEDATH                            00000194
EEDATL                            00000193
EEIE                              00000004
EEIF                              00000004
EEPGD                             00000007
ExitISR                           00000023
F                                 00000001
FAR_CALL                          
FERR                              00000002
FREE                              00000004
FSR0                              00000004
FSR0H                             00000005
FSR0H_SHAD                        00000FE9
FSR0L                             00000004
FSR0L_SHAD                        00000FE8
FSR1                              00000006
FSR1H                             00000007
FSR1H_SHAD                        00000FEB
FSR1L                             00000006
FSR1L_SHAD                        00000FEA
FSR_Save                          00000009
FVRCON                            00000117
FVREN                             00000007
FVRRDY                            00000006
GCEN                              00000007
GIE                               00000007
GO_NOT_DONE                       00000001
HALF_FAR_CALL                     
HFIOFL                            00000003
HFIOFR                            00000004
HFIOFS                            00000000
HLFSR                             FSR0L
HLINDF                            INDF0
HLLGUARDhllblss                   
HLLMULTITASK                      
HLOE_STACK2_SIZE                  .80
HLOE_STACK_SIZE                   .80
HLTABLE                           
INDF0                             00000000
INDF1                             00000001
INTCON                            0000000B
INTE                              00000004
INTEDG                            00000006
MPASM  5.35                        TARGET.ASM   3-10-2024  15:32:25         PAGE 141


SYMBOL TABLE
  LABEL                             VALUE 

INTF                              00000001
IOCBF                             00000396
IOCBF0                            00000000
IOCBF1                            00000001
IOCBF2                            00000002
IOCBF3                            00000003
IOCBF4                            00000004
IOCBF5                            00000005
IOCBF6                            00000006
IOCBF7                            00000007
IOCBN                             00000395
IOCBN0                            00000000
IOCBN1                            00000001
IOCBN2                            00000002
IOCBN3                            00000003
IOCBN4                            00000004
IOCBN5                            00000005
IOCBN6                            00000006
IOCBN7                            00000007
IOCBP                             00000394
IOCBP0                            00000000
IOCBP1                            00000001
IOCBP2                            00000002
IOCBP3                            00000003
IOCBP4                            00000004
IOCBP5                            00000005
IOCBP6                            00000006
IOCBP7                            00000007
IOCIE                             00000003
IOCIF                             00000000
IRCF0                             00000003
IRCF1                             00000004
IRCF2                             00000005
IRCF3                             00000006
ISR                               00000004
KDISCARD                          
KPOP                              
KPUSH                             
LATA                              0000010C
LATA0                             00000000
LATA1                             00000001
LATA2                             00000002
LATA3                             00000003
LATA4                             00000004
LATA6                             00000006
LATA7                             00000007
LATB                              0000010D
LATB0                             00000000
LATB1                             00000001
LATB2                             00000002
LATB3                             00000003
LATB4                             00000004
LATB5                             00000005
MPASM  5.35                        TARGET.ASM   3-10-2024  15:32:25         PAGE 142


SYMBOL TABLE
  LABEL                             VALUE 

LATB6                             00000006
LATB7                             00000007
LFIOFR                            00000001
LSHIFT                            
LWLO                              00000005
MC1OUT                            00000000
MC2OUT                            00000001
MDBIT                             00000000
MDCARH                            0000039F
MDCARL                            0000039E
MDCH0                             00000000
MDCH1                             00000001
MDCH2                             00000002
MDCH3                             00000003
MDCHODIS                          00000007
MDCHPOL                           00000006
MDCHSYNC                          00000005
MDCL0                             00000000
MDCL1                             00000001
MDCL2                             00000002
MDCL3                             00000003
MDCLODIS                          00000007
MDCLPOL                           00000006
MDCLSYNC                          00000005
MDCON                             0000039C
MDEN                              00000007
MDMS0                             00000000
MDMS1                             00000001
MDMS2                             00000002
MDMS3                             00000003
MDMSODIS                          00000007
MDOE                              00000006
MDOPOL                            00000004
MDOUT                             00000003
MDSLR                             00000005
MDSRC                             0000039D
MFIOFR                            00000002
NOT_BOR                           00000000
NOT_PD                            00000003
NOT_POR                           00000001
NOT_RI                            00000002
NOT_RMCLR                         00000003
NOT_T1SYNC                        00000002
NOT_TO                            00000004
NOT_WPUEN                         00000007
OERR                              00000001
OPTION_REG                        00000095
OSCCON                            00000099
OSCCONH                           0000009A
OSCCONL                           00000099
OSCSTAT                           0000009A
OSCTUNE                           00000098
OSFIE                             00000007
MPASM  5.35                        TARGET.ASM   3-10-2024  15:32:25         PAGE 143


SYMBOL TABLE
  LABEL                             VALUE 

OSFIF                             00000007
OSTS                              00000005
P                                 00000004
P1CSEL                            00000001
P1DC0                             00000000
P1DC1                             00000001
P1DC2                             00000002
P1DC3                             00000003
P1DC4                             00000004
P1DC5                             00000005
P1DC6                             00000006
P1DSEL                            00000002
P1M0                              00000006
P1M1                              00000007
P1RSEN                            00000007
P2BSEL                            00000004
P2DC0                             00000000
P2DC1                             00000001
P2DC2                             00000002
P2DC3                             00000003
P2DC4                             00000004
P2DC5                             00000005
P2DC6                             00000006
P2M0                              00000006
P2M1                              00000007
P2RSEN                            00000007
PCIE                              00000006
PCL                               00000002
PCLATH                            0000000A
PCLATH_SHAD                       00000FE7
PCON                              00000096
PEIE                              00000006
PEN                               00000002
PIE1                              00000091
PIE2                              00000092
PIE3                              00000093
PIE4                              00000094
PIR1                              00000011
PIR2                              00000012
PIR3                              00000013
PIR4                              00000014
PLLR                              00000006
POP                               
PORTA                             0000000C
PORTB                             0000000D
PR2                               0000001B
PR4                               00000416
PR6                               0000041D
PREEMPT                           
PS0                               00000000
PS1                               00000001
PS2                               00000002
PSA                               00000003
MPASM  5.35                        TARGET.ASM   3-10-2024  15:32:25         PAGE 144


SYMBOL TABLE
  LABEL                             VALUE 

PSS1AC0                           00000002
PSS1AC1                           00000003
PSS1BD0                           00000000
PSS1BD1                           00000001
PSS2AC0                           00000002
PSS2AC1                           00000003
PSS2BD0                           00000000
PSS2BD1                           00000001
PSTR1CON                          00000296
PSTR2CON                          0000029D
PUSH                              
PWM1CON                           00000294
PWM2CON                           0000029B
RA0                               00000000
RA1                               00000001
RA2                               00000002
RA3                               00000003
RA4                               00000004
RA5                               00000005
RA6                               00000006
RA7                               00000007
RB0                               00000000
RB1                               00000001
RB2                               00000002
RB3                               00000003
RB4                               00000004
RB5                               00000005
RB6                               00000006
RB7                               00000007
RCEN                              00000003
RCIDL                             00000006
RCIE                              00000005
RCIF                              00000005
RCREG                             00000199
RCSTA                             0000019D
RD                                00000000
READEEPROM                        
RESUME                            
RSEN                              00000001
RSHIFT                            
RX9                               00000006
RX9D                              00000000
RXDTSEL                           00000007
R_NOT_W                           00000002
S                                 00000003
SBCDE                             00000002
SBOREN                            00000007
SCIE                              00000005
SCKP                              00000004
SCS0                              00000000
SCS1                              00000001
SDAHT                             00000003
SDO1SEL                           00000006
MPASM  5.35                        TARGET.ASM   3-10-2024  15:32:25         PAGE 145


SYMBOL TABLE
  LABEL                             VALUE 

SEN                               00000000
SENDB                             00000003
SMP                               00000007
SPBRG                             0000019B
SPBRGH                            0000019C
SPBRGL                            0000019B
SPEN                              00000007
SPLLEN                            00000007
SRCLK0                            00000004
SRCLK1                            00000005
SRCLK2                            00000006
SRCON0                            0000011A
SRCON1                            0000011B
SREN                              00000005
SRLEN                             00000007
SRNQEN                            00000002
SRPR                              00000000
SRPS                              00000001
SRQEN                             00000003
SRRC1E                            00000000
SRRC2E                            00000001
SRRCKE                            00000002
SRRPE                             00000003
SRSC1E                            00000004
SRSC2E                            00000005
SRSCKE                            00000006
SRSPE                             00000007
SS1SEL                            00000005
SSP1ADD                           00000212
SSP1BUF                           00000211
SSP1CON1                          00000215
SSP1CON2                          00000216
SSP1CON3                          00000217
SSP1IE                            00000003
SSP1IF                            00000003
SSP1MSK                           00000213
SSP1STAT                          00000214
SSP2ADD                           0000021A
SSP2BUF                           00000219
SSP2CON1                          0000021D
SSP2CON2                          0000021E
SSP2CON3                          0000021F
SSP2IE                            00000000
SSP2IF                            00000000
SSP2MSK                           0000021B
SSP2STAT                          0000021C
SSPADD                            00000212
SSPBUF                            00000211
SSPCON                            00000215
SSPCON1                           00000215
SSPCON2                           00000216
SSPCON3                           00000217
SSPEN                             00000005
MPASM  5.35                        TARGET.ASM   3-10-2024  15:32:25         PAGE 146


SYMBOL TABLE
  LABEL                             VALUE 

SSPM0                             00000000
SSPM1                             00000001
SSPM2                             00000002
SSPM3                             00000003
SSPMSK                            00000213
SSPOV                             00000006
SSPSTAT                           00000214
STATUS                            00000003
STATUS_SHAD                       00000FE4
STATUS_Save                       00000008
STKOVF                            00000007
STKPTR                            00000FED
STKUNF                            00000006
STR1A                             00000000
STR1B                             00000001
STR1C                             00000002
STR1D                             00000003
STR1SYNC                          00000004
STR2A                             00000000
STR2B                             00000001
STR2C                             00000002
STR2D                             00000003
STR2SYNC                          00000004
SWDTEN                            00000000
SYNC                              00000004
T0CS                              00000005
T0IE                              00000005
T0IF                              00000002
T0SE                              00000004
T0XCS                             00000000
T1CKPS0                           00000004
T1CKPS1                           00000005
T1CON                             00000018
T1GCON                            00000019
T1GGO                             00000003
T1GPOL                            00000006
T1GSPM                            00000004
T1GSS0                            00000000
T1GSS1                            00000001
T1GTM                             00000005
T1GVAL                            00000002
T1OSCEN                           00000003
T1OSCR                            00000007
T2CKPS0                           00000000
T2CKPS1                           00000001
T2CON                             0000001C
T2OUTPS0                          00000003
T2OUTPS1                          00000004
T2OUTPS2                          00000005
T2OUTPS3                          00000006
T4CKPS0                           00000000
T4CKPS1                           00000001
T4CON                             00000417
MPASM  5.35                        TARGET.ASM   3-10-2024  15:32:25         PAGE 147


SYMBOL TABLE
  LABEL                             VALUE 

T4OUTPS0                          00000003
T4OUTPS1                          00000004
T4OUTPS2                          00000005
T4OUTPS3                          00000006
T6CKPS0                           00000000
T6CKPS1                           00000001
T6CON                             0000041E
T6OUTPS0                          00000003
T6OUTPS1                          00000004
T6OUTPS2                          00000005
T6OUTPS3                          00000006
TMR0                              00000015
TMR0CS                            00000005
TMR0IE                            00000005
TMR0IF                            00000002
TMR0SE                            00000004
TMR1                              00000016
TMR1CS0                           00000006
TMR1CS1                           00000007
TMR1GE                            00000007
TMR1GIE                           00000007
TMR1GIF                           00000007
TMR1H                             00000017
TMR1IE                            00000000
TMR1IF                            00000000
TMR1L                             00000016
TMR1ON                            00000000
TMR2                              0000001A
TMR2IE                            00000001
TMR2IF                            00000001
TMR2ON                            00000002
TMR4                              00000415
TMR4IE                            00000001
TMR4IF                            00000001
TMR4ON                            00000002
TMR6                              0000041C
TMR6IE                            00000003
TMR6IF                            00000003
TMR6ON                            00000002
TOSH                              00000FEF
TOSL                              00000FEE
TRISA                             0000008C
TRISA0                            00000000
TRISA1                            00000001
TRISA2                            00000002
TRISA3                            00000003
TRISA4                            00000004
TRISA5                            00000005
TRISA6                            00000006
TRISA7                            00000007
TRISB                             0000008D
TRISB0                            00000000
TRISB1                            00000001
MPASM  5.35                        TARGET.ASM   3-10-2024  15:32:25         PAGE 148


SYMBOL TABLE
  LABEL                             VALUE 

TRISB2                            00000002
TRISB3                            00000003
TRISB4                            00000004
TRISB5                            00000005
TRISB6                            00000006
TRISB7                            00000007
TRMT                              00000001
TUN0                              00000000
TUN1                              00000001
TUN2                              00000002
TUN3                              00000003
TUN4                              00000004
TUN5                              00000005
TX9                               00000006
TX9D                              00000000
TXCKSEL                           00000000
TXEN                              00000005
TXIE                              00000004
TXIF                              00000004
TXREG                             0000019A
TXSTA                             0000019E
UA                                00000001
W                                 00000000
WCOL                              00000007
WDTCON                            00000097
WDTPS0                            00000001
WDTPS1                            00000002
WDTPS2                            00000003
WDTPS3                            00000004
WDTPS4                            00000005
WPUA                              0000020C
WPUA5                             00000005
WPUB                              0000020D
WPUB0                             00000000
WPUB1                             00000001
WPUB2                             00000002
WPUB3                             00000003
WPUB4                             00000004
WPUB5                             00000005
WPUB6                             00000006
WPUB7                             00000007
WR                                00000001
WREG                              00000009
WREG_SHAD                         00000FE5
WREN                              00000002
WRERR                             00000003
WRITEEEPROM                       
WUE                               00000001
W_Save                            00000007
Z                                 00000002
Z_SHAD                            00000002
_BOREN_NSLEEP                     0000FDFF
_BOREN_OFF                        0000F9FF
MPASM  5.35                        TARGET.ASM   3-10-2024  15:32:25         PAGE 149


SYMBOL TABLE
  LABEL                             VALUE 

_BOREN_ON                         0000FFFF
_BOREN_SBODEN                     0000FBFF
_BORV_19                          0000FFFF
_BORV_25                          0000FBFF
_CLKOUTEN_OFF                     0000FFFF
_CLKOUTEN_ON                      0000F7FF
_CONFIG1                          00008007
_CONFIG2                          00008008
_CPD_OFF                          0000FFFF
_CPD_ON                           0000FEFF
_CP_OFF                           0000FFFF
_CP_ON                            0000FF7F
_DEVID1                           00008006
_FCMEN_OFF                        0000DFFF
_FCMEN_ON                         0000FFFF
_FOSC_ECH                         0000FFFF
_FOSC_ECL                         0000FFFD
_FOSC_ECM                         0000FFFE
_FOSC_EXTRC                       0000FFFB
_FOSC_HS                          0000FFFA
_FOSC_INTOSC                      0000FFFC
_FOSC_LP                          0000FFF8
_FOSC_XT                          0000FFF9
_IDLOC0                           00008000
_IDLOC1                           00008001
_IDLOC2                           00008002
_IDLOC3                           00008003
_IESO_OFF                         0000EFFF
_IESO_ON                          0000FFFF
_LVP_OFF                          0000DFFF
_LVP_ON                           0000FFFF
_MCLRE_OFF                        0000FFBF
_MCLRE_ON                         0000FFFF
_PLLEN_OFF                        0000FEFF
_PLLEN_ON                         0000FFFF
_PWRTE_OFF                        0000FFFF
_PWRTE_ON                         0000FFDF
_STVREN_OFF                       0000FDFF
_STVREN_ON                        0000FFFF
_WDTE_NSLEEP                      0000FFF7
_WDTE_OFF                         0000FFE7
_WDTE_ON                          0000FFFF
_WDTE_SWDTEN                      0000FFEF
_WRT_ALL                          0000FFFC
_WRT_BOOT                         0000FFFE
_WRT_HALF                         0000FFFD
_WRT_OFF                          0000FFFF
__16F1827                         00000001
_hllkrna00_000A                   0000000A
_hllkrna00_0014                   00000014
_hllkrna03_0003                   00000003
_hllkrna03_0008                   00000008
_hllkrna04_000C                   0000000C
MPASM  5.35                        TARGET.ASM   3-10-2024  15:32:25         PAGE 150


SYMBOL TABLE
  LABEL                             VALUE 

_hllkrna04_000E                   0000000E
_hllkrna04_001B                   0000001B
_hllkrna04_001D                   0000001D
_hllkrna05_000C                   0000000C
_hllkrna05_000E                   0000000E
_hllkrna05_001B                   0000001B
_hllkrna05_001D                   0000001D
_hllt453_006A                     0000006A
_hllt453_006C                     0000006C
_hllt453_0078                     00000078
_hllt453_007A                     0000007A
add                               00000000
addf                              00000000
alt_fsr                           00000006
alt_stack                         00000000
andu                              00000000
clearbit                          00000000
clearbit0                         0000003A
copyf                             00000000
copytop                           00000000
dispose                           00000000
divf                              00000000
divu                              00000000
divu0                             00000012
dmm445                            00000010
eq                                00000000
ftou                              00000000
getch                             00000000
geth2                             00000005
geth3                             0000000A
geth4                             00000009
hllAAAAA                          00000044
hllABAAA                          0000004D
hllACAAA                          000000E9
hllADAAA                          00000028
hllAEAAA                          0000005C
hllBAAAA                          0000004A
hllBBAAA                          00000058
hllBCAAA                          000000F1
hllBDAAA                          0000002A
hllBEAAA                          00000063
hllCAAAA                          00000051
hllCBAAA                          00000059
hllCCAAA                          000000FB
hllCDAAA                          0000002C
hllCEAAA                          00000067
hllDAAAA                          00000058
hllDBAAA                          0000005F
hllDCAAA                          00000024
hllDDAAA                          0000002C
hllEAAAA                          0000005F
hllEBAAA                          00000061
hllECAAA                          00000030
MPASM  5.35                        TARGET.ASM   3-10-2024  15:32:25         PAGE 151


SYMBOL TABLE
  LABEL                             VALUE 

hllEDAAA                          0000000A
hllFAAAA                          00000066
hllFBAAA                          00000068
hllFCAAA                          0000003A
hllFDAAA                          0000001B
hllGAAAA                          0000006D
hllGBAAA                          0000006B
hllGCAAA                          00000055
hllGDAAA                          0000002D
hllHAAAA                          0000006F
hllHBAAA                          00000077
hllHCAAA                          00000057
hllHDAAA                          00000039
hllIBAAA                          0000007A
hllIBAAAb                         000000A8
hllICAAA                          00000059
hllIDAAA                          00000047
hllJBAAA                          00000083
hllJCAAA                          00000066
hllJDAAA                          0000004F
hllKAAAA                          00000044
hllKBAAA                          0000008C
hllKCAAA                          00000070
hllKDAAA                          00000051
hllLAAAA                          0000004A
hllLBAAA                          0000008D
hllLCAAA                          00000071
hllLDAAA                          00000054
hllMAAAA                          00000051
hllMBAAA                          0000008F
hllMCAAA                          00000073
hllMDAAA                          0000005A
hllNAAAA                          00000058
hllNBAAA                          00000096
hllNCAAA                          00000074
hllNDAAA                          0000005C
hllOAAAA                          0000005F
hllOBAAA                          00000099
hllOCAAA                          00000075
hllODAAA                          00000060
hllPAAAA                          00000066
hllPBAAA                          000000A5
hllPCAAA                          0000007E
hllPDAAA                          00000061
hllQAAAA                          0000006D
hllQCAAA                          00000084
hllQDAAA                          0000006A
hllRAAAA                          0000006F
hllRBAAA                          000000B1
hllRCAAA                          00000086
hllRDAAA                          00000070
hllSAAAA                          00000018
hllSBAAA                          000000BA
MPASM  5.35                        TARGET.ASM   3-10-2024  15:32:25         PAGE 152


SYMBOL TABLE
  LABEL                             VALUE 

hllSCAAA                          00000089
hllTAAAA                          0000001C
hllTBAAA                          000000BB
hllTCAAA                          00000008
hllUAAAA                          0000001D
hllUBAAA                          000000C0
hllUCAAA                          00000016
hllUDAAA                          0000000B
hllVAAAA                          0000001F
hllVBAAA                          000000C7
hllVCAAA                          0000001E
hllVDAAA                          00000016
hllWAAAA                          0000002D
hllWAAAA_done                     0000002E
hllWBAAA                          000000CF
hllWCAAA                          00000020
hllWDAAA                          00000022
hllXBAAA                          000000D4
hllXCAAA                          00000022
hllXDAAA                          0000002F
hllYAAAA                          00000042
hllYBAAA                          000000DF
hllYCAAA                          00000024
hllYDAAA                          0000003D
hllZAAAA                          0000004B
hllZBAAA                          000000E7
hllZCAAA                          00000026
hllZDAAA                          0000004C
hllblss00                         00000000
hllblss00isr                      00000001
hllblss01                         00000002
hllblss01isr                      00000003
hllblss02                         00000004
hllblss02isr                      00000005
hlllb51J1                         00000030
hlllb51J2                         0000004B
hllnotisr49                       00000023
hllparmcore                       
hllprettyel                       00000000
hllprettyml                       00000000
hllprgen2                         00000089
hllprogend                        00000110
hlluserprog                       00000000
hloego                            00000000
in_isr                            0000000B
iszerof                           00000000
kpop                              00000000
kpush                             00000000
kspox5                            00000007
modu                              00000000
modu0                             00000012
mul                               00000000
mul0                              0000000D
MPASM  5.35                        TARGET.ASM   3-10-2024  15:32:25         PAGE 153


SYMBOL TABLE
  LABEL                             VALUE 

mulf                              00000000
negti                             00000000
nonzf                             0000000B
nonzg                             0000000C
nonzr                             0000000D
oru                               00000000
parm                              00000000
parm4                             00000014
pbase                             00000000
pbaseisr                          00000001
prettye                           hllprettyel
prettym                           hllprettyml
printch                           00000000
printdf                           00000000
printdigretrest                   00000000
safepush                          00000000
setbit                            00000000
setbit0                           0000003A
sfpaux00                          00000001
sfpaux01                          00000003
sfpaux02                          00000005
sfpaux03                          00000007
sfploc00                          00000000
sfploc01                          00000002
sfploc02                          00000004
sfploc03                          00000006
sfploc04                          00000008
sfploc05                          00000009
sfploc06                          0000000A
sfploc07                          0000000B
sfploc08                          0000000C
sfploc09                          0000000D
sfploc10                          0000000E
sfploc11                          0000000F
sfploc12                          00000010
sfploc13                          00000011
sfploc14                          00000012
sfploc15                          00000013
sfploc16                          00000014
sfploc17                          00000015
softstack0                        00000000
softstack0isr                     00000001
softstack1                        00000002
softstack1isr                     00000003
softstack2                        00000004
softstack2isr                     00000005
sperr11                           0000000E
stack                             00000000
tcf00h                            0000000D
tcf01h                            00000013
tcf02h                            0000001A
tcf03h                            00000021
tcf04h                            00000028
MPASM  5.35                        TARGET.ASM   3-10-2024  15:32:25         PAGE 154


SYMBOL TABLE
  LABEL                             VALUE 

tcf05h                            0000002F
tcf07h                            00000036
tcf99h                            00000038
tff00h                            0000000D
tff01h                            00000013
tff02h                            0000001A
tff03h                            00000021
tff04h                            00000028
tff05h                            0000002F
tff07h                            00000036
tff99h                            00000038
utof                              00000000

Errors   :     0
Warnings :     0 reported,     6 suppressed
Messages :     0 reported,    32 suppressed

