PLINK 4.35, Linker
Linker Map File - Created Sun Jul 21 21:09:26 2019

                                 Section Info
                  Section       Type    Address   Location Size(Bytes)
                ---------  ---------  ---------  ---------  ---------
                   Resetv       code   0x000000    program   0x000006
                   .cinit    romdata   0x000003    program   0x000004
                hllupuser       code   0x000005    program   0x0001e2
                 hllt4514       code   0x0000f6    program   0x000172
                  hllt455       code   0x0001af    program   0x0000be
                   hlog1b       code   0x00020e    program   0x00006e
                   hlog1a       code   0x000245    program   0x00006e
                 hllt4517       code   0x00027c    program   0x00006c
                hllkrn444       code   0x0002b2    program   0x00002c
                hllkrna08       code   0x0002c8    program   0x000022
                hllkrna05       code   0x0002d9    program   0x00001e
                hllkrna04       code   0x0002e8    program   0x00001e
                hllcmppic       code   0x0002f7    program   0x00001e
                     main       code   0x000306    program   0x000018
                hllkrna00       code   0x000312    program   0x000014
                  hllt450       code   0x00031c    program   0x000012
                hllkrna07       code   0x000325    program   0x000010
                hllkrna06       code   0x00032d    program   0x00000e
                hllkrna03       code   0x000334    program   0x00000e
                   hlog1h       code   0x00033b    program   0x00000a
                   hlog1d       code   0x000340    program   0x00000a
                hllkrna01       code   0x000345    program   0x00000a
                hllkrna02       code   0x00034a    program   0x000006
                   hlog1g       code   0x00034d    program   0x000004
                hllkrna11       code   0x00034f    program   0x000004
                hllkrna10       code   0x000351    program   0x000004
                hllkrna09       code   0x000353    program   0x000004
    .config_8007_TARGET.O       code   0x008007    program   0x000002
    .config_8008_TARGET.O       code   0x008008    program   0x000002
                   ukrnl3      udata   0x000020       data   0x000050
                   ukrshr      udata   0x000070       data   0x000009
                 mainvars      udata   0x000079       data   0x000002
                   ukrnl2      udata   0x0000a0       data   0x000050
                   ukernl      udata   0x000220       data   0x000003
                hllv2stor      udata   0x000223       data   0x000001
               hllv2isgll      udata   0x000224       data   0x000001



                              Program Memory Usage 
                               Start         End      
                           ---------   ---------      
                            0x000000    0x000354      
                            0x008007    0x008008      
            855 out of 4359 program addresses used, program memory utilization is 19%



                              Symbols - Sorted by Name
                     Name    Address   Location    Storage File                     
                ---------  ---------  ---------  --------- ---------                
          _hllkrna00_0007   0x000319    program     static Z:\home\dell\frost\frostgpsproject\target.asm
          _hllkrna03_0005   0x000339    program     static Z:\home\dell\frost\frostgpsproject\target.asm
          _hllkrna04_0009   0x0002f1    program     static Z:\home\dell\frost\frostgpsproject\target.asm
          _hllkrna04_000B   0x0002f3    program     static Z:\home\dell\frost\frostgpsproject\target.asm
          _hllkrna05_0009   0x0002e2    program     static Z:\home\dell\frost\frostgpsproject\target.asm
          _hllkrna05_000B   0x0002e4    program     static Z:\home\dell\frost\frostgpsproject\target.asm
                      add   0x000345    program     static Z:\home\dell\frost\frostgpsproject\target.asm
                     andb   0x00034d    program     static Z:\home\dell\frost\frostgpsproject\target.asm
                     andu   0x00033b    program     static Z:\home\dell\frost\frostgpsproject\target.asm
                 clearbit   0x000245    program     static Z:\home\dell\frost\frostgpsproject\target.asm
                  dispose   0x00034f    program     static Z:\home\dell\frost\frostgpsproject\target.asm
                     divu   0x0002d9    program     static Z:\home\dell\frost\frostgpsproject\target.asm
                   dmm445   0x0002c2    program     static Z:\home\dell\frost\frostgpsproject\target.asm
                   dofunc   0x0001af    program     static Z:\home\dell\frost\frostgpsproject\target.asm
                       eq   0x000325    program     static Z:\home\dell\frost\frostgpsproject\target.asm
                    getch   0x00032d    program     static Z:\home\dell\frost\frostgpsproject\target.asm
                    geth3   0x00032e    program     static Z:\home\dell\frost\frostgpsproject\target.asm
                      geu   0x0002f7    program     static Z:\home\dell\frost\frostgpsproject\target.asm
                 hllAAAAA   0x00024f    program     static Z:\home\dell\frost\frostgpsproject\target.asm
                 hllBAAAA   0x000255    program     static Z:\home\dell\frost\frostgpsproject\target.asm
                 hllCAAAA   0x00025c    program     static Z:\home\dell\frost\frostgpsproject\target.asm
                 hllDAAAA   0x000263    program     static Z:\home\dell\frost\frostgpsproject\target.asm
                 hllEAAAA   0x00026a    program     static Z:\home\dell\frost\frostgpsproject\target.asm
                 hllFAAAA   0x000271    program     static Z:\home\dell\frost\frostgpsproject\target.asm
                 hllGAAAA   0x000278    program     static Z:\home\dell\frost\frostgpsproject\target.asm
                 hllHAAAA   0x00027a    program     static Z:\home\dell\frost\frostgpsproject\target.asm
                 hllIAAAA   0x000300    program     static Z:\home\dell\frost\frostgpsproject\target.asm
                 hllJAAAA   0x000303    program     static Z:\home\dell\frost\frostgpsproject\target.asm
                 hllKAAAA   0x000218    program     static Z:\home\dell\frost\frostgpsproject\target.asm
                 hllLAAAA   0x00021e    program     static Z:\home\dell\frost\frostgpsproject\target.asm
                 hllMAAAA   0x000225    program     static Z:\home\dell\frost\frostgpsproject\target.asm
                 hllNAAAA   0x00022c    program     static Z:\home\dell\frost\frostgpsproject\target.asm
                 hllOAAAA   0x000233    program     static Z:\home\dell\frost\frostgpsproject\target.asm
                 hllPAAAA   0x00023a    program     static Z:\home\dell\frost\frostgpsproject\target.asm
                 hllQAAAA   0x000241    program     static Z:\home\dell\frost\frostgpsproject\target.asm
                 hllRAAAA   0x000243    program     static Z:\home\dell\frost\frostgpsproject\target.asm
                hlllb51J1   0x0001db    program     static Z:\home\dell\frost\frostgpsproject\target.asm
               hlllb51J10   0x00014b    program     static Z:\home\dell\frost\frostgpsproject\target.asm
               hlllb51J11   0x000191    program     static Z:\home\dell\frost\frostgpsproject\target.asm
               hlllb51J12   0x000192    program     static Z:\home\dell\frost\frostgpsproject\target.asm
               hlllb51J13   0x0001ad    program     static Z:\home\dell\frost\frostgpsproject\target.asm
               hlllb51J15   0x00029d    program     static Z:\home\dell\frost\frostgpsproject\target.asm
               hlllb51J16   0x0002af    program     static Z:\home\dell\frost\frostgpsproject\target.asm
                hlllb51J2   0x0001e7    program     static Z:\home\dell\frost\frostgpsproject\target.asm
                hlllb51J3   0x0001fd    program     static Z:\home\dell\frost\frostgpsproject\target.asm
                hlllb51J4   0x000209    program     static Z:\home\dell\frost\frostgpsproject\target.asm
                hlllb51J6   0x000191    program     static Z:\home\dell\frost\frostgpsproject\target.asm
                hlllb51J7   0x000191    program     static Z:\home\dell\frost\frostgpsproject\target.asm
                hlllb51J8   0x000165    program     static Z:\home\dell\frost\frostgpsproject\target.asm
                hlllb51J9   0x000191    program     static Z:\home\dell\frost\frostgpsproject\target.asm
                hllprgen2   0x0002b1    program     static Z:\home\dell\frost\frostgpsproject\target.asm
               hllprogend   0x0000f5    program     static Z:\home\dell\frost\frostgpsproject\target.asm
              hlluserprog   0x000005    program     static Z:\home\dell\frost\frostgpsproject\target.asm
                   hloego   0x000306    program     static Z:\home\dell\frost\frostgpsproject\target.asm
                     kpop   0x000353    program     static Z:\home\dell\frost\frostgpsproject\target.asm
                    kpush   0x000351    program     static Z:\home\dell\frost\frostgpsproject\target.asm
                   kspox5   0x0002b9    program     static Z:\home\dell\frost\frostgpsproject\target.asm
                 mainloop   0x00031c    program     static Z:\home\dell\frost\frostgpsproject\target.asm
                     modu   0x0002e8    program     static Z:\home\dell\frost\frostgpsproject\target.asm
                      mul   0x000312    program     static Z:\home\dell\frost\frostgpsproject\target.asm
                    negti   0x00034a    program     static Z:\home\dell\frost\frostgpsproject\target.asm
                      oru   0x000340    program     static Z:\home\dell\frost\frostgpsproject\target.asm
                     parm   0x0002c8    program     static Z:\home\dell\frost\frostgpsproject\target.asm
                  printch   0x000334    program     static Z:\home\dell\frost\frostgpsproject\target.asm
                    purge   0x00027c    program     static Z:\home\dell\frost\frostgpsproject\target.asm
                  receive   0x0000f6    program     static Z:\home\dell\frost\frostgpsproject\target.asm
                 safepush   0x0002b2    program     static Z:\home\dell\frost\frostgpsproject\target.asm
                   setbit   0x00020e    program     static Z:\home\dell\frost\frostgpsproject\target.asm
                  sperr11   0x0002c0    program     static Z:\home\dell\frost\frostgpsproject\target.asm
                 ALT_Save   0x000077       data     static Z:\home\dell\frost\frostgpsproject\target.asm
                 FSR_Save   0x000076       data     static Z:\home\dell\frost\frostgpsproject\target.asm
                  PC_Save   0x00007a       data     static Z:\home\dell\frost\frostgpsproject\target.asm
              STATUS_Save   0x000075       data     static Z:\home\dell\frost\frostgpsproject\target.asm
                   W_Save   0x000074       data     static Z:\home\dell\frost\frostgpsproject\target.asm
                  alt_fsr   0x000073       data     static Z:\home\dell\frost\frostgpsproject\target.asm
                alt_stack   0x000020       data     static Z:\home\dell\frost\frostgpsproject\target.asm
                hllblss00   0x000220       data     static Z:\home\dell\frost\frostgpsproject\target.asm
                hllblss01   0x000221       data     static Z:\home\dell\frost\frostgpsproject\target.asm
                hllblss02   0x000222       data     static Z:\home\dell\frost\frostgpsproject\target.asm
                hllisglll   0x000224       data     static Z:\home\dell\frost\frostgpsproject\target.asm
                 hllstorl   0x000223       data     static Z:\home\dell\frost\frostgpsproject\target.asm
                   in_isr   0x000078       data     static Z:\home\dell\frost\frostgpsproject\target.asm
                    pbase   0x000079       data     static Z:\home\dell\frost\frostgpsproject\target.asm
               softstack0   0x000070       data     static Z:\home\dell\frost\frostgpsproject\target.asm
               softstack1   0x000071       data     static Z:\home\dell\frost\frostgpsproject\target.asm
               softstack2   0x000072       data     static Z:\home\dell\frost\frostgpsproject\target.asm
                    stack   0x0000a0       data     static Z:\home\dell\frost\frostgpsproject\target.asm



                              Symbols - Sorted by Address
                     Name    Address   Location    Storage File                     
                ---------  ---------  ---------  --------- ---------                
              hlluserprog   0x000005    program     static Z:\home\dell\frost\frostgpsproject\target.asm
               hllprogend   0x0000f5    program     static Z:\home\dell\frost\frostgpsproject\target.asm
                  receive   0x0000f6    program     static Z:\home\dell\frost\frostgpsproject\target.asm
               hlllb51J10   0x00014b    program     static Z:\home\dell\frost\frostgpsproject\target.asm
                hlllb51J8   0x000165    program     static Z:\home\dell\frost\frostgpsproject\target.asm
                hlllb51J6   0x000191    program     static Z:\home\dell\frost\frostgpsproject\target.asm
                hlllb51J7   0x000191    program     static Z:\home\dell\frost\frostgpsproject\target.asm
               hlllb51J11   0x000191    program     static Z:\home\dell\frost\frostgpsproject\target.asm
                hlllb51J9   0x000191    program     static Z:\home\dell\frost\frostgpsproject\target.asm
               hlllb51J12   0x000192    program     static Z:\home\dell\frost\frostgpsproject\target.asm
               hlllb51J13   0x0001ad    program     static Z:\home\dell\frost\frostgpsproject\target.asm
                   dofunc   0x0001af    program     static Z:\home\dell\frost\frostgpsproject\target.asm
                hlllb51J1   0x0001db    program     static Z:\home\dell\frost\frostgpsproject\target.asm
                hlllb51J2   0x0001e7    program     static Z:\home\dell\frost\frostgpsproject\target.asm
                hlllb51J3   0x0001fd    program     static Z:\home\dell\frost\frostgpsproject\target.asm
                hlllb51J4   0x000209    program     static Z:\home\dell\frost\frostgpsproject\target.asm
                   setbit   0x00020e    program     static Z:\home\dell\frost\frostgpsproject\target.asm
                 hllKAAAA   0x000218    program     static Z:\home\dell\frost\frostgpsproject\target.asm
                 hllLAAAA   0x00021e    program     static Z:\home\dell\frost\frostgpsproject\target.asm
                 hllMAAAA   0x000225    program     static Z:\home\dell\frost\frostgpsproject\target.asm
                 hllNAAAA   0x00022c    program     static Z:\home\dell\frost\frostgpsproject\target.asm
                 hllOAAAA   0x000233    program     static Z:\home\dell\frost\frostgpsproject\target.asm
                 hllPAAAA   0x00023a    program     static Z:\home\dell\frost\frostgpsproject\target.asm
                 hllQAAAA   0x000241    program     static Z:\home\dell\frost\frostgpsproject\target.asm
                 hllRAAAA   0x000243    program     static Z:\home\dell\frost\frostgpsproject\target.asm
                 clearbit   0x000245    program     static Z:\home\dell\frost\frostgpsproject\target.asm
                 hllAAAAA   0x00024f    program     static Z:\home\dell\frost\frostgpsproject\target.asm
                 hllBAAAA   0x000255    program     static Z:\home\dell\frost\frostgpsproject\target.asm
                 hllCAAAA   0x00025c    program     static Z:\home\dell\frost\frostgpsproject\target.asm
                 hllDAAAA   0x000263    program     static Z:\home\dell\frost\frostgpsproject\target.asm
                 hllEAAAA   0x00026a    program     static Z:\home\dell\frost\frostgpsproject\target.asm
                 hllFAAAA   0x000271    program     static Z:\home\dell\frost\frostgpsproject\target.asm
                 hllGAAAA   0x000278    program     static Z:\home\dell\frost\frostgpsproject\target.asm
                 hllHAAAA   0x00027a    program     static Z:\home\dell\frost\frostgpsproject\target.asm
                    purge   0x00027c    program     static Z:\home\dell\frost\frostgpsproject\target.asm
               hlllb51J15   0x00029d    program     static Z:\home\dell\frost\frostgpsproject\target.asm
               hlllb51J16   0x0002af    program     static Z:\home\dell\frost\frostgpsproject\target.asm
                hllprgen2   0x0002b1    program     static Z:\home\dell\frost\frostgpsproject\target.asm
                 safepush   0x0002b2    program     static Z:\home\dell\frost\frostgpsproject\target.asm
                   kspox5   0x0002b9    program     static Z:\home\dell\frost\frostgpsproject\target.asm
                  sperr11   0x0002c0    program     static Z:\home\dell\frost\frostgpsproject\target.asm
                   dmm445   0x0002c2    program     static Z:\home\dell\frost\frostgpsproject\target.asm
                     parm   0x0002c8    program     static Z:\home\dell\frost\frostgpsproject\target.asm
                     divu   0x0002d9    program     static Z:\home\dell\frost\frostgpsproject\target.asm
          _hllkrna05_0009   0x0002e2    program     static Z:\home\dell\frost\frostgpsproject\target.asm
          _hllkrna05_000B   0x0002e4    program     static Z:\home\dell\frost\frostgpsproject\target.asm
                     modu   0x0002e8    program     static Z:\home\dell\frost\frostgpsproject\target.asm
          _hllkrna04_0009   0x0002f1    program     static Z:\home\dell\frost\frostgpsproject\target.asm
          _hllkrna04_000B   0x0002f3    program     static Z:\home\dell\frost\frostgpsproject\target.asm
                      geu   0x0002f7    program     static Z:\home\dell\frost\frostgpsproject\target.asm
                 hllIAAAA   0x000300    program     static Z:\home\dell\frost\frostgpsproject\target.asm
                 hllJAAAA   0x000303    program     static Z:\home\dell\frost\frostgpsproject\target.asm
                   hloego   0x000306    program     static Z:\home\dell\frost\frostgpsproject\target.asm
                      mul   0x000312    program     static Z:\home\dell\frost\frostgpsproject\target.asm
          _hllkrna00_0007   0x000319    program     static Z:\home\dell\frost\frostgpsproject\target.asm
                 mainloop   0x00031c    program     static Z:\home\dell\frost\frostgpsproject\target.asm
                       eq   0x000325    program     static Z:\home\dell\frost\frostgpsproject\target.asm
                    getch   0x00032d    program     static Z:\home\dell\frost\frostgpsproject\target.asm
                    geth3   0x00032e    program     static Z:\home\dell\frost\frostgpsproject\target.asm
                  printch   0x000334    program     static Z:\home\dell\frost\frostgpsproject\target.asm
          _hllkrna03_0005   0x000339    program     static Z:\home\dell\frost\frostgpsproject\target.asm
                     andu   0x00033b    program     static Z:\home\dell\frost\frostgpsproject\target.asm
                      oru   0x000340    program     static Z:\home\dell\frost\frostgpsproject\target.asm
                      add   0x000345    program     static Z:\home\dell\frost\frostgpsproject\target.asm
                    negti   0x00034a    program     static Z:\home\dell\frost\frostgpsproject\target.asm
                     andb   0x00034d    program     static Z:\home\dell\frost\frostgpsproject\target.asm
                  dispose   0x00034f    program     static Z:\home\dell\frost\frostgpsproject\target.asm
                    kpush   0x000351    program     static Z:\home\dell\frost\frostgpsproject\target.asm
                     kpop   0x000353    program     static Z:\home\dell\frost\frostgpsproject\target.asm
                alt_stack   0x000020       data     static Z:\home\dell\frost\frostgpsproject\target.asm
               softstack0   0x000070       data     static Z:\home\dell\frost\frostgpsproject\target.asm
               softstack1   0x000071       data     static Z:\home\dell\frost\frostgpsproject\target.asm
               softstack2   0x000072       data     static Z:\home\dell\frost\frostgpsproject\target.asm
                  alt_fsr   0x000073       data     static Z:\home\dell\frost\frostgpsproject\target.asm
                   W_Save   0x000074       data     static Z:\home\dell\frost\frostgpsproject\target.asm
              STATUS_Save   0x000075       data     static Z:\home\dell\frost\frostgpsproject\target.asm
                 FSR_Save   0x000076       data     static Z:\home\dell\frost\frostgpsproject\target.asm
                 ALT_Save   0x000077       data     static Z:\home\dell\frost\frostgpsproject\target.asm
                   in_isr   0x000078       data     static Z:\home\dell\frost\frostgpsproject\target.asm
                    pbase   0x000079       data     static Z:\home\dell\frost\frostgpsproject\target.asm
                  PC_Save   0x00007a       data     static Z:\home\dell\frost\frostgpsproject\target.asm
                    stack   0x0000a0       data     static Z:\home\dell\frost\frostgpsproject\target.asm
                hllblss00   0x000220       data     static Z:\home\dell\frost\frostgpsproject\target.asm
                hllblss01   0x000221       data     static Z:\home\dell\frost\frostgpsproject\target.asm
                hllblss02   0x000222       data     static Z:\home\dell\frost\frostgpsproject\target.asm
                 hllstorl   0x000223       data     static Z:\home\dell\frost\frostgpsproject\target.asm
                hllisglll   0x000224       data     static Z:\home\dell\frost\frostgpsproject\target.asm


