MPLINK 4.35, Linker
Linker Map File - Created Mon Jul 22 21:58:08 2019

                                 Section Info
                  Section       Type    Address   Location Size(Bytes)
                ---------  ---------  ---------  ---------  ---------
                   Resetv       code   0x000000    program   0x000006
                    vectr       code   0x000004    program   0x0000dc
                   .cinit    romdata   0x000072    program   0x000004
                 hllt4515       code   0x000074    program   0x000340
                hllupuser       code   0x000214    program   0x000298
                  sfp_div       code   0x000360    program   0x00011e
                hllkrna06       code   0x0003ef    program   0x000020
                  sfp_add       code   0x000400    program   0x0001f8
                 hllt4512       code   0x0004fc    program   0x000160
                 sfp_prrr       code   0x0005ac    program   0x00014c
                  sfp_mul       code   0x000652    program   0x000100
                   hlog1b       code   0x0006d2    program   0x0000e2
                   hlog1a       code   0x000743    program   0x0000e2
                hllkrna08       code   0x0007b4    program   0x000048
                hllkrna05       code   0x0007d8    program   0x000042
                   hlog1f       code   0x0007f9    program   0x00000e
                  sfp_uto       code   0x000800    program   0x0000d0
                hllkrna04       code   0x000868    program   0x000042
                hllcmppic       code   0x000889    program   0x000042
                hllkrna00       code   0x0008aa    program   0x00002e
                hllkrn444       code   0x0008c1    program   0x00002c
                  hllt453       code   0x0008d7    program   0x000028
               sfp_iszero       code   0x0008eb    program   0x00001e
                     main       code   0x0008fa    program   0x000018
                hllkrna03       code   0x000906    program   0x000014
                hllkrna07       code   0x000910    program   0x000010
                   hlog1h       code   0x000918    program   0x00000a
                   hlog1d       code   0x00091d    program   0x00000a
                hllkrna01       code   0x000922    program   0x00000a
               sfp_ddbasc       code   0x000927    program   0x000008
                  hllt452       code   0x00092b    program   0x000008
                hllkrna02       code   0x00092f    program   0x000006
                   hlog1g       code   0x000932    program   0x000004
                hllkrna11       code   0x000934    program   0x000004
                hllkrna10       code   0x000936    program   0x000004
                hllkrna09       code   0x000938    program   0x000004
    .config_8007_TARGET.O       code   0x008007    program   0x000002
    .config_8008_TARGET.O       code   0x008008    program   0x000002
                   ukrnl2      udata   0x000020       data   0x000050
                   ukrshr      udata   0x000070       data   0x00000c
                 mainvars      udata   0x00007c       data   0x000002
                     sfpu      udata   0x0000a0       data   0x000016
                hllv2stor      udata   0x0000b6       data   0x000001
              hllv2scaler      udata   0x0000b7       data   0x000001
          hllv2latsubminb      udata   0x0000b8       data   0x000001
           hllv2latsubmin      udata   0x0000b9       data   0x000001
             hllv2latminb      udata   0x0000ba       data   0x000001
              hllv2latmin      udata   0x0000bb       data   0x000001
             hllv2latdegb      udata   0x0000bc       data   0x000001
              hllv2latdeg      udata   0x0000bd       data   0x000001
               hllv2isgll      udata   0x0000be       data   0x000001
                   ukrnl3      udata   0x000220       data   0x000028
                   ukernl      udata   0x000248       data   0x000006
               hllv2tempb      udata   0x00024e       data   0x000001
                hllv2temp      udata   0x00024f       data   0x000001



                              Program Memory Usage 
                               Start         End      
                           ---------   ---------      
                            0x000000    0x000002      
                            0x000004    0x0003fe      
                            0x000400    0x000939      
                            0x008007    0x008008      
            2362 out of 4359 program addresses used, program memory utilization is 54%



                              Symbols - Sorted by Name
                     Name    Address   Location    Storage File                     
                ---------  ---------  ---------  --------- ---------                
                  ExitISR   0x000070    program     static Z:\home\dell\frost\frostgpsproject\target.asm
                      ISR   0x000004    program     static Z:\home\dell\frost\frostgpsproject\target.asm
          _hllkrna00_000A   0x0008b4    program     static Z:\home\dell\frost\frostgpsproject\target.asm
          _hllkrna00_0014   0x0008be    program     static Z:\home\dell\frost\frostgpsproject\target.asm
          _hllkrna03_0003   0x000909    program     static Z:\home\dell\frost\frostgpsproject\target.asm
          _hllkrna03_0008   0x00090e    program     static Z:\home\dell\frost\frostgpsproject\target.asm
          _hllkrna04_000C   0x000874    program     static Z:\home\dell\frost\frostgpsproject\target.asm
          _hllkrna04_000E   0x000876    program     static Z:\home\dell\frost\frostgpsproject\target.asm
          _hllkrna04_001B   0x000883    program     static Z:\home\dell\frost\frostgpsproject\target.asm
          _hllkrna04_001D   0x000885    program     static Z:\home\dell\frost\frostgpsproject\target.asm
          _hllkrna05_000C   0x0007e4    program     static Z:\home\dell\frost\frostgpsproject\target.asm
          _hllkrna05_000E   0x0007e6    program     static Z:\home\dell\frost\frostgpsproject\target.asm
          _hllkrna05_001B   0x0007f3    program     static Z:\home\dell\frost\frostgpsproject\target.asm
          _hllkrna05_001D   0x0007f5    program     static Z:\home\dell\frost\frostgpsproject\target.asm
                      add   0x000922    program     static Z:\home\dell\frost\frostgpsproject\target.asm
                     addf   0x000400    program     static Z:\home\dell\frost\frostgpsproject\target.asm
                     andb   0x000932    program     static Z:\home\dell\frost\frostgpsproject\target.asm
                     andu   0x000918    program     static Z:\home\dell\frost\frostgpsproject\target.asm
                    ascii   0x000927    program     static Z:\home\dell\frost\frostgpsproject\target.asm
                 clearbit   0x000743    program     static Z:\home\dell\frost\frostgpsproject\target.asm
                clearbit0   0x00077d    program     static Z:\home\dell\frost\frostgpsproject\target.asm
                  dispose   0x000934    program     static Z:\home\dell\frost\frostgpsproject\target.asm
                     divf   0x000360    program     static Z:\home\dell\frost\frostgpsproject\target.asm
                     divu   0x0007d8    program     static Z:\home\dell\frost\frostgpsproject\target.asm
                    divu0   0x0007ea    program     static Z:\home\dell\frost\frostgpsproject\target.asm
                   dmm445   0x0008d1    program     static Z:\home\dell\frost\frostgpsproject\target.asm
                   dofunc   0x0008d7    program     static Z:\home\dell\frost\frostgpsproject\target.asm
                       eq   0x000910    program     static Z:\home\dell\frost\frostgpsproject\target.asm
                    getch   0x0003ef    program     static Z:\home\dell\frost\frostgpsproject\target.asm
                    geth2   0x0003f4    program     static Z:\home\dell\frost\frostgpsproject\target.asm
                    geth3   0x0003f9    program     static Z:\home\dell\frost\frostgpsproject\target.asm
                    geth4   0x0003f8    program     static Z:\home\dell\frost\frostgpsproject\target.asm
                      geu   0x000889    program     static Z:\home\dell\frost\frostgpsproject\target.asm
                     geu0   0x00089b    program     static Z:\home\dell\frost\frostgpsproject\target.asm
                 hllAAAAA   0x000787    program     static Z:\home\dell\frost\frostgpsproject\target.asm
                 hllABAAA   0x00044d    program     static Z:\home\dell\frost\frostgpsproject\target.asm
                 hllACAAA   0x0004e9    program     static Z:\home\dell\frost\frostgpsproject\target.asm
                 hllADAAA   0x0006a6    program     static Z:\home\dell\frost\frostgpsproject\target.asm
                 hllBAAAA   0x00078d    program     static Z:\home\dell\frost\frostgpsproject\target.asm
                 hllBBAAA   0x000458    program     static Z:\home\dell\frost\frostgpsproject\target.asm
                 hllBCAAA   0x0004f1    program     static Z:\home\dell\frost\frostgpsproject\target.asm
                 hllBDAAA   0x0006ac    program     static Z:\home\dell\frost\frostgpsproject\target.asm
                 hllCAAAA   0x000794    program     static Z:\home\dell\frost\frostgpsproject\target.asm
                 hllCBAAA   0x000459    program     static Z:\home\dell\frost\frostgpsproject\target.asm
                 hllCCAAA   0x0004fb    program     static Z:\home\dell\frost\frostgpsproject\target.asm
                 hllCDAAA   0x0006ae    program     static Z:\home\dell\frost\frostgpsproject\target.asm
                 hllDAAAA   0x00079b    program     static Z:\home\dell\frost\frostgpsproject\target.asm
                 hllDBAAA   0x00045f    program     static Z:\home\dell\frost\frostgpsproject\target.asm
                 hllDCAAA   0x000384    program     static Z:\home\dell\frost\frostgpsproject\target.asm
                 hllDDAAA   0x0006b2    program     static Z:\home\dell\frost\frostgpsproject\target.asm
                 hllEAAAA   0x0007a2    program     static Z:\home\dell\frost\frostgpsproject\target.asm
                 hllEBAAA   0x000461    program     static Z:\home\dell\frost\frostgpsproject\target.asm
                 hllECAAA   0x000390    program     static Z:\home\dell\frost\frostgpsproject\target.asm
                 hllEDAAA   0x0006b3    program     static Z:\home\dell\frost\frostgpsproject\target.asm
                 hllFAAAA   0x0007a9    program     static Z:\home\dell\frost\frostgpsproject\target.asm
                 hllFBAAA   0x000468    program     static Z:\home\dell\frost\frostgpsproject\target.asm
                 hllFCAAA   0x00039a    program     static Z:\home\dell\frost\frostgpsproject\target.asm
                 hllFDAAA   0x0006bc    program     static Z:\home\dell\frost\frostgpsproject\target.asm
                 hllGAAAA   0x0007b0    program     static Z:\home\dell\frost\frostgpsproject\target.asm
                 hllGBAAA   0x00046b    program     static Z:\home\dell\frost\frostgpsproject\target.asm
                 hllGCAAA   0x0003b5    program     static Z:\home\dell\frost\frostgpsproject\target.asm
                 hllGDAAA   0x0006c2    program     static Z:\home\dell\frost\frostgpsproject\target.asm
                 hllHAAAA   0x0007b2    program     static Z:\home\dell\frost\frostgpsproject\target.asm
                 hllHBAAA   0x000477    program     static Z:\home\dell\frost\frostgpsproject\target.asm
                 hllHCAAA   0x0003b7    program     static Z:\home\dell\frost\frostgpsproject\target.asm
                 hllHDAAA   0x0005be    program     static Z:\home\dell\frost\frostgpsproject\target.asm
                hllHDAAA2   0x00061f    program     static Z:\home\dell\frost\frostgpsproject\target.asm
                 hllIAAAA   0x0008a4    program     static Z:\home\dell\frost\frostgpsproject\target.asm
                 hllIBAAA   0x00047a    program     static Z:\home\dell\frost\frostgpsproject\target.asm
                hllIBAAAb   0x0004a8    program     static Z:\home\dell\frost\frostgpsproject\target.asm
                 hllICAAA   0x0003b9    program     static Z:\home\dell\frost\frostgpsproject\target.asm
                 hllJAAAA   0x0008a7    program     static Z:\home\dell\frost\frostgpsproject\target.asm
                 hllJBAAA   0x000483    program     static Z:\home\dell\frost\frostgpsproject\target.asm
                 hllJCAAA   0x0003c6    program     static Z:\home\dell\frost\frostgpsproject\target.asm
                 hllJDAAA   0x00080b    program     static Z:\home\dell\frost\frostgpsproject\target.asm
                 hllKAAAA   0x000716    program     static Z:\home\dell\frost\frostgpsproject\target.asm
                 hllKBAAA   0x00048c    program     static Z:\home\dell\frost\frostgpsproject\target.asm
                 hllKCAAA   0x0003d0    program     static Z:\home\dell\frost\frostgpsproject\target.asm
                 hllKDAAA   0x000816    program     static Z:\home\dell\frost\frostgpsproject\target.asm
                 hllLAAAA   0x00071c    program     static Z:\home\dell\frost\frostgpsproject\target.asm
                 hllLBAAA   0x00048d    program     static Z:\home\dell\frost\frostgpsproject\target.asm
                 hllLCAAA   0x0003d1    program     static Z:\home\dell\frost\frostgpsproject\target.asm
                 hllLDAAA   0x000822    program     static Z:\home\dell\frost\frostgpsproject\target.asm
                 hllMAAAA   0x000723    program     static Z:\home\dell\frost\frostgpsproject\target.asm
                 hllMBAAA   0x00048f    program     static Z:\home\dell\frost\frostgpsproject\target.asm
                 hllMCAAA   0x0003d3    program     static Z:\home\dell\frost\frostgpsproject\target.asm
                 hllMDAAA   0x00082f    program     static Z:\home\dell\frost\frostgpsproject\target.asm
                 hllNAAAA   0x00072a    program     static Z:\home\dell\frost\frostgpsproject\target.asm
                 hllNBAAA   0x000496    program     static Z:\home\dell\frost\frostgpsproject\target.asm
                 hllNCAAA   0x0003d4    program     static Z:\home\dell\frost\frostgpsproject\target.asm
                 hllNDAAA   0x00083d    program     static Z:\home\dell\frost\frostgpsproject\target.asm
                 hllOAAAA   0x000731    program     static Z:\home\dell\frost\frostgpsproject\target.asm
                 hllOBAAA   0x000499    program     static Z:\home\dell\frost\frostgpsproject\target.asm
                 hllOCAAA   0x0003d5    program     static Z:\home\dell\frost\frostgpsproject\target.asm
                 hllODAAA   0x00084c    program     static Z:\home\dell\frost\frostgpsproject\target.asm
                 hllPAAAA   0x000738    program     static Z:\home\dell\frost\frostgpsproject\target.asm
                 hllPBAAA   0x0004a5    program     static Z:\home\dell\frost\frostgpsproject\target.asm
                 hllPCAAA   0x0003de    program     static Z:\home\dell\frost\frostgpsproject\target.asm
                 hllPDAAA   0x00085c    program     static Z:\home\dell\frost\frostgpsproject\target.asm
                 hllQAAAA   0x00073f    program     static Z:\home\dell\frost\frostgpsproject\target.asm
                 hllQCAAA   0x0003e4    program     static Z:\home\dell\frost\frostgpsproject\target.asm
                 hllQDAAA   0x000863    program     static Z:\home\dell\frost\frostgpsproject\target.asm
                 hllRAAAA   0x000741    program     static Z:\home\dell\frost\frostgpsproject\target.asm
                 hllRBAAA   0x0004b1    program     static Z:\home\dell\frost\frostgpsproject\target.asm
                 hllRCAAA   0x0003e6    program     static Z:\home\dell\frost\frostgpsproject\target.asm
                 hllRDAAA   0x000867    program     static Z:\home\dell\frost\frostgpsproject\target.asm
                 hllSAAAA   0x000418    program     static Z:\home\dell\frost\frostgpsproject\target.asm
                 hllSBAAA   0x0004ba    program     static Z:\home\dell\frost\frostgpsproject\target.asm
                 hllSCAAA   0x0003e9    program     static Z:\home\dell\frost\frostgpsproject\target.asm
                 hllTAAAA   0x00041c    program     static Z:\home\dell\frost\frostgpsproject\target.asm
                 hllTBAAA   0x0004bb    program     static Z:\home\dell\frost\frostgpsproject\target.asm
                 hllTCAAA   0x00065c    program     static Z:\home\dell\frost\frostgpsproject\target.asm
                 hllUAAAA   0x00041d    program     static Z:\home\dell\frost\frostgpsproject\target.asm
                 hllUBAAA   0x0004c0    program     static Z:\home\dell\frost\frostgpsproject\target.asm
                 hllUCAAA   0x00066d    program     static Z:\home\dell\frost\frostgpsproject\target.asm
                 hllVAAAA   0x00041f    program     static Z:\home\dell\frost\frostgpsproject\target.asm
                 hllVBAAA   0x0004c7    program     static Z:\home\dell\frost\frostgpsproject\target.asm
                 hllVCAAA   0x00067f    program     static Z:\home\dell\frost\frostgpsproject\target.asm
                 hllWAAAA   0x00042d    program     static Z:\home\dell\frost\frostgpsproject\target.asm
            hllWAAAA_done   0x00042e    program     static Z:\home\dell\frost\frostgpsproject\target.asm
                 hllWBAAA   0x0004cf    program     static Z:\home\dell\frost\frostgpsproject\target.asm
                 hllWCAAA   0x00068b    program     static Z:\home\dell\frost\frostgpsproject\target.asm
                 hllXBAAA   0x0004d4    program     static Z:\home\dell\frost\frostgpsproject\target.asm
                 hllXCAAA   0x000699    program     static Z:\home\dell\frost\frostgpsproject\target.asm
                 hllYAAAA   0x000442    program     static Z:\home\dell\frost\frostgpsproject\target.asm
                 hllYBAAA   0x0004df    program     static Z:\home\dell\frost\frostgpsproject\target.asm
                 hllYCAAA   0x0006a1    program     static Z:\home\dell\frost\frostgpsproject\target.asm
                 hllZAAAA   0x00044b    program     static Z:\home\dell\frost\frostgpsproject\target.asm
                 hllZBAAA   0x0004e7    program     static Z:\home\dell\frost\frostgpsproject\target.asm
                 hllZCAAA   0x0006a3    program     static Z:\home\dell\frost\frostgpsproject\target.asm
                hlllb51J0   0x000070    program     static Z:\home\dell\frost\frostgpsproject\target.asm
                hlllb51J1   0x000070    program     static Z:\home\dell\frost\frostgpsproject\target.asm
               hlllb51J10   0x00058f    program     static Z:\home\dell\frost\frostgpsproject\target.asm
               hlllb51J11   0x0005aa    program     static Z:\home\dell\frost\frostgpsproject\target.asm
               hlllb51J13   0x000201    program     static Z:\home\dell\frost\frostgpsproject\target.asm
               hlllb51J14   0x000211    program     static Z:\home\dell\frost\frostgpsproject\target.asm
                hlllb51J4   0x00058e    program     static Z:\home\dell\frost\frostgpsproject\target.asm
                hlllb51J5   0x00058e    program     static Z:\home\dell\frost\frostgpsproject\target.asm
                hlllb51J6   0x000568    program     static Z:\home\dell\frost\frostgpsproject\target.asm
                hlllb51J7   0x00058e    program     static Z:\home\dell\frost\frostgpsproject\target.asm
                hlllb51J8   0x00054e    program     static Z:\home\dell\frost\frostgpsproject\target.asm
                hlllb51J9   0x00058e    program     static Z:\home\dell\frost\frostgpsproject\target.asm
              hllnotisr49   0x000070    program     static Z:\home\dell\frost\frostgpsproject\target.asm
                hllprgen2   0x000213    program     static Z:\home\dell\frost\frostgpsproject\target.asm
               hllprogend   0x00035f    program     static Z:\home\dell\frost\frostgpsproject\target.asm
              hlluserprog   0x000214    program     static Z:\home\dell\frost\frostgpsproject\target.asm
                   hloego   0x0008fa    program     static Z:\home\dell\frost\frostgpsproject\target.asm
                  iszerof   0x0008eb    program     static Z:\home\dell\frost\frostgpsproject\target.asm
                     kpop   0x000938    program     static Z:\home\dell\frost\frostgpsproject\target.asm
                    kpush   0x000936    program     static Z:\home\dell\frost\frostgpsproject\target.asm
                   kspox5   0x0008c8    program     static Z:\home\dell\frost\frostgpsproject\target.asm
                 mainloop   0x00092b    program     static Z:\home\dell\frost\frostgpsproject\target.asm
                     modu   0x000868    program     static Z:\home\dell\frost\frostgpsproject\target.asm
                    modu0   0x00087a    program     static Z:\home\dell\frost\frostgpsproject\target.asm
                      mul   0x0008aa    program     static Z:\home\dell\frost\frostgpsproject\target.asm
                     mul0   0x0008b7    program     static Z:\home\dell\frost\frostgpsproject\target.asm
                     mulf   0x000652    program     static Z:\home\dell\frost\frostgpsproject\target.asm
                    mxhbl   0x000895    program     static Z:\home\dell\frost\frostgpsproject\target.asm
                    mxhbm   0x000898    program     static Z:\home\dell\frost\frostgpsproject\target.asm
                     nbnb   0x0007fe    program     static Z:\home\dell\frost\frostgpsproject\target.asm
                     ncnc   0x0007ff    program     static Z:\home\dell\frost\frostgpsproject\target.asm
                    negti   0x00092f    program     static Z:\home\dell\frost\frostgpsproject\target.asm
                    nonzf   0x0008f6    program     static Z:\home\dell\frost\frostgpsproject\target.asm
                    nonzg   0x0008f7    program     static Z:\home\dell\frost\frostgpsproject\target.asm
                    nonzr   0x0008f8    program     static Z:\home\dell\frost\frostgpsproject\target.asm
                     notb   0x0007f9    program     static Z:\home\dell\frost\frostgpsproject\target.asm
                      oru   0x00091d    program     static Z:\home\dell\frost\frostgpsproject\target.asm
                     parm   0x0007b4    program     static Z:\home\dell\frost\frostgpsproject\target.asm
                    parm4   0x0007c8    program     static Z:\home\dell\frost\frostgpsproject\target.asm
                  printch   0x000906    program     static Z:\home\dell\frost\frostgpsproject\target.asm
                   printf   0x0005ac    program     static Z:\home\dell\frost\frostgpsproject\target.asm
                    purge   0x000074    program     static Z:\home\dell\frost\frostgpsproject\target.asm
                  receive   0x0004fc    program     static Z:\home\dell\frost\frostgpsproject\target.asm
                 safepush   0x0008c1    program     static Z:\home\dell\frost\frostgpsproject\target.asm
                   setbit   0x0006d2    program     static Z:\home\dell\frost\frostgpsproject\target.asm
                  setbit0   0x00070c    program     static Z:\home\dell\frost\frostgpsproject\target.asm
                  sperr11   0x0008cf    program     static Z:\home\dell\frost\frostgpsproject\target.asm
                   tcf00h   0x0006df    program     static Z:\home\dell\frost\frostgpsproject\target.asm
                   tcf01h   0x0006e5    program     static Z:\home\dell\frost\frostgpsproject\target.asm
                   tcf02h   0x0006ec    program     static Z:\home\dell\frost\frostgpsproject\target.asm
                   tcf03h   0x0006f3    program     static Z:\home\dell\frost\frostgpsproject\target.asm
                   tcf04h   0x0006fa    program     static Z:\home\dell\frost\frostgpsproject\target.asm
                   tcf05h   0x000701    program     static Z:\home\dell\frost\frostgpsproject\target.asm
                   tcf07h   0x000708    program     static Z:\home\dell\frost\frostgpsproject\target.asm
                   tcf99h   0x00070a    program     static Z:\home\dell\frost\frostgpsproject\target.asm
                   tff00h   0x000750    program     static Z:\home\dell\frost\frostgpsproject\target.asm
                   tff01h   0x000756    program     static Z:\home\dell\frost\frostgpsproject\target.asm
                   tff02h   0x00075d    program     static Z:\home\dell\frost\frostgpsproject\target.asm
                   tff03h   0x000764    program     static Z:\home\dell\frost\frostgpsproject\target.asm
                   tff04h   0x00076b    program     static Z:\home\dell\frost\frostgpsproject\target.asm
                   tff05h   0x000772    program     static Z:\home\dell\frost\frostgpsproject\target.asm
                   tff07h   0x000779    program     static Z:\home\dell\frost\frostgpsproject\target.asm
                   tff99h   0x00077b    program     static Z:\home\dell\frost\frostgpsproject\target.asm
                     utof   0x000800    program     static Z:\home\dell\frost\frostgpsproject\target.asm
                 ALT_Save   0x00007a       data     static Z:\home\dell\frost\frostgpsproject\target.asm
                 FSR_Save   0x000079       data     static Z:\home\dell\frost\frostgpsproject\target.asm
              STATUS_Save   0x000078       data     static Z:\home\dell\frost\frostgpsproject\target.asm
                   W_Save   0x000077       data     static Z:\home\dell\frost\frostgpsproject\target.asm
                  alt_fsr   0x000076       data     static Z:\home\dell\frost\frostgpsproject\target.asm
                alt_stack   0x000220       data     static Z:\home\dell\frost\frostgpsproject\target.asm
                hllblss00   0x000248       data     static Z:\home\dell\frost\frostgpsproject\target.asm
             hllblss00isr   0x000249       data     static Z:\home\dell\frost\frostgpsproject\target.asm
                hllblss01   0x00024a       data     static Z:\home\dell\frost\frostgpsproject\target.asm
             hllblss01isr   0x00024b       data     static Z:\home\dell\frost\frostgpsproject\target.asm
                hllblss02   0x00024c       data     static Z:\home\dell\frost\frostgpsproject\target.asm
             hllblss02isr   0x00024d       data     static Z:\home\dell\frost\frostgpsproject\target.asm
                hllisglll   0x0000be       data     static Z:\home\dell\frost\frostgpsproject\target.asm
              hlllatdegbl   0x0000bc       data     static Z:\home\dell\frost\frostgpsproject\target.asm
               hlllatdegl   0x0000bd       data     static Z:\home\dell\frost\frostgpsproject\target.asm
              hlllatminbl   0x0000ba       data     static Z:\home\dell\frost\frostgpsproject\target.asm
               hlllatminl   0x0000bb       data     static Z:\home\dell\frost\frostgpsproject\target.asm
           hlllatsubminbl   0x0000b8       data     static Z:\home\dell\frost\frostgpsproject\target.asm
            hlllatsubminl   0x0000b9       data     static Z:\home\dell\frost\frostgpsproject\target.asm
               hllscalerl   0x0000b7       data     static Z:\home\dell\frost\frostgpsproject\target.asm
                 hllstorl   0x0000b6       data     static Z:\home\dell\frost\frostgpsproject\target.asm
                hlltempbl   0x00024e       data     static Z:\home\dell\frost\frostgpsproject\target.asm
                 hlltempl   0x00024f       data     static Z:\home\dell\frost\frostgpsproject\target.asm
                   in_isr   0x00007b       data     static Z:\home\dell\frost\frostgpsproject\target.asm
                    pbase   0x00007c       data     static Z:\home\dell\frost\frostgpsproject\target.asm
                 pbaseisr   0x00007d       data     static Z:\home\dell\frost\frostgpsproject\target.asm
                 sfpaux00   0x0000a1       data     static Z:\home\dell\frost\frostgpsproject\target.asm
                 sfpaux01   0x0000a3       data     static Z:\home\dell\frost\frostgpsproject\target.asm
                 sfpaux02   0x0000a5       data     static Z:\home\dell\frost\frostgpsproject\target.asm
                 sfpaux03   0x0000a7       data     static Z:\home\dell\frost\frostgpsproject\target.asm
                 sfploc00   0x0000a0       data     static Z:\home\dell\frost\frostgpsproject\target.asm
                 sfploc01   0x0000a2       data     static Z:\home\dell\frost\frostgpsproject\target.asm
                 sfploc02   0x0000a4       data     static Z:\home\dell\frost\frostgpsproject\target.asm
                 sfploc03   0x0000a6       data     static Z:\home\dell\frost\frostgpsproject\target.asm
                 sfploc04   0x0000a8       data     static Z:\home\dell\frost\frostgpsproject\target.asm
                 sfploc05   0x0000a9       data     static Z:\home\dell\frost\frostgpsproject\target.asm
                 sfploc06   0x0000aa       data     static Z:\home\dell\frost\frostgpsproject\target.asm
                 sfploc07   0x0000ab       data     static Z:\home\dell\frost\frostgpsproject\target.asm
                 sfploc08   0x0000ac       data     static Z:\home\dell\frost\frostgpsproject\target.asm
                 sfploc09   0x0000ad       data     static Z:\home\dell\frost\frostgpsproject\target.asm
                 sfploc10   0x0000ae       data     static Z:\home\dell\frost\frostgpsproject\target.asm
                 sfploc11   0x0000af       data     static Z:\home\dell\frost\frostgpsproject\target.asm
                 sfploc12   0x0000b0       data     static Z:\home\dell\frost\frostgpsproject\target.asm
                 sfploc13   0x0000b1       data     static Z:\home\dell\frost\frostgpsproject\target.asm
                 sfploc14   0x0000b2       data     static Z:\home\dell\frost\frostgpsproject\target.asm
                 sfploc15   0x0000b3       data     static Z:\home\dell\frost\frostgpsproject\target.asm
                 sfploc16   0x0000b4       data     static Z:\home\dell\frost\frostgpsproject\target.asm
                 sfploc17   0x0000b5       data     static Z:\home\dell\frost\frostgpsproject\target.asm
               softstack0   0x000070       data     static Z:\home\dell\frost\frostgpsproject\target.asm
            softstack0isr   0x000071       data     static Z:\home\dell\frost\frostgpsproject\target.asm
               softstack1   0x000072       data     static Z:\home\dell\frost\frostgpsproject\target.asm
            softstack1isr   0x000073       data     static Z:\home\dell\frost\frostgpsproject\target.asm
               softstack2   0x000074       data     static Z:\home\dell\frost\frostgpsproject\target.asm
            softstack2isr   0x000075       data     static Z:\home\dell\frost\frostgpsproject\target.asm
                    stack   0x000020       data     static Z:\home\dell\frost\frostgpsproject\target.asm



                              Symbols - Sorted by Address
                     Name    Address   Location    Storage File                     
                ---------  ---------  ---------  --------- ---------                
                      ISR   0x000004    program     static Z:\home\dell\frost\frostgpsproject\target.asm
                  ExitISR   0x000070    program     static Z:\home\dell\frost\frostgpsproject\target.asm
              hllnotisr49   0x000070    program     static Z:\home\dell\frost\frostgpsproject\target.asm
                hlllb51J1   0x000070    program     static Z:\home\dell\frost\frostgpsproject\target.asm
                hlllb51J0   0x000070    program     static Z:\home\dell\frost\frostgpsproject\target.asm
                    purge   0x000074    program     static Z:\home\dell\frost\frostgpsproject\target.asm
               hlllb51J13   0x000201    program     static Z:\home\dell\frost\frostgpsproject\target.asm
               hlllb51J14   0x000211    program     static Z:\home\dell\frost\frostgpsproject\target.asm
                hllprgen2   0x000213    program     static Z:\home\dell\frost\frostgpsproject\target.asm
              hlluserprog   0x000214    program     static Z:\home\dell\frost\frostgpsproject\target.asm
               hllprogend   0x00035f    program     static Z:\home\dell\frost\frostgpsproject\target.asm
                     divf   0x000360    program     static Z:\home\dell\frost\frostgpsproject\target.asm
                 hllDCAAA   0x000384    program     static Z:\home\dell\frost\frostgpsproject\target.asm
                 hllECAAA   0x000390    program     static Z:\home\dell\frost\frostgpsproject\target.asm
                 hllFCAAA   0x00039a    program     static Z:\home\dell\frost\frostgpsproject\target.asm
                 hllGCAAA   0x0003b5    program     static Z:\home\dell\frost\frostgpsproject\target.asm
                 hllHCAAA   0x0003b7    program     static Z:\home\dell\frost\frostgpsproject\target.asm
                 hllICAAA   0x0003b9    program     static Z:\home\dell\frost\frostgpsproject\target.asm
                 hllJCAAA   0x0003c6    program     static Z:\home\dell\frost\frostgpsproject\target.asm
                 hllKCAAA   0x0003d0    program     static Z:\home\dell\frost\frostgpsproject\target.asm
                 hllLCAAA   0x0003d1    program     static Z:\home\dell\frost\frostgpsproject\target.asm
                 hllMCAAA   0x0003d3    program     static Z:\home\dell\frost\frostgpsproject\target.asm
                 hllNCAAA   0x0003d4    program     static Z:\home\dell\frost\frostgpsproject\target.asm
                 hllOCAAA   0x0003d5    program     static Z:\home\dell\frost\frostgpsproject\target.asm
                 hllPCAAA   0x0003de    program     static Z:\home\dell\frost\frostgpsproject\target.asm
                 hllQCAAA   0x0003e4    program     static Z:\home\dell\frost\frostgpsproject\target.asm
                 hllRCAAA   0x0003e6    program     static Z:\home\dell\frost\frostgpsproject\target.asm
                 hllSCAAA   0x0003e9    program     static Z:\home\dell\frost\frostgpsproject\target.asm
                    getch   0x0003ef    program     static Z:\home\dell\frost\frostgpsproject\target.asm
                    geth2   0x0003f4    program     static Z:\home\dell\frost\frostgpsproject\target.asm
                    geth4   0x0003f8    program     static Z:\home\dell\frost\frostgpsproject\target.asm
                    geth3   0x0003f9    program     static Z:\home\dell\frost\frostgpsproject\target.asm
                     addf   0x000400    program     static Z:\home\dell\frost\frostgpsproject\target.asm
                 hllSAAAA   0x000418    program     static Z:\home\dell\frost\frostgpsproject\target.asm
                 hllTAAAA   0x00041c    program     static Z:\home\dell\frost\frostgpsproject\target.asm
                 hllUAAAA   0x00041d    program     static Z:\home\dell\frost\frostgpsproject\target.asm
                 hllVAAAA   0x00041f    program     static Z:\home\dell\frost\frostgpsproject\target.asm
                 hllWAAAA   0x00042d    program     static Z:\home\dell\frost\frostgpsproject\target.asm
            hllWAAAA_done   0x00042e    program     static Z:\home\dell\frost\frostgpsproject\target.asm
                 hllYAAAA   0x000442    program     static Z:\home\dell\frost\frostgpsproject\target.asm
                 hllZAAAA   0x00044b    program     static Z:\home\dell\frost\frostgpsproject\target.asm
                 hllABAAA   0x00044d    program     static Z:\home\dell\frost\frostgpsproject\target.asm
                 hllBBAAA   0x000458    program     static Z:\home\dell\frost\frostgpsproject\target.asm
                 hllCBAAA   0x000459    program     static Z:\home\dell\frost\frostgpsproject\target.asm
                 hllDBAAA   0x00045f    program     static Z:\home\dell\frost\frostgpsproject\target.asm
                 hllEBAAA   0x000461    program     static Z:\home\dell\frost\frostgpsproject\target.asm
                 hllFBAAA   0x000468    program     static Z:\home\dell\frost\frostgpsproject\target.asm
                 hllGBAAA   0x00046b    program     static Z:\home\dell\frost\frostgpsproject\target.asm
                 hllHBAAA   0x000477    program     static Z:\home\dell\frost\frostgpsproject\target.asm
                 hllIBAAA   0x00047a    program     static Z:\home\dell\frost\frostgpsproject\target.asm
                 hllJBAAA   0x000483    program     static Z:\home\dell\frost\frostgpsproject\target.asm
                 hllKBAAA   0x00048c    program     static Z:\home\dell\frost\frostgpsproject\target.asm
                 hllLBAAA   0x00048d    program     static Z:\home\dell\frost\frostgpsproject\target.asm
                 hllMBAAA   0x00048f    program     static Z:\home\dell\frost\frostgpsproject\target.asm
                 hllNBAAA   0x000496    program     static Z:\home\dell\frost\frostgpsproject\target.asm
                 hllOBAAA   0x000499    program     static Z:\home\dell\frost\frostgpsproject\target.asm
                 hllPBAAA   0x0004a5    program     static Z:\home\dell\frost\frostgpsproject\target.asm
                hllIBAAAb   0x0004a8    program     static Z:\home\dell\frost\frostgpsproject\target.asm
                 hllRBAAA   0x0004b1    program     static Z:\home\dell\frost\frostgpsproject\target.asm
                 hllSBAAA   0x0004ba    program     static Z:\home\dell\frost\frostgpsproject\target.asm
                 hllTBAAA   0x0004bb    program     static Z:\home\dell\frost\frostgpsproject\target.asm
                 hllUBAAA   0x0004c0    program     static Z:\home\dell\frost\frostgpsproject\target.asm
                 hllVBAAA   0x0004c7    program     static Z:\home\dell\frost\frostgpsproject\target.asm
                 hllWBAAA   0x0004cf    program     static Z:\home\dell\frost\frostgpsproject\target.asm
                 hllXBAAA   0x0004d4    program     static Z:\home\dell\frost\frostgpsproject\target.asm
                 hllYBAAA   0x0004df    program     static Z:\home\dell\frost\frostgpsproject\target.asm
                 hllZBAAA   0x0004e7    program     static Z:\home\dell\frost\frostgpsproject\target.asm
                 hllACAAA   0x0004e9    program     static Z:\home\dell\frost\frostgpsproject\target.asm
                 hllBCAAA   0x0004f1    program     static Z:\home\dell\frost\frostgpsproject\target.asm
                 hllCCAAA   0x0004fb    program     static Z:\home\dell\frost\frostgpsproject\target.asm
                  receive   0x0004fc    program     static Z:\home\dell\frost\frostgpsproject\target.asm
                hlllb51J8   0x00054e    program     static Z:\home\dell\frost\frostgpsproject\target.asm
                hlllb51J6   0x000568    program     static Z:\home\dell\frost\frostgpsproject\target.asm
                hlllb51J9   0x00058e    program     static Z:\home\dell\frost\frostgpsproject\target.asm
                hlllb51J7   0x00058e    program     static Z:\home\dell\frost\frostgpsproject\target.asm
                hlllb51J5   0x00058e    program     static Z:\home\dell\frost\frostgpsproject\target.asm
                hlllb51J4   0x00058e    program     static Z:\home\dell\frost\frostgpsproject\target.asm
               hlllb51J10   0x00058f    program     static Z:\home\dell\frost\frostgpsproject\target.asm
               hlllb51J11   0x0005aa    program     static Z:\home\dell\frost\frostgpsproject\target.asm
                   printf   0x0005ac    program     static Z:\home\dell\frost\frostgpsproject\target.asm
                 hllHDAAA   0x0005be    program     static Z:\home\dell\frost\frostgpsproject\target.asm
                hllHDAAA2   0x00061f    program     static Z:\home\dell\frost\frostgpsproject\target.asm
                     mulf   0x000652    program     static Z:\home\dell\frost\frostgpsproject\target.asm
                 hllTCAAA   0x00065c    program     static Z:\home\dell\frost\frostgpsproject\target.asm
                 hllUCAAA   0x00066d    program     static Z:\home\dell\frost\frostgpsproject\target.asm
                 hllVCAAA   0x00067f    program     static Z:\home\dell\frost\frostgpsproject\target.asm
                 hllWCAAA   0x00068b    program     static Z:\home\dell\frost\frostgpsproject\target.asm
                 hllXCAAA   0x000699    program     static Z:\home\dell\frost\frostgpsproject\target.asm
                 hllYCAAA   0x0006a1    program     static Z:\home\dell\frost\frostgpsproject\target.asm
                 hllZCAAA   0x0006a3    program     static Z:\home\dell\frost\frostgpsproject\target.asm
                 hllADAAA   0x0006a6    program     static Z:\home\dell\frost\frostgpsproject\target.asm
                 hllBDAAA   0x0006ac    program     static Z:\home\dell\frost\frostgpsproject\target.asm
                 hllCDAAA   0x0006ae    program     static Z:\home\dell\frost\frostgpsproject\target.asm
                 hllDDAAA   0x0006b2    program     static Z:\home\dell\frost\frostgpsproject\target.asm
                 hllEDAAA   0x0006b3    program     static Z:\home\dell\frost\frostgpsproject\target.asm
                 hllFDAAA   0x0006bc    program     static Z:\home\dell\frost\frostgpsproject\target.asm
                 hllGDAAA   0x0006c2    program     static Z:\home\dell\frost\frostgpsproject\target.asm
                   setbit   0x0006d2    program     static Z:\home\dell\frost\frostgpsproject\target.asm
                   tcf00h   0x0006df    program     static Z:\home\dell\frost\frostgpsproject\target.asm
                   tcf01h   0x0006e5    program     static Z:\home\dell\frost\frostgpsproject\target.asm
                   tcf02h   0x0006ec    program     static Z:\home\dell\frost\frostgpsproject\target.asm
                   tcf03h   0x0006f3    program     static Z:\home\dell\frost\frostgpsproject\target.asm
                   tcf04h   0x0006fa    program     static Z:\home\dell\frost\frostgpsproject\target.asm
                   tcf05h   0x000701    program     static Z:\home\dell\frost\frostgpsproject\target.asm
                   tcf07h   0x000708    program     static Z:\home\dell\frost\frostgpsproject\target.asm
                   tcf99h   0x00070a    program     static Z:\home\dell\frost\frostgpsproject\target.asm
                  setbit0   0x00070c    program     static Z:\home\dell\frost\frostgpsproject\target.asm
                 hllKAAAA   0x000716    program     static Z:\home\dell\frost\frostgpsproject\target.asm
                 hllLAAAA   0x00071c    program     static Z:\home\dell\frost\frostgpsproject\target.asm
                 hllMAAAA   0x000723    program     static Z:\home\dell\frost\frostgpsproject\target.asm
                 hllNAAAA   0x00072a    program     static Z:\home\dell\frost\frostgpsproject\target.asm
                 hllOAAAA   0x000731    program     static Z:\home\dell\frost\frostgpsproject\target.asm
                 hllPAAAA   0x000738    program     static Z:\home\dell\frost\frostgpsproject\target.asm
                 hllQAAAA   0x00073f    program     static Z:\home\dell\frost\frostgpsproject\target.asm
                 hllRAAAA   0x000741    program     static Z:\home\dell\frost\frostgpsproject\target.asm
                 clearbit   0x000743    program     static Z:\home\dell\frost\frostgpsproject\target.asm
                   tff00h   0x000750    program     static Z:\home\dell\frost\frostgpsproject\target.asm
                   tff01h   0x000756    program     static Z:\home\dell\frost\frostgpsproject\target.asm
                   tff02h   0x00075d    program     static Z:\home\dell\frost\frostgpsproject\target.asm
                   tff03h   0x000764    program     static Z:\home\dell\frost\frostgpsproject\target.asm
                   tff04h   0x00076b    program     static Z:\home\dell\frost\frostgpsproject\target.asm
                   tff05h   0x000772    program     static Z:\home\dell\frost\frostgpsproject\target.asm
                   tff07h   0x000779    program     static Z:\home\dell\frost\frostgpsproject\target.asm
                   tff99h   0x00077b    program     static Z:\home\dell\frost\frostgpsproject\target.asm
                clearbit0   0x00077d    program     static Z:\home\dell\frost\frostgpsproject\target.asm
                 hllAAAAA   0x000787    program     static Z:\home\dell\frost\frostgpsproject\target.asm
                 hllBAAAA   0x00078d    program     static Z:\home\dell\frost\frostgpsproject\target.asm
                 hllCAAAA   0x000794    program     static Z:\home\dell\frost\frostgpsproject\target.asm
                 hllDAAAA   0x00079b    program     static Z:\home\dell\frost\frostgpsproject\target.asm
                 hllEAAAA   0x0007a2    program     static Z:\home\dell\frost\frostgpsproject\target.asm
                 hllFAAAA   0x0007a9    program     static Z:\home\dell\frost\frostgpsproject\target.asm
                 hllGAAAA   0x0007b0    program     static Z:\home\dell\frost\frostgpsproject\target.asm
                 hllHAAAA   0x0007b2    program     static Z:\home\dell\frost\frostgpsproject\target.asm
                     parm   0x0007b4    program     static Z:\home\dell\frost\frostgpsproject\target.asm
                    parm4   0x0007c8    program     static Z:\home\dell\frost\frostgpsproject\target.asm
                     divu   0x0007d8    program     static Z:\home\dell\frost\frostgpsproject\target.asm
          _hllkrna05_000C   0x0007e4    program     static Z:\home\dell\frost\frostgpsproject\target.asm
          _hllkrna05_000E   0x0007e6    program     static Z:\home\dell\frost\frostgpsproject\target.asm
                    divu0   0x0007ea    program     static Z:\home\dell\frost\frostgpsproject\target.asm
          _hllkrna05_001B   0x0007f3    program     static Z:\home\dell\frost\frostgpsproject\target.asm
          _hllkrna05_001D   0x0007f5    program     static Z:\home\dell\frost\frostgpsproject\target.asm
                     notb   0x0007f9    program     static Z:\home\dell\frost\frostgpsproject\target.asm
                     nbnb   0x0007fe    program     static Z:\home\dell\frost\frostgpsproject\target.asm
                     ncnc   0x0007ff    program     static Z:\home\dell\frost\frostgpsproject\target.asm
                     utof   0x000800    program     static Z:\home\dell\frost\frostgpsproject\target.asm
                 hllJDAAA   0x00080b    program     static Z:\home\dell\frost\frostgpsproject\target.asm
                 hllKDAAA   0x000816    program     static Z:\home\dell\frost\frostgpsproject\target.asm
                 hllLDAAA   0x000822    program     static Z:\home\dell\frost\frostgpsproject\target.asm
                 hllMDAAA   0x00082f    program     static Z:\home\dell\frost\frostgpsproject\target.asm
                 hllNDAAA   0x00083d    program     static Z:\home\dell\frost\frostgpsproject\target.asm
                 hllODAAA   0x00084c    program     static Z:\home\dell\frost\frostgpsproject\target.asm
                 hllPDAAA   0x00085c    program     static Z:\home\dell\frost\frostgpsproject\target.asm
                 hllQDAAA   0x000863    program     static Z:\home\dell\frost\frostgpsproject\target.asm
                 hllRDAAA   0x000867    program     static Z:\home\dell\frost\frostgpsproject\target.asm
                     modu   0x000868    program     static Z:\home\dell\frost\frostgpsproject\target.asm
          _hllkrna04_000C   0x000874    program     static Z:\home\dell\frost\frostgpsproject\target.asm
          _hllkrna04_000E   0x000876    program     static Z:\home\dell\frost\frostgpsproject\target.asm
                    modu0   0x00087a    program     static Z:\home\dell\frost\frostgpsproject\target.asm
          _hllkrna04_001B   0x000883    program     static Z:\home\dell\frost\frostgpsproject\target.asm
          _hllkrna04_001D   0x000885    program     static Z:\home\dell\frost\frostgpsproject\target.asm
                      geu   0x000889    program     static Z:\home\dell\frost\frostgpsproject\target.asm
                    mxhbl   0x000895    program     static Z:\home\dell\frost\frostgpsproject\target.asm
                    mxhbm   0x000898    program     static Z:\home\dell\frost\frostgpsproject\target.asm
                     geu0   0x00089b    program     static Z:\home\dell\frost\frostgpsproject\target.asm
                 hllIAAAA   0x0008a4    program     static Z:\home\dell\frost\frostgpsproject\target.asm
                 hllJAAAA   0x0008a7    program     static Z:\home\dell\frost\frostgpsproject\target.asm
                      mul   0x0008aa    program     static Z:\home\dell\frost\frostgpsproject\target.asm
          _hllkrna00_000A   0x0008b4    program     static Z:\home\dell\frost\frostgpsproject\target.asm
                     mul0   0x0008b7    program     static Z:\home\dell\frost\frostgpsproject\target.asm
          _hllkrna00_0014   0x0008be    program     static Z:\home\dell\frost\frostgpsproject\target.asm
                 safepush   0x0008c1    program     static Z:\home\dell\frost\frostgpsproject\target.asm
                   kspox5   0x0008c8    program     static Z:\home\dell\frost\frostgpsproject\target.asm
                  sperr11   0x0008cf    program     static Z:\home\dell\frost\frostgpsproject\target.asm
                   dmm445   0x0008d1    program     static Z:\home\dell\frost\frostgpsproject\target.asm
                   dofunc   0x0008d7    program     static Z:\home\dell\frost\frostgpsproject\target.asm
                  iszerof   0x0008eb    program     static Z:\home\dell\frost\frostgpsproject\target.asm
                    nonzf   0x0008f6    program     static Z:\home\dell\frost\frostgpsproject\target.asm
                    nonzg   0x0008f7    program     static Z:\home\dell\frost\frostgpsproject\target.asm
                    nonzr   0x0008f8    program     static Z:\home\dell\frost\frostgpsproject\target.asm
                   hloego   0x0008fa    program     static Z:\home\dell\frost\frostgpsproject\target.asm
                  printch   0x000906    program     static Z:\home\dell\frost\frostgpsproject\target.asm
          _hllkrna03_0003   0x000909    program     static Z:\home\dell\frost\frostgpsproject\target.asm
          _hllkrna03_0008   0x00090e    program     static Z:\home\dell\frost\frostgpsproject\target.asm
                       eq   0x000910    program     static Z:\home\dell\frost\frostgpsproject\target.asm
                     andu   0x000918    program     static Z:\home\dell\frost\frostgpsproject\target.asm
                      oru   0x00091d    program     static Z:\home\dell\frost\frostgpsproject\target.asm
                      add   0x000922    program     static Z:\home\dell\frost\frostgpsproject\target.asm
                    ascii   0x000927    program     static Z:\home\dell\frost\frostgpsproject\target.asm
                 mainloop   0x00092b    program     static Z:\home\dell\frost\frostgpsproject\target.asm
                    negti   0x00092f    program     static Z:\home\dell\frost\frostgpsproject\target.asm
                     andb   0x000932    program     static Z:\home\dell\frost\frostgpsproject\target.asm
                  dispose   0x000934    program     static Z:\home\dell\frost\frostgpsproject\target.asm
                    kpush   0x000936    program     static Z:\home\dell\frost\frostgpsproject\target.asm
                     kpop   0x000938    program     static Z:\home\dell\frost\frostgpsproject\target.asm
                    stack   0x000020       data     static Z:\home\dell\frost\frostgpsproject\target.asm
               softstack0   0x000070       data     static Z:\home\dell\frost\frostgpsproject\target.asm
            softstack0isr   0x000071       data     static Z:\home\dell\frost\frostgpsproject\target.asm
               softstack1   0x000072       data     static Z:\home\dell\frost\frostgpsproject\target.asm
            softstack1isr   0x000073       data     static Z:\home\dell\frost\frostgpsproject\target.asm
               softstack2   0x000074       data     static Z:\home\dell\frost\frostgpsproject\target.asm
            softstack2isr   0x000075       data     static Z:\home\dell\frost\frostgpsproject\target.asm
                  alt_fsr   0x000076       data     static Z:\home\dell\frost\frostgpsproject\target.asm
                   W_Save   0x000077       data     static Z:\home\dell\frost\frostgpsproject\target.asm
              STATUS_Save   0x000078       data     static Z:\home\dell\frost\frostgpsproject\target.asm
                 FSR_Save   0x000079       data     static Z:\home\dell\frost\frostgpsproject\target.asm
                 ALT_Save   0x00007a       data     static Z:\home\dell\frost\frostgpsproject\target.asm
                   in_isr   0x00007b       data     static Z:\home\dell\frost\frostgpsproject\target.asm
                    pbase   0x00007c       data     static Z:\home\dell\frost\frostgpsproject\target.asm
                 pbaseisr   0x00007d       data     static Z:\home\dell\frost\frostgpsproject\target.asm
                 sfploc00   0x0000a0       data     static Z:\home\dell\frost\frostgpsproject\target.asm
                 sfpaux00   0x0000a1       data     static Z:\home\dell\frost\frostgpsproject\target.asm
                 sfploc01   0x0000a2       data     static Z:\home\dell\frost\frostgpsproject\target.asm
                 sfpaux01   0x0000a3       data     static Z:\home\dell\frost\frostgpsproject\target.asm
                 sfploc02   0x0000a4       data     static Z:\home\dell\frost\frostgpsproject\target.asm
                 sfpaux02   0x0000a5       data     static Z:\home\dell\frost\frostgpsproject\target.asm
                 sfploc03   0x0000a6       data     static Z:\home\dell\frost\frostgpsproject\target.asm
                 sfpaux03   0x0000a7       data     static Z:\home\dell\frost\frostgpsproject\target.asm
                 sfploc04   0x0000a8       data     static Z:\home\dell\frost\frostgpsproject\target.asm
                 sfploc05   0x0000a9       data     static Z:\home\dell\frost\frostgpsproject\target.asm
                 sfploc06   0x0000aa       data     static Z:\home\dell\frost\frostgpsproject\target.asm
                 sfploc07   0x0000ab       data     static Z:\home\dell\frost\frostgpsproject\target.asm
                 sfploc08   0x0000ac       data     static Z:\home\dell\frost\frostgpsproject\target.asm
                 sfploc09   0x0000ad       data     static Z:\home\dell\frost\frostgpsproject\target.asm
                 sfploc10   0x0000ae       data     static Z:\home\dell\frost\frostgpsproject\target.asm
                 sfploc11   0x0000af       data     static Z:\home\dell\frost\frostgpsproject\target.asm
                 sfploc12   0x0000b0       data     static Z:\home\dell\frost\frostgpsproject\target.asm
                 sfploc13   0x0000b1       data     static Z:\home\dell\frost\frostgpsproject\target.asm
                 sfploc14   0x0000b2       data     static Z:\home\dell\frost\frostgpsproject\target.asm
                 sfploc15   0x0000b3       data     static Z:\home\dell\frost\frostgpsproject\target.asm
                 sfploc16   0x0000b4       data     static Z:\home\dell\frost\frostgpsproject\target.asm
                 sfploc17   0x0000b5       data     static Z:\home\dell\frost\frostgpsproject\target.asm
                 hllstorl   0x0000b6       data     static Z:\home\dell\frost\frostgpsproject\target.asm
               hllscalerl   0x0000b7       data     static Z:\home\dell\frost\frostgpsproject\target.asm
           hlllatsubminbl   0x0000b8       data     static Z:\home\dell\frost\frostgpsproject\target.asm
            hlllatsubminl   0x0000b9       data     static Z:\home\dell\frost\frostgpsproject\target.asm
              hlllatminbl   0x0000ba       data     static Z:\home\dell\frost\frostgpsproject\target.asm
               hlllatminl   0x0000bb       data     static Z:\home\dell\frost\frostgpsproject\target.asm
              hlllatdegbl   0x0000bc       data     static Z:\home\dell\frost\frostgpsproject\target.asm
               hlllatdegl   0x0000bd       data     static Z:\home\dell\frost\frostgpsproject\target.asm
                hllisglll   0x0000be       data     static Z:\home\dell\frost\frostgpsproject\target.asm
                alt_stack   0x000220       data     static Z:\home\dell\frost\frostgpsproject\target.asm
                hllblss00   0x000248       data     static Z:\home\dell\frost\frostgpsproject\target.asm
             hllblss00isr   0x000249       data     static Z:\home\dell\frost\frostgpsproject\target.asm
                hllblss01   0x00024a       data     static Z:\home\dell\frost\frostgpsproject\target.asm
             hllblss01isr   0x00024b       data     static Z:\home\dell\frost\frostgpsproject\target.asm
                hllblss02   0x00024c       data     static Z:\home\dell\frost\frostgpsproject\target.asm
             hllblss02isr   0x00024d       data     static Z:\home\dell\frost\frostgpsproject\target.asm
                hlltempbl   0x00024e       data     static Z:\home\dell\frost\frostgpsproject\target.asm
                 hlltempl   0x00024f       data     static Z:\home\dell\frost\frostgpsproject\target.asm


