MPASM  5.35                        TARGET.ASM   1-15-2020  22:50:04         PAGE  1


LOC  OBJECT CODE     LINE SOURCE TEXT
  VALUE

                      00001 
                      00002 #include "hloe.inc"
                      00001 
                      00002 
                      00003 #define HLLGUARDhllblss
                      00004 
                      00005 
                      00006 #define HLOE_STACK_SIZE .80
                      00007 #define HLOE_STACK2_SIZE .80
                      00008 
                      00009 
                      00010 #include <p16f1827.inc>
                      00001         LIST
                      00002 
                      00003 ;==========================================================================
                      00004 ;  MPASM PIC16F1827 processor include
                      00005 ; 
                      00006 ;  (c) Copyright 1999-2009 Microchip Technology, All rights reserved
                      00007 ;==========================================================================
                      00008 
                      01300         LIST
                      00011 #include "../frostcompiler/kernel16f1827.inc"
                      00001 
                      00002 PUSH macro ;Push to the main stack for the programmer's parms and dyn. data;
                      00003  movwi ++INDF0
                      00004  endm
                      00005  
                      00006 POP macro ;Pop from main stack; "decf" is the de-allocator and thus happens last to 
                      00007  moviw INDF0-- ; preserve the safety of this code under interruptible conditions. 
                      00008  endm
                      00009  
                      00010 DISCARD macro ;Remove items from the main stack and throw them away w/o affecting W
                      00011  decf FSR0L,f 
                      00012  endm
                      00013 
                      00014 COPY macro ;Duplicate stack top
                      00015  movfw INDF0
                      00016  incf FSR0L,f 
                      00017  movwf INDF0 
                      00018  endm
                      00019 
                      00020 #define HLFSR FSR0L
                      00021  
                      00022 #define HLINDF INDF0
                      00023 
                      00024 KPUSH macro
                      00025  movwi ++INDF1
                      00026  endm
                      00027  
                      00028 KPOP macro 
                      00029  moviw INDF1--
                      00030  endm 
                      00031 
MPASM  5.35                        TARGET.ASM   1-15-2020  22:50:04         PAGE  2


LOC  OBJECT CODE     LINE SOURCE TEXT
  VALUE

                      00032 KDISCARD macro ;Remove items from stack 2 and throw them away w/o affecting W
                      00033  decf FSR1L,f 
                      00034  endm
                      00035 
                      00036 FAR_CALL macro caller_os,func_os ;Call destination residing within a different code page
                      00037  pagesel func_os
                      00038  call func_os
                      00039  pagesel caller_os
                      00040  endm
                      00041 
                      00042 ;Call destination residing within a different code page... does not restore the caller's
                      00043 ; code page after return, which may be OK (e.g. if the next operation is another 'Far'
                      00044 ; function call). 
                      00045 HALF_FAR_CALL macro func_os 
                      00046  pagesel func_os        
                      00047  call func_os
                      00048  endm
                      00049 
                      00050 ;These are simple shifts, similar to << or >> in C, not rotates. Newer PICs include
                      00051 ; a native shift instruction that shifts in zeroes like << and >>. Older devices 
                      00052 ; can only rotate bits through the C register, requiring an extra instruction to
                      00053 ; clear C in cases where a simple shift is needed.
                      00054 LSHIFT macro file_reg
                      00055  lslf file_reg,f
                      00056  endm 
                      00057 
                      00058 RSHIFT macro file_reg
                      00059  lsrf file_reg,f
                      00060  endm 
                      00061  
                      00062 PREEMPT macro
                      00063 #ifdef HLLMULTITASK 
                      00064  incf in_isr,f
                      00065  pagesel ISR
                      00066  movf FSR0L,w           ;Restore "softstacks" if main thread was using 2nd stack
                      00067  movf softstack0,f
                      00068  btfss STATUS,Z   
                      00069  movf softstack0,w  
                      00070  movwf FSR0L          
                      00071 #endif 
                      00072  endm
                      00073 
                      00074 RESUME macro
                      00075 #ifdef HLLMULTITASK 
                      00076  clrf in_isr
                      00077 #endif
                      00078  endm
                      00079  
                      00080 ; Table macro.. this followed by any series of RETLW calls
                      00081 ; transforms said call list into a function that takes an offset
                      00082 ; and returns that entry in the table (takes 1 byte, returns 1
                      00083 ; byte... this goes atop the HLL feature which allows generation 
                      00084 ; of tables. It can also go atop RETLW tables entered into assembly 
MPASM  5.35                        TARGET.ASM   1-15-2020  22:50:04         PAGE  3


LOC  OBJECT CODE     LINE SOURCE TEXT
  VALUE

                      00085 ; files in a very basic fashion when doing assembly programming. In 
                      00086 ; either case, the overall result can be called exactly as if it were any 
                      00087 ; other HLOE function
                      00088 HLTABLE macro mmnme
                      00089 mmnme:
                      00090  movlw high mmnme#v(2) ; Necess. b/c writes to PCL take 5 bits fr. PCLATH
                      00091  movwf PCLATH ; and PAGESEL doesn't take care of all 5
                      00092  movlw low mmnme#v(2) ; Perform pointer arithmetic
                      00093  addwf INDF0,w 
                      00094  decf FSR0L,f
                      00095  btfsc STATUS,C ; Necess. b/c writes to PCL take 5 bits fr. PCLATH
                      00096  incf PCLATH,f 
                      00097  movwf PCL 
                      00098 mmnme#v(2): 
                      00099  ;retlw K, retlw K, etc. go here
                      00100  endm
                      00101 
                      00102 READEEPROM macro
                      00103  banksel EEADR
                      00104  POP
                      00105  movwf  EEADR
                      00106  banksel EECON1
                      00107  bcf EECON1, EEPGD
                      00108  bsf EECON1, RD
                      00109  banksel EEDAT
                      00110  movf EEDAT, W
                      00111  PUSH
                      00112 endm
                      00113 
                      00114 WRITEEEPROM macro
                      00115  banksel EEADRL
                      00116  POP
                      00117  movwf  EEDATL
                      00118  POP
                      00119  movwf  EEADRL
                      00120  bcf EECON1, CFGS
                      00121  bcf EECON1, EEPGD
                      00122  bsf EECON1, WREN
                      00123  bcf    INTCON, GIE
                      00124  movlw  55h
                      00125  movwf  EECON2
                      00126  movlw  0AAh
                      00127  movwf  EECON2
                      00128  bsf    EECON1, WR
                      00129  bsf    INTCON, GIE
                      00130  bcf    EECON1, WREN
                      00131  btfsc  EECON1, WR
                      00132  GOTO   $-2
                      00133 endm
                      00012 
                      00013 
                      00014 #define HLLMULTITASK
                      00003 
MPASM  5.35                        TARGET.ASM   1-15-2020  22:50:04         PAGE  4


LOC  OBJECT CODE     LINE SOURCE TEXT
  VALUE

8007   C9A4           00004  __config  _CONFIG1,_WDTE_OFF  & _BOREN_OFF & _FOSC_INTOSC & _PWRTE_OFF & _MCLRE_OFF & _CLKOUTEN_OFF & _
                            IESO_OFF & _FCMEN_OFF
8008   DFFF           00005  __config  _CONFIG2,_PLLEN_ON & _STVREN_ON & _LVP_OFF
                      00006 
                      00007 hllv2filtervalid UDATA
0000                  00008 hllfiltervalidl RES .1
                      00009 
                      00010 #define filtervalid hllfiltervalidl
                      00011 
                      00012 hllv2fix UDATA
0000                  00013 hllfixl RES .1
                      00014 
                      00015 #define fix hllfixl
                      00016 
                      00017 hllv2isgll UDATA
0000                  00018 hllisglll RES .1
                      00019 
                      00020 #define isgll hllisglll
                      00021 
                      00022 hllv2latdeg UDATA
0000                  00023 hlllatdegl RES .1
                      00024 
                      00025 #define latdeg hlllatdegl
                      00026 
                      00027 hllv2latdegb UDATA
0000                  00028 hlllatdegbl RES .1
                      00029 
                      00030 #define latdegb hlllatdegbl
                      00031 
                      00032 hllv2latmin UDATA
0000                  00033 hlllatminl RES .1
                      00034 
                      00035 #define latmin hlllatminl
                      00036 
                      00037 hllv2latminb UDATA
0000                  00038 hlllatminbl RES .1
                      00039 
                      00040 #define latminb hlllatminbl
                      00041 
                      00042 hllv2latsubmin UDATA
0000                  00043 hlllatsubminl RES .1
                      00044 
                      00045 #define latsubmin hlllatsubminl
                      00046 
                      00047 hllv2latsubminb UDATA
0000                  00048 hlllatsubminbl RES .1
                      00049 
                      00050 #define latsubminb hlllatsubminbl
                      00051 
                      00052 hllv2londeg UDATA
0000                  00053 hlllondegl RES .1
                      00054 
                      00055 #define londeg hlllondegl
MPASM  5.35                        TARGET.ASM   1-15-2020  22:50:04         PAGE  5


LOC  OBJECT CODE     LINE SOURCE TEXT
  VALUE

                      00056 
                      00057 hllv2londegb UDATA
0000                  00058 hlllondegbl RES .1
                      00059 
                      00060 #define londegb hlllondegbl
                      00061 
                      00062 hllv2lonmin UDATA
0000                  00063 hlllonminl RES .1
                      00064 
                      00065 #define lonmin hlllonminl
                      00066 
                      00067 hllv2lonminb UDATA
0000                  00068 hlllonminbl RES .1
                      00069 
                      00070 #define lonminb hlllonminbl
                      00071 
                      00072 hllv2lonsubmin UDATA
0000                  00073 hlllonsubminl RES .1
                      00074 
                      00075 #define lonsubmin hlllonsubminl
                      00076 
                      00077 hllv2lonsubminb UDATA
0000                  00078 hlllonsubminbl RES .1
                      00079 
                      00080 #define lonsubminb hlllonsubminbl
                      00081 
                      00082 hllv2scaler UDATA
0000                  00083 hllscalerl RES .1
                      00084 
                      00085 #define scaler hllscalerl
                      00086 
                      00087 hllv2temp UDATA
0000                  00088 hlltempl RES .1
                      00089 
                      00090 #define temp hlltempl
                      00091 
                      00092 hllv2tempb UDATA
0000                  00093 hlltempbl RES .1
                      00094 
                      00095 #define tempb hlltempbl
                      00096 
                      00097 
                      00098 
                      00099 Resetv code 0 
0000   138B           00100  bcf INTCON,GIE
0001   3180           00101  pagesel hloego
0002   2???           00102  goto hloego
                      00103  
                      00104 #ifdef HLLMULTITASK
                      00105 vectr code 4     ;Device specific
0004                  00106 ISR:
                      00107 
                      00108 
MPASM  5.35                        TARGET.ASM   1-15-2020  22:50:04         PAGE  6


LOC  OBJECT CODE     LINE SOURCE TEXT
  VALUE

                      00109  PREEMPT
                          M #ifdef HLLMULTITASK 
0004   0A??               M  incf in_isr,f
0005   3180               M  pagesel ISR
0006   0804               M  movf FSR0L,w           ;Restore "softstacks" if main thread was using 2nd stack
0007   08??               M  movf softstack0,f
0008   1D03               M  btfss STATUS,Z   
0009   08??               M  movf softstack0,w  
000A   0084               M  movwf FSR0L          
                          M #endif 
                      00110 #endif
000B   0020           00111  banksel PIR1
000C   1C11           00112  btfss PIR1,TMR1IF
000D   2???           00113  goto hllnotisr49       
000E   1011           00114  bcf PIR1,TMR1IF
                      00115 
                      00116 
000F   3001           00117  movlw .1 
                      00118 
                      00119    
                      00120  FAR_CALL ISR ,safepush
0010   3180               M  pagesel safepush
0011   2???               M  call safepush
0012   3180               M  pagesel ISR
                      00121 
0013   002?           00122    banksel scaler
0014   08??           00123    movfw scaler
                      00124    
                      00125    
                      00126 
                      00127    
                      00128  HALF_FAR_CALL safepush
0015   3180               M  pagesel safepush       
0016   2???               M  call safepush
                      00129 
                      00130 
                      00131  
                      00132  FAR_CALL ISR,add
0017   3180               M  pagesel add
0018   2???               M  call add
0019   3180               M  pagesel ISR
                      00133 
                      00134  POP
001A   0013               M  moviw INDF0-- ; preserve the safety of this code under interruptible conditions. 
001B   002?           00135  banksel scaler
001C   00??           00136  movwf scaler
                      00137  
                      00138 
001D   002?           00139    banksel fix
001E   08??           00140    movfw fix
                      00141    
                      00142    
                      00143 
MPASM  5.35                        TARGET.ASM   1-15-2020  22:50:04         PAGE  7


LOC  OBJECT CODE     LINE SOURCE TEXT
  VALUE

                      00144    
                      00145  FAR_CALL ISR ,safepush
001F   3180               M  pagesel safepush
0020   2???               M  call safepush
0021   3180               M  pagesel ISR
                      00146 
                      00147 
0022   3014           00148  movlw .20 
                      00149 
                      00150    
                      00151  FAR_CALL ISR ,safepush
0023   3180               M  pagesel safepush
0024   2???               M  call safepush
0025   3180               M  pagesel ISR
                      00152 
0026   002?           00153    banksel scaler
0027   08??           00154    movfw scaler
                      00155    
                      00156    
                      00157 
                      00158    
                      00159  HALF_FAR_CALL safepush
0028   3180               M  pagesel safepush       
0029   2???               M  call safepush
                      00160 
                      00161 
                      00162  
                      00163  HALF_FAR_CALL eq
002A   3180               M  pagesel eq             
002B   2???               M  call eq
                      00164 
                      00165 
                      00166  
                      00167  FAR_CALL ISR,andb
002C   3180               M  pagesel andb
002D   2???               M  call andb
002E   3180               M  pagesel ISR
                      00168 
                      00169  POP
002F   0013               M  moviw INDF0-- ; preserve the safety of this code under interruptible conditions. 
0030   3A00           00170  xorlw .0
0031   1903           00171  btfsc STATUS,Z
0032   2???           00172  goto hlllb51J0 
                      00173  
                      00174 
0033   3000           00175  movlw .0 
                      00176 
                      00177    
                      00178  FAR_CALL ISR ,safepush
0034   3180               M  pagesel safepush
0035   2???               M  call safepush
0036   3180               M  pagesel ISR
                      00179 
MPASM  5.35                        TARGET.ASM   1-15-2020  22:50:04         PAGE  8


LOC  OBJECT CODE     LINE SOURCE TEXT
  VALUE

                      00180  POP
0037   0013               M  moviw INDF0-- ; preserve the safety of this code under interruptible conditions. 
0038   002?           00181  banksel scaler
0039   00??           00182  movwf scaler
                      00183  
                      00184 
003A   002?           00185    banksel latdeg
003B   08??           00186    movfw latdeg
                      00187    
                      00188    
                      00189 
                      00190    
                      00191  FAR_CALL ISR ,safepush
003C   3180               M  pagesel safepush
003D   2???               M  call safepush
003E   3180               M  pagesel ISR
                      00192 
003F   002?           00193    banksel latdegb
0040   08??           00194    movfw latdegb
                      00195    
                      00196    
                      00197 
                      00198    
                      00199  HALF_FAR_CALL safepush
0041   3180               M  pagesel safepush       
0042   2???               M  call safepush
                      00200 
                      00201 
                      00202  
                      00203  FAR_CALL ISR,printf
0043   3180               M  pagesel printf
0044   2???               M  call printf
0045   3180               M  pagesel ISR
                      00204 
                      00205  ; char ' '
                      00206 
                      00207 
0046   3020           00208  movlw .32
                      00209 
                      00210 
                      00211    
                      00212  HALF_FAR_CALL safepush
0047   3180               M  pagesel safepush       
0048   2???               M  call safepush
                      00213 
                      00214 
                      00215  
                      00216  FAR_CALL ISR,printch
0049   3180               M  pagesel printch
004A   2???               M  call printch
004B   3180               M  pagesel ISR
                      00217 
004C   002?           00218    banksel latmin
MPASM  5.35                        TARGET.ASM   1-15-2020  22:50:04         PAGE  9


LOC  OBJECT CODE     LINE SOURCE TEXT
  VALUE

004D   08??           00219    movfw latmin
                      00220    
                      00221    
                      00222 
                      00223    
                      00224  FAR_CALL ISR ,safepush
004E   3180               M  pagesel safepush
004F   2???               M  call safepush
0050   3180               M  pagesel ISR
                      00225 
0051   002?           00226    banksel latminb
0052   08??           00227    movfw latminb
                      00228    
                      00229    
                      00230 
                      00231    
                      00232  HALF_FAR_CALL safepush
0053   3180               M  pagesel safepush       
0054   2???               M  call safepush
                      00233 
                      00234 
                      00235  
                      00236  FAR_CALL ISR,printf
0055   3180               M  pagesel printf
0056   2???               M  call printf
0057   3180               M  pagesel ISR
                      00237 
                      00238  ; char ' '
                      00239 
                      00240 
0058   3020           00241  movlw .32
                      00242 
                      00243 
                      00244    
                      00245  HALF_FAR_CALL safepush
0059   3180               M  pagesel safepush       
005A   2???               M  call safepush
                      00246 
                      00247 
                      00248  
                      00249  FAR_CALL ISR,printch
005B   3180               M  pagesel printch
005C   2???               M  call printch
005D   3180               M  pagesel ISR
                      00250 
005E   002?           00251    banksel latsubmin
005F   08??           00252    movfw latsubmin
                      00253    
                      00254    
                      00255 
                      00256    
                      00257  FAR_CALL ISR ,safepush
0060   3180               M  pagesel safepush
MPASM  5.35                        TARGET.ASM   1-15-2020  22:50:04         PAGE 10


LOC  OBJECT CODE     LINE SOURCE TEXT
  VALUE

0061   2???               M  call safepush
0062   3180               M  pagesel ISR
                      00258 
0063   002?           00259    banksel latsubminb
0064   08??           00260    movfw latsubminb
                      00261    
                      00262    
                      00263 
                      00264    
                      00265  HALF_FAR_CALL safepush
0065   3180               M  pagesel safepush       
0066   2???               M  call safepush
                      00266 
                      00267 
                      00268  
                      00269  FAR_CALL ISR,printf
0067   3180               M  pagesel printf
0068   2???               M  call printf
0069   3180               M  pagesel ISR
                      00270 
                      00271 
006A   300D           00272  movlw .13
                      00273 
                      00274    
                      00275  HALF_FAR_CALL safepush
006B   3180               M  pagesel safepush       
006C   2???               M  call safepush
                      00276 
                      00277 
                      00278  
                      00279  FAR_CALL ISR,printch
006D   3180               M  pagesel printch
006E   2???               M  call printch
006F   3180               M  pagesel ISR
                      00280 
                      00281 
0070   300A           00282  movlw .10
                      00283 
                      00284    
                      00285  HALF_FAR_CALL safepush
0071   3180               M  pagesel safepush       
0072   2???               M  call safepush
                      00286 
                      00287 
                      00288  
                      00289  FAR_CALL ISR,printch
0073   3180               M  pagesel printch
0074   2???               M  call printch
0075   3180               M  pagesel ISR
                      00290 
0076   002?           00291    banksel londeg
0077   08??           00292    movfw londeg
                      00293    
MPASM  5.35                        TARGET.ASM   1-15-2020  22:50:04         PAGE 11


LOC  OBJECT CODE     LINE SOURCE TEXT
  VALUE

                      00294    
                      00295 
                      00296    
                      00297  FAR_CALL ISR ,safepush
0078   3180               M  pagesel safepush
0079   2???               M  call safepush
007A   3180               M  pagesel ISR
                      00298 
007B   002?           00299    banksel londegb
007C   08??           00300    movfw londegb
                      00301    
                      00302    
                      00303 
                      00304    
                      00305  HALF_FAR_CALL safepush
007D   3180               M  pagesel safepush       
007E   2???               M  call safepush
                      00306 
                      00307 
                      00308  
                      00309  FAR_CALL ISR,printf
007F   3180               M  pagesel printf
0080   2???               M  call printf
0081   3180               M  pagesel ISR
                      00310 
                      00311  ; char ' '
                      00312 
                      00313 
0082   3020           00314  movlw .32
                      00315 
                      00316 
                      00317    
                      00318  HALF_FAR_CALL safepush
0083   3180               M  pagesel safepush       
0084   2???               M  call safepush
                      00319 
                      00320 
                      00321  
                      00322  FAR_CALL ISR,printch
0085   3180               M  pagesel printch
0086   2???               M  call printch
0087   3180               M  pagesel ISR
                      00323 
0088   002?           00324    banksel lonmin
0089   08??           00325    movfw lonmin
                      00326    
                      00327    
                      00328 
                      00329    
                      00330  FAR_CALL ISR ,safepush
008A   3180               M  pagesel safepush
008B   2???               M  call safepush
008C   3180               M  pagesel ISR
MPASM  5.35                        TARGET.ASM   1-15-2020  22:50:04         PAGE 12


LOC  OBJECT CODE     LINE SOURCE TEXT
  VALUE

                      00331 
008D   002?           00332    banksel lonminb
008E   08??           00333    movfw lonminb
                      00334    
                      00335    
                      00336 
                      00337    
                      00338  HALF_FAR_CALL safepush
008F   3180               M  pagesel safepush       
0090   2???               M  call safepush
                      00339 
                      00340 
                      00341  
                      00342  FAR_CALL ISR,printf
0091   3180               M  pagesel printf
0092   2???               M  call printf
0093   3180               M  pagesel ISR
                      00343 
                      00344  ; char ' '
                      00345 
                      00346 
0094   3020           00347  movlw .32
                      00348 
                      00349 
                      00350    
                      00351  HALF_FAR_CALL safepush
0095   3180               M  pagesel safepush       
0096   2???               M  call safepush
                      00352 
                      00353 
                      00354  
                      00355  FAR_CALL ISR,printch
0097   3180               M  pagesel printch
0098   2???               M  call printch
0099   3180               M  pagesel ISR
                      00356 
009A   002?           00357    banksel lonsubmin
009B   08??           00358    movfw lonsubmin
                      00359    
                      00360    
                      00361 
                      00362    
                      00363  FAR_CALL ISR ,safepush
009C   3180               M  pagesel safepush
009D   2???               M  call safepush
009E   3180               M  pagesel ISR
                      00364 
009F   002?           00365    banksel lonsubminb
00A0   08??           00366    movfw lonsubminb
                      00367    
                      00368    
                      00369 
                      00370    
MPASM  5.35                        TARGET.ASM   1-15-2020  22:50:04         PAGE 13


LOC  OBJECT CODE     LINE SOURCE TEXT
  VALUE

                      00371  HALF_FAR_CALL safepush
00A1   3180               M  pagesel safepush       
00A2   2???               M  call safepush
                      00372 
                      00373 
                      00374  
                      00375  FAR_CALL ISR,printf
00A3   3180               M  pagesel printf
00A4   2???               M  call printf
00A5   3180               M  pagesel ISR
                      00376 
                      00377 
00A6   300D           00378  movlw .13
                      00379 
                      00380    
                      00381  HALF_FAR_CALL safepush
00A7   3180               M  pagesel safepush       
00A8   2???               M  call safepush
                      00382 
                      00383 
                      00384  
                      00385  FAR_CALL ISR,printch
00A9   3180               M  pagesel printch
00AA   2???               M  call printch
00AB   3180               M  pagesel ISR
                      00386 
                      00387 
00AC   300A           00388  movlw .10
                      00389 
                      00390    
                      00391  HALF_FAR_CALL safepush
00AD   3180               M  pagesel safepush       
00AE   2???               M  call safepush
                      00392 
                      00393 
                      00394  
                      00395  FAR_CALL ISR,printch
00AF   3180               M  pagesel printch
00B0   2???               M  call printch
00B1   3180               M  pagesel ISR
                      00396 
                      00397  
00B2   2???           00398  goto hlllb51J1
                      00399  
                      00400 
00B3                  00401 hlllb51J0:
                      00402 
                      00403 
00B3                  00404 hlllb51J1:
                      00405 
                      00406 
00B3   3001           00407  movlw .1 
                      00408 
MPASM  5.35                        TARGET.ASM   1-15-2020  22:50:04         PAGE 14


LOC  OBJECT CODE     LINE SOURCE TEXT
  VALUE

                      00409    
                      00410  FAR_CALL ISR ,safepush
00B4   3180               M  pagesel safepush
00B5   2???               M  call safepush
00B6   3180               M  pagesel ISR
                      00411 
00B7   0020           00412    banksel PORTA
00B8   080C           00413    movfw PORTA
                      00414    
                      00415    
                      00416 
                      00417    
                      00418  HALF_FAR_CALL safepush
00B9   3180               M  pagesel safepush       
00BA   2???               M  call safepush
                      00419 
                      00420 
                      00421  
                      00422  FAR_CALL ISR,clearbit
00BB   3180               M  pagesel clearbit
00BC   2???               M  call clearbit
00BD   3180               M  pagesel ISR
                      00423 
                      00424  POP
00BE   0013               M  moviw INDF0-- ; preserve the safety of this code under interruptible conditions. 
00BF   0020           00425  banksel PORTA
00C0   008C           00426  movwf PORTA
                      00427  
                      00428 
                      00429 
00C1                  00430 hllnotisr49:
                      00431 
00C1   0027           00432  banksel IOCBF
00C2   0816           00433  movf IOCBF,w
00C3   1903           00434  btfsc STATUS,Z
00C4   2???           00435  goto hllnotisr98
00C5   0196           00436  clrf IOCBF
00C6   0020           00437  banksel PORTB
00C7   088D           00438  movf PORTB,f
                      00439 
                      00440 
00C8   3001           00441  movlw .1 
                      00442 
                      00443    
                      00444  FAR_CALL ISR ,safepush
00C9   3180               M  pagesel safepush
00CA   2???               M  call safepush
00CB   3180               M  pagesel ISR
                      00445 
00CC   0020           00446    banksel PORTA
00CD   080C           00447    movfw PORTA
                      00448    
                      00449    
MPASM  5.35                        TARGET.ASM   1-15-2020  22:50:04         PAGE 15


LOC  OBJECT CODE     LINE SOURCE TEXT
  VALUE

                      00450 
                      00451    
                      00452  HALF_FAR_CALL safepush
00CE   3180               M  pagesel safepush       
00CF   2???               M  call safepush
                      00453 
                      00454 
                      00455  
                      00456  FAR_CALL ISR,setbit
00D0   3180               M  pagesel setbit
00D1   2???               M  call setbit
00D2   3180               M  pagesel ISR
                      00457 
                      00458  POP
00D3   0013               M  moviw INDF0-- ; preserve the safety of this code under interruptible conditions. 
00D4   0020           00459  banksel PORTA
00D5   008C           00460  movwf PORTA
                      00461  
                      00462 
                      00463 
00D6                  00464 hllnotisr98:
                      00465 
                      00466 
                      00467 
                      00468 
                      00469 
                      00470 
                      00471 
                      00472 
                      00473 #ifdef HLLMULTITASK
00D6                  00474 ExitISR:    
                      00475  
                      00476  RESUME
                          M #ifdef HLLMULTITASK 
00D6   01??               M  clrf in_isr
                          M #endif
                      00477  
00D7   0009           00478  retfie
                      00479 #endif
                      00480 
                      00481 mainvars udata_shr      
                      00482 #ifdef HLLMULTITASK
0000                  00483 pbase res .1                    ; Used for functions w/ numbered pass/return, to clean up parms/push arg
                            s
0001                  00484 pbaseisr res .1 
                      00485 #else
                      00486 pbase res .1
                      00487 #endif
                      00488 
                      00489 main code
0000                  00490 hloego:
                      00491 
0000   01??           00492   clrf in_isr
MPASM  5.35                        TARGET.ASM   1-15-2020  22:50:04         PAGE 16


LOC  OBJECT CODE     LINE SOURCE TEXT
  VALUE

                      00493  
0001   30??           00494   movlw LOW (stack-1)           ;Set up stack starting position based on literals det. by incremental li
                            nker
0002   0084           00495   movwf FSR0L 
0003   30??           00496   movlw HIGH (stack-1)
0004   0085           00497   movwf FSR0H
                      00498  
                      00499   
0005   30??           00500  movlw LOW (alt_stack-1)
0006   0086           00501  movwf FSR1L
0007   30??           00502  movlw HIGH (alt_stack-1)
0008   0087           00503  movwf FSR1H
                      00504  
                      00505  
0009   01??           00506  clrf softstack0 
                      00507  
                      00508  
000A   3180           00509  pagesel hlluserprog
000B   2???           00510  goto hlluserprog
                      00511 
                      00512 hllupuser CODE
0000                  00513 hlluserprog: 
                      00514  
                      00515 
0000   3000           00516  movlw .0 
                      00517 
                      00518    
                      00519  FAR_CALL hlluserprog ,safepush
0001   3180               M  pagesel safepush
0002   2???               M  call safepush
0003   3180               M  pagesel hlluserprog
                      00520 
                      00521  POP
0004   0013               M  moviw INDF0-- ; preserve the safety of this code under interruptible conditions. 
0005   002?           00522  banksel filtervalid
0006   00??           00523  movwf filtervalid
                      00524  
                      00525 
                      00526 
0007   3000           00527  movlw .0 
                      00528 
                      00529    
                      00530  FAR_CALL hlluserprog ,safepush
0008   3180               M  pagesel safepush
0009   2???               M  call safepush
000A   3180               M  pagesel hlluserprog
                      00531 
                      00532  POP
000B   0013               M  moviw INDF0-- ; preserve the safety of this code under interruptible conditions. 
000C   002?           00533  banksel fix
000D   00??           00534  movwf fix
                      00535  
                      00536 
MPASM  5.35                        TARGET.ASM   1-15-2020  22:50:04         PAGE 17


LOC  OBJECT CODE     LINE SOURCE TEXT
  VALUE

                      00537 
000E   3070           00538  movlw .112 
                      00539 
                      00540    
                      00541  FAR_CALL hlluserprog ,safepush
000F   3180               M  pagesel safepush
0010   2???               M  call safepush
0011   3180               M  pagesel hlluserprog
                      00542 
                      00543 
0012   30F7           00544  movlw .247 
                      00545 
                      00546    
                      00547  FAR_CALL hlluserprog ,safepush
0013   3180               M  pagesel safepush
0014   2???               M  call safepush
0015   3180               M  pagesel hlluserprog
                      00548 
0016   0021           00549    banksel OSCCON
0017   0819           00550    movfw OSCCON
                      00551    
                      00552    
                      00553 
                      00554    
                      00555  HALF_FAR_CALL safepush
0018   3180               M  pagesel safepush       
0019   2???               M  call safepush
                      00556 
                      00557 
                      00558  
                      00559  HALF_FAR_CALL andu
001A   3180               M  pagesel andu           
001B   2???               M  call andu
                      00560 
                      00561 
                      00562  
                      00563  FAR_CALL hlluserprog,oru
001C   3180               M  pagesel oru
001D   2???               M  call oru
001E   3180               M  pagesel hlluserprog
                      00564 
                      00565  POP
001F   0013               M  moviw INDF0-- ; preserve the safety of this code under interruptible conditions. 
0020   0021           00566  banksel OSCCON
0021   0099           00567  movwf OSCCON
                      00568  
                      00569 
                      00570 
0022   3004           00571  movlw CREN
                      00572 
                      00573 
                      00574    
                      00575  FAR_CALL hlluserprog ,safepush
MPASM  5.35                        TARGET.ASM   1-15-2020  22:50:04         PAGE 18


LOC  OBJECT CODE     LINE SOURCE TEXT
  VALUE

0023   3180               M  pagesel safepush
0024   2???               M  call safepush
0025   3180               M  pagesel hlluserprog
                      00576 
0026   0023           00577    banksel RCSTA
0027   081D           00578    movfw RCSTA
                      00579    
                      00580    
                      00581 
                      00582    
                      00583  HALF_FAR_CALL safepush
0028   3180               M  pagesel safepush       
0029   2???               M  call safepush
                      00584 
                      00585 
                      00586  
                      00587  FAR_CALL hlluserprog,setbit
002A   3180               M  pagesel setbit
002B   2???               M  call setbit
002C   3180               M  pagesel hlluserprog
                      00588 
                      00589  POP
002D   0013               M  moviw INDF0-- ; preserve the safety of this code under interruptible conditions. 
002E   0023           00590  banksel RCSTA
002F   009D           00591  movwf RCSTA
                      00592  
                      00593 
                      00594 
0030   3002           00595  movlw BRGH
                      00596 
                      00597 
                      00598    
                      00599  FAR_CALL hlluserprog ,safepush
0031   3180               M  pagesel safepush
0032   2???               M  call safepush
0033   3180               M  pagesel hlluserprog
                      00600 
0034   0023           00601    banksel TXSTA
0035   081E           00602    movfw TXSTA
                      00603    
                      00604    
                      00605 
                      00606    
                      00607  HALF_FAR_CALL safepush
0036   3180               M  pagesel safepush       
0037   2???               M  call safepush
                      00608 
                      00609 
                      00610  
                      00611  FAR_CALL hlluserprog,setbit
0038   3180               M  pagesel setbit
0039   2???               M  call setbit
003A   3180               M  pagesel hlluserprog
MPASM  5.35                        TARGET.ASM   1-15-2020  22:50:04         PAGE 19


LOC  OBJECT CODE     LINE SOURCE TEXT
  VALUE

                      00612 
                      00613  POP
003B   0013               M  moviw INDF0-- ; preserve the safety of this code under interruptible conditions. 
003C   0023           00614  banksel TXSTA
003D   009E           00615  movwf TXSTA
                      00616  
                      00617 
                      00618 
003E   3003           00619  movlw BRG16
                      00620 
                      00621 
                      00622    
                      00623  FAR_CALL hlluserprog ,safepush
003F   3180               M  pagesel safepush
0040   2???               M  call safepush
0041   3180               M  pagesel hlluserprog
                      00624 
0042   0023           00625    banksel BAUDCON
0043   081F           00626    movfw BAUDCON
                      00627    
                      00628    
                      00629 
                      00630    
                      00631  HALF_FAR_CALL safepush
0044   3180               M  pagesel safepush       
0045   2???               M  call safepush
                      00632 
                      00633 
                      00634  
                      00635  FAR_CALL hlluserprog,setbit
0046   3180               M  pagesel setbit
0047   2???               M  call setbit
0048   3180               M  pagesel hlluserprog
                      00636 
                      00637  POP
0049   0013               M  moviw INDF0-- ; preserve the safety of this code under interruptible conditions. 
004A   0023           00638  banksel BAUDCON
004B   009F           00639  movwf BAUDCON
                      00640  
                      00641 
                      00642 
004C   3040           00643  movlw .64 
                      00644 
                      00645    
                      00646  FAR_CALL hlluserprog ,safepush
004D   3180               M  pagesel safepush
004E   2???               M  call safepush
004F   3180               M  pagesel hlluserprog
                      00647 
                      00648  POP
0050   0013               M  moviw INDF0-- ; preserve the safety of this code under interruptible conditions. 
0051   0023           00649  banksel SPBRG
0052   009B           00650  movwf SPBRG
MPASM  5.35                        TARGET.ASM   1-15-2020  22:50:04         PAGE 20


LOC  OBJECT CODE     LINE SOURCE TEXT
  VALUE

                      00651  
                      00652 
                      00653 
0053   3003           00654  movlw .3 
                      00655 
                      00656    
                      00657  FAR_CALL hlluserprog ,safepush
0054   3180               M  pagesel safepush
0055   2???               M  call safepush
0056   3180               M  pagesel hlluserprog
                      00658 
                      00659  POP
0057   0013               M  moviw INDF0-- ; preserve the safety of this code under interruptible conditions. 
0058   0023           00660  banksel SPBRGH
0059   009C           00661  movwf SPBRGH
                      00662  
                      00663 
                      00664 
005A   3006           00665  movlw TX9
                      00666 
                      00667 
                      00668    
                      00669  FAR_CALL hlluserprog ,safepush
005B   3180               M  pagesel safepush
005C   2???               M  call safepush
005D   3180               M  pagesel hlluserprog
                      00670 
                      00671 
005E   3005           00672  movlw TXEN
                      00673 
                      00674 
                      00675    
                      00676  FAR_CALL hlluserprog ,safepush
005F   3180               M  pagesel safepush
0060   2???               M  call safepush
0061   3180               M  pagesel hlluserprog
                      00677 
                      00678 
0062   3004           00679  movlw SYNC
                      00680 
                      00681 
                      00682    
                      00683  FAR_CALL hlluserprog ,safepush
0063   3180               M  pagesel safepush
0064   2???               M  call safepush
0065   3180               M  pagesel hlluserprog
                      00684 
0066   0023           00685    banksel TXSTA
0067   081E           00686    movfw TXSTA
                      00687    
                      00688    
                      00689 
                      00690    
MPASM  5.35                        TARGET.ASM   1-15-2020  22:50:04         PAGE 21


LOC  OBJECT CODE     LINE SOURCE TEXT
  VALUE

                      00691  HALF_FAR_CALL safepush
0068   3180               M  pagesel safepush       
0069   2???               M  call safepush
                      00692 
                      00693 
                      00694  
                      00695  HALF_FAR_CALL clearbit
006A   3180               M  pagesel clearbit       
006B   2???               M  call clearbit
                      00696 
                      00697 
                      00698  
                      00699  HALF_FAR_CALL setbit
006C   3180               M  pagesel setbit         
006D   2???               M  call setbit
                      00700 
                      00701 
                      00702  
                      00703  FAR_CALL hlluserprog,clearbit
006E   3180               M  pagesel clearbit
006F   2???               M  call clearbit
0070   3180               M  pagesel hlluserprog
                      00704 
                      00705  POP
0071   0013               M  moviw INDF0-- ; preserve the safety of this code under interruptible conditions. 
0072   0023           00706  banksel TXSTA
0073   009E           00707  movwf TXSTA
                      00708  
                      00709 
                      00710 
0074   3004           00711  movlw SCKP
                      00712 
                      00713 
                      00714    
                      00715  FAR_CALL hlluserprog ,safepush
0075   3180               M  pagesel safepush
0076   2???               M  call safepush
0077   3180               M  pagesel hlluserprog
                      00716 
0078   0023           00717    banksel BAUDCON
0079   081F           00718    movfw BAUDCON
                      00719    
                      00720    
                      00721 
                      00722    
                      00723  HALF_FAR_CALL safepush
007A   3180               M  pagesel safepush       
007B   2???               M  call safepush
                      00724 
                      00725 
                      00726  
                      00727  FAR_CALL hlluserprog,setbit
007C   3180               M  pagesel setbit
MPASM  5.35                        TARGET.ASM   1-15-2020  22:50:04         PAGE 22


LOC  OBJECT CODE     LINE SOURCE TEXT
  VALUE

007D   2???               M  call setbit
007E   3180               M  pagesel hlluserprog
                      00728 
                      00729  POP
007F   0013               M  moviw INDF0-- ; preserve the safety of this code under interruptible conditions. 
0080   0023           00730  banksel BAUDCON
0081   009F           00731  movwf BAUDCON
                      00732  
                      00733 
                      00734 
0082   3007           00735  movlw SPEN
                      00736 
                      00737 
                      00738    
                      00739  FAR_CALL hlluserprog ,safepush
0083   3180               M  pagesel safepush
0084   2???               M  call safepush
0085   3180               M  pagesel hlluserprog
                      00740 
0086   0023           00741    banksel RCSTA
0087   081D           00742    movfw RCSTA
                      00743    
                      00744    
                      00745 
                      00746    
                      00747  HALF_FAR_CALL safepush
0088   3180               M  pagesel safepush       
0089   2???               M  call safepush
                      00748 
                      00749 
                      00750  
                      00751  FAR_CALL hlluserprog,setbit
008A   3180               M  pagesel setbit
008B   2???               M  call setbit
008C   3180               M  pagesel hlluserprog
                      00752 
                      00753  POP
008D   0013               M  moviw INDF0-- ; preserve the safety of this code under interruptible conditions. 
008E   0023           00754  banksel RCSTA
008F   009D           00755  movwf RCSTA
                      00756  
                      00757 
                      00758 
0090   3005           00759  movlw .5 
                      00760 
                      00761    
                      00762  FAR_CALL hlluserprog ,safepush
0091   3180               M  pagesel safepush
0092   2???               M  call safepush
0093   3180               M  pagesel hlluserprog
                      00763 
0094   0021           00764    banksel TRISB
0095   080D           00765    movfw TRISB
MPASM  5.35                        TARGET.ASM   1-15-2020  22:50:04         PAGE 23


LOC  OBJECT CODE     LINE SOURCE TEXT
  VALUE

                      00766    
                      00767    
                      00768 
                      00769    
                      00770  HALF_FAR_CALL safepush
0096   3180               M  pagesel safepush       
0097   2???               M  call safepush
                      00771 
                      00772 
                      00773  
                      00774  FAR_CALL hlluserprog,clearbit
0098   3180               M  pagesel clearbit
0099   2???               M  call clearbit
009A   3180               M  pagesel hlluserprog
                      00775 
                      00776  POP
009B   0013               M  moviw INDF0-- ; preserve the safety of this code under interruptible conditions. 
009C   0021           00777  banksel TRISB
009D   008D           00778  movwf TRISB
                      00779  
                      00780 
                      00781 
009E   3005           00782  movlw .5 
                      00783 
                      00784    
                      00785  FAR_CALL hlluserprog ,safepush
009F   3180               M  pagesel safepush
00A0   2???               M  call safepush
00A1   3180               M  pagesel hlluserprog
                      00786 
00A2   0023           00787    banksel ANSELB
00A3   080D           00788    movfw ANSELB
                      00789    
                      00790    
                      00791 
                      00792    
                      00793  HALF_FAR_CALL safepush
00A4   3180               M  pagesel safepush       
00A5   2???               M  call safepush
                      00794 
                      00795 
                      00796  
                      00797  FAR_CALL hlluserprog,clearbit
00A6   3180               M  pagesel clearbit
00A7   2???               M  call clearbit
00A8   3180               M  pagesel hlluserprog
                      00798 
                      00799  POP
00A9   0013               M  moviw INDF0-- ; preserve the safety of this code under interruptible conditions. 
00AA   0023           00800  banksel ANSELB
00AB   008D           00801  movwf ANSELB
                      00802  
                      00803 
MPASM  5.35                        TARGET.ASM   1-15-2020  22:50:04         PAGE 24


LOC  OBJECT CODE     LINE SOURCE TEXT
  VALUE

                      00804 
00AC   3001           00805  movlw .1 
                      00806 
                      00807    
                      00808  FAR_CALL hlluserprog ,safepush
00AD   3180               M  pagesel safepush
00AE   2???               M  call safepush
00AF   3180               M  pagesel hlluserprog
                      00809 
00B0   0023           00810    banksel ANSELB
00B1   080D           00811    movfw ANSELB
                      00812    
                      00813    
                      00814 
                      00815    
                      00816  HALF_FAR_CALL safepush
00B2   3180               M  pagesel safepush       
00B3   2???               M  call safepush
                      00817 
                      00818 
                      00819  
                      00820  FAR_CALL hlluserprog,clearbit
00B4   3180               M  pagesel clearbit
00B5   2???               M  call clearbit
00B6   3180               M  pagesel hlluserprog
                      00821 
                      00822  POP
00B7   0013               M  moviw INDF0-- ; preserve the safety of this code under interruptible conditions. 
00B8   0023           00823  banksel ANSELB
00B9   008D           00824  movwf ANSELB
                      00825  
                      00826 
                      00827 
00BA   3000           00828  movlw TXCKSEL
                      00829 
                      00830 
                      00831    
                      00832  FAR_CALL hlluserprog ,safepush
00BB   3180               M  pagesel safepush
00BC   2???               M  call safepush
00BD   3180               M  pagesel hlluserprog
                      00833 
00BE   0022           00834    banksel APFCON1
00BF   081E           00835    movfw APFCON1
                      00836    
                      00837    
                      00838 
                      00839    
                      00840  HALF_FAR_CALL safepush
00C0   3180               M  pagesel safepush       
00C1   2???               M  call safepush
                      00841 
                      00842 
MPASM  5.35                        TARGET.ASM   1-15-2020  22:50:04         PAGE 25


LOC  OBJECT CODE     LINE SOURCE TEXT
  VALUE

                      00843  
                      00844  FAR_CALL hlluserprog,setbit
00C2   3180               M  pagesel setbit
00C3   2???               M  call setbit
00C4   3180               M  pagesel hlluserprog
                      00845 
                      00846  POP
00C5   0013               M  moviw INDF0-- ; preserve the safety of this code under interruptible conditions. 
00C6   0022           00847  banksel APFCON1
00C7   009E           00848  movwf APFCON1
                      00849  
                      00850 
                      00851 
00C8   3004           00852  movlw SCKP
                      00853 
                      00854 
                      00855    
                      00856  FAR_CALL hlluserprog ,safepush
00C9   3180               M  pagesel safepush
00CA   2???               M  call safepush
00CB   3180               M  pagesel hlluserprog
                      00857 
00CC   0023           00858    banksel BAUDCON
00CD   081F           00859    movfw BAUDCON
                      00860    
                      00861    
                      00862 
                      00863    
                      00864  HALF_FAR_CALL safepush
00CE   3180               M  pagesel safepush       
00CF   2???               M  call safepush
                      00865 
                      00866 
                      00867  
                      00868  FAR_CALL hlluserprog,clearbit
00D0   3180               M  pagesel clearbit
00D1   2???               M  call clearbit
00D2   3180               M  pagesel hlluserprog
                      00869 
                      00870  POP
00D3   0013               M  moviw INDF0-- ; preserve the safety of this code under interruptible conditions. 
00D4   0023           00871  banksel BAUDCON
00D5   009F           00872  movwf BAUDCON
                      00873  
                      00874 
                      00875 
00D6   3000           00876  movlw .0 
                      00877 
                      00878    
                      00879  FAR_CALL hlluserprog ,safepush
00D7   3180               M  pagesel safepush
00D8   2???               M  call safepush
00D9   3180               M  pagesel hlluserprog
MPASM  5.35                        TARGET.ASM   1-15-2020  22:50:04         PAGE 26


LOC  OBJECT CODE     LINE SOURCE TEXT
  VALUE

                      00880 
                      00881  POP
00DA   0013               M  moviw INDF0-- ; preserve the safety of this code under interruptible conditions. 
00DB   002?           00882  banksel isgll
00DC   00??           00883  movwf isgll
                      00884  
                      00885 
                      00886 
00DD   3000           00887  movlw .0 
                      00888 
                      00889    
                      00890  FAR_CALL hlluserprog ,safepush
00DE   3180               M  pagesel safepush
00DF   2???               M  call safepush
00E0   3180               M  pagesel hlluserprog
                      00891 
                      00892  POP
00E1   0013               M  moviw INDF0-- ; preserve the safety of this code under interruptible conditions. 
00E2   002?           00893  banksel scaler
00E3   00??           00894  movwf scaler
                      00895  
                      00896 
                      00897 
00E4   3007           00898  movlw .7 
                      00899 
                      00900    
                      00901  FAR_CALL hlluserprog ,safepush
00E5   3180               M  pagesel safepush
00E6   2???               M  call safepush
00E7   3180               M  pagesel hlluserprog
                      00902 
00E8   0021           00903    banksel OPTION_REG
00E9   0815           00904    movfw OPTION_REG
                      00905    
                      00906    
                      00907 
                      00908    
                      00909  HALF_FAR_CALL safepush
00EA   3180               M  pagesel safepush       
00EB   2???               M  call safepush
                      00910 
                      00911 
                      00912  
                      00913  FAR_CALL hlluserprog,clearbit
00EC   3180               M  pagesel clearbit
00ED   2???               M  call clearbit
00EE   3180               M  pagesel hlluserprog
                      00914 
                      00915  POP
00EF   0013               M  moviw INDF0-- ; preserve the safety of this code under interruptible conditions. 
00F0   0021           00916  banksel OPTION_REG
00F1   0095           00917  movwf OPTION_REG
                      00918  
MPASM  5.35                        TARGET.ASM   1-15-2020  22:50:04         PAGE 27


LOC  OBJECT CODE     LINE SOURCE TEXT
  VALUE

                      00919 
                      00920 
00F2   3007           00921  movlw GIE
                      00922 
                      00923 
                      00924    
                      00925  FAR_CALL hlluserprog ,safepush
00F3   3180               M  pagesel safepush
00F4   2???               M  call safepush
00F5   3180               M  pagesel hlluserprog
                      00926 
                      00927 
00F6   3003           00928  movlw IOCIE
                      00929 
                      00930 
                      00931    
                      00932  FAR_CALL hlluserprog ,safepush
00F7   3180               M  pagesel safepush
00F8   2???               M  call safepush
00F9   3180               M  pagesel hlluserprog
                      00933 
00FA   0020           00934    banksel INTCON
00FB   080B           00935    movfw INTCON
                      00936    
                      00937    
                      00938 
                      00939    
                      00940  HALF_FAR_CALL safepush
00FC   3180               M  pagesel safepush       
00FD   2???               M  call safepush
                      00941 
                      00942 
                      00943  
                      00944  HALF_FAR_CALL setbit
00FE   3180               M  pagesel setbit         
00FF   2???               M  call setbit
                      00945 
                      00946 
                      00947  
                      00948  FAR_CALL hlluserprog,setbit
0100   3180               M  pagesel setbit
0101   2???               M  call setbit
0102   3180               M  pagesel hlluserprog
                      00949 
                      00950  POP
0103   0013               M  moviw INDF0-- ; preserve the safety of this code under interruptible conditions. 
0104   0020           00951  banksel INTCON
0105   008B           00952  movwf INTCON
                      00953  
                      00954 
                      00955 
0106   3010           00956  movlw .16 
                      00957 
MPASM  5.35                        TARGET.ASM   1-15-2020  22:50:04         PAGE 28


LOC  OBJECT CODE     LINE SOURCE TEXT
  VALUE

                      00958    
                      00959  FAR_CALL hlluserprog ,safepush
0107   3180               M  pagesel safepush
0108   2???               M  call safepush
0109   3180               M  pagesel hlluserprog
                      00960 
                      00961  POP
010A   0013               M  moviw INDF0-- ; preserve the safety of this code under interruptible conditions. 
010B   0027           00962  banksel IOCBP
010C   0094           00963  movwf IOCBP
                      00964  
                      00965 
                      00966 
010D   3010           00967  movlw .16 
                      00968 
                      00969    
                      00970  FAR_CALL hlluserprog ,safepush
010E   3180               M  pagesel safepush
010F   2???               M  call safepush
0110   3180               M  pagesel hlluserprog
                      00971 
                      00972  POP
0111   0013               M  moviw INDF0-- ; preserve the safety of this code under interruptible conditions. 
0112   0021           00973  banksel TRISB
0113   008D           00974  movwf TRISB
                      00975  
                      00976 
                      00977 
0114   3000           00978  movlw .0 
                      00979 
                      00980    
                      00981  FAR_CALL hlluserprog ,safepush
0115   3180               M  pagesel safepush
0116   2???               M  call safepush
0117   3180               M  pagesel hlluserprog
                      00982 
                      00983  POP
0118   0013               M  moviw INDF0-- ; preserve the safety of this code under interruptible conditions. 
0119   0023           00984  banksel ANSELB
011A   008D           00985  movwf ANSELB
                      00986  
                      00987 
                      00988 
011B   3010           00989  movlw .16 
                      00990 
                      00991    
                      00992  FAR_CALL hlluserprog ,safepush
011C   3180               M  pagesel safepush
011D   2???               M  call safepush
011E   3180               M  pagesel hlluserprog
                      00993 
                      00994  POP
011F   0013               M  moviw INDF0-- ; preserve the safety of this code under interruptible conditions. 
MPASM  5.35                        TARGET.ASM   1-15-2020  22:50:04         PAGE 29


LOC  OBJECT CODE     LINE SOURCE TEXT
  VALUE

0120   0024           00995  banksel WPUB
0121   008D           00996  movwf WPUB
                      00997  
                      00998 
                      00999 
0122   3000           01000  movlw .0 
                      01001 
                      01002    
                      01003  FAR_CALL hlluserprog ,safepush
0123   3180               M  pagesel safepush
0124   2???               M  call safepush
0125   3180               M  pagesel hlluserprog
                      01004 
                      01005  POP
0126   0013               M  moviw INDF0-- ; preserve the safety of this code under interruptible conditions. 
0127   0021           01006  banksel TRISA
0128   008C           01007  movwf TRISA
                      01008  
                      01009 
                      01010 
0129   3000           01011  movlw .0 
                      01012 
                      01013    
                      01014  FAR_CALL hlluserprog ,safepush
012A   3180               M  pagesel safepush
012B   2???               M  call safepush
012C   3180               M  pagesel hlluserprog
                      01015 
                      01016  POP
012D   0013               M  moviw INDF0-- ; preserve the safety of this code under interruptible conditions. 
012E   0023           01017  banksel ANSELA
012F   008C           01018  movwf ANSELA
                      01019  
                      01020 
                      01021 
0130   3006           01022  movlw TMR1CS0
                      01023 
                      01024 
                      01025    
                      01026  FAR_CALL hlluserprog ,safepush
0131   3180               M  pagesel safepush
0132   2???               M  call safepush
0133   3180               M  pagesel hlluserprog
                      01027 
                      01028 
0134   3007           01029  movlw TMR1GE
                      01030 
                      01031 
                      01032    
                      01033  FAR_CALL hlluserprog ,safepush
0135   3180               M  pagesel safepush
0136   2???               M  call safepush
0137   3180               M  pagesel hlluserprog
MPASM  5.35                        TARGET.ASM   1-15-2020  22:50:04         PAGE 30


LOC  OBJECT CODE     LINE SOURCE TEXT
  VALUE

                      01034 
                      01035 
0138   3005           01036  movlw T1CKPS1
                      01037 
                      01038 
                      01039    
                      01040  FAR_CALL hlluserprog ,safepush
0139   3180               M  pagesel safepush
013A   2???               M  call safepush
013B   3180               M  pagesel hlluserprog
                      01041 
                      01042 
013C   3004           01043  movlw T1CKPS0
                      01044 
                      01045 
                      01046    
                      01047  FAR_CALL hlluserprog ,safepush
013D   3180               M  pagesel safepush
013E   2???               M  call safepush
013F   3180               M  pagesel hlluserprog
                      01048 
                      01049 
0140   3002           01050  movlw NOT_T1SYNC
                      01051 
                      01052 
                      01053    
                      01054  FAR_CALL hlluserprog ,safepush
0141   3180               M  pagesel safepush
0142   2???               M  call safepush
0143   3180               M  pagesel hlluserprog
                      01055 
                      01056 
0144   3003           01057  movlw T1OSCEN
                      01058 
                      01059 
                      01060    
                      01061  FAR_CALL hlluserprog ,safepush
0145   3180               M  pagesel safepush
0146   2???               M  call safepush
0147   3180               M  pagesel hlluserprog
                      01062 
0148   0020           01063    banksel T1CON
0149   0818           01064    movfw T1CON
                      01065    
                      01066    
                      01067 
                      01068    
                      01069  HALF_FAR_CALL safepush
014A   3180               M  pagesel safepush       
014B   2???               M  call safepush
                      01070 
                      01071 
                      01072  
MPASM  5.35                        TARGET.ASM   1-15-2020  22:50:04         PAGE 31


LOC  OBJECT CODE     LINE SOURCE TEXT
  VALUE

                      01073  HALF_FAR_CALL clearbit
014C   3180               M  pagesel clearbit       
014D   2???               M  call clearbit
                      01074 
                      01075 
                      01076  
                      01077  HALF_FAR_CALL clearbit
014E   3180               M  pagesel clearbit       
014F   2???               M  call clearbit
                      01078 
                      01079 
                      01080  
                      01081  HALF_FAR_CALL setbit
0150   3180               M  pagesel setbit         
0151   2???               M  call setbit
                      01082 
                      01083 
                      01084  
                      01085  HALF_FAR_CALL setbit
0152   3180               M  pagesel setbit         
0153   2???               M  call setbit
                      01086 
                      01087 
                      01088  
                      01089  HALF_FAR_CALL clearbit
0154   3180               M  pagesel clearbit       
0155   2???               M  call clearbit
                      01090 
                      01091 
                      01092  
                      01093  FAR_CALL hlluserprog,clearbit
0156   3180               M  pagesel clearbit
0157   2???               M  call clearbit
0158   3180               M  pagesel hlluserprog
                      01094 
                      01095  POP
0159   0013               M  moviw INDF0-- ; preserve the safety of this code under interruptible conditions. 
015A   0020           01096  banksel T1CON
015B   0098           01097  movwf T1CON
                      01098  
                      01099 
                      01100 
015C   3000           01101  movlw TMR1IE
                      01102 
                      01103 
                      01104    
                      01105  FAR_CALL hlluserprog ,safepush
015D   3180               M  pagesel safepush
015E   2???               M  call safepush
015F   3180               M  pagesel hlluserprog
                      01106 
0160   0021           01107    banksel PIE1
0161   0811           01108    movfw PIE1
MPASM  5.35                        TARGET.ASM   1-15-2020  22:50:04         PAGE 32


LOC  OBJECT CODE     LINE SOURCE TEXT
  VALUE

                      01109    
                      01110    
                      01111 
                      01112    
                      01113  HALF_FAR_CALL safepush
0162   3180               M  pagesel safepush       
0163   2???               M  call safepush
                      01114 
                      01115 
                      01116  
                      01117  FAR_CALL hlluserprog,setbit
0164   3180               M  pagesel setbit
0165   2???               M  call setbit
0166   3180               M  pagesel hlluserprog
                      01118 
                      01119  POP
0167   0013               M  moviw INDF0-- ; preserve the safety of this code under interruptible conditions. 
0168   0021           01120  banksel PIE1
0169   0091           01121  movwf PIE1
                      01122  
                      01123 
                      01124 
016A   3006           01125  movlw PEIE
                      01126 
                      01127 
                      01128    
                      01129  FAR_CALL hlluserprog ,safepush
016B   3180               M  pagesel safepush
016C   2???               M  call safepush
016D   3180               M  pagesel hlluserprog
                      01130 
016E   0020           01131    banksel INTCON
016F   080B           01132    movfw INTCON
                      01133    
                      01134    
                      01135 
                      01136    
                      01137  HALF_FAR_CALL safepush
0170   3180               M  pagesel safepush       
0171   2???               M  call safepush
                      01138 
                      01139 
                      01140  
                      01141  FAR_CALL hlluserprog,setbit
0172   3180               M  pagesel setbit
0173   2???               M  call setbit
0174   3180               M  pagesel hlluserprog
                      01142 
                      01143  POP
0175   0013               M  moviw INDF0-- ; preserve the safety of this code under interruptible conditions. 
0176   0020           01144  banksel INTCON
0177   008B           01145  movwf INTCON
                      01146  
MPASM  5.35                        TARGET.ASM   1-15-2020  22:50:04         PAGE 33


LOC  OBJECT CODE     LINE SOURCE TEXT
  VALUE

                      01147 
                      01148 
0178   3000           01149  movlw TMR1ON
                      01150 
                      01151 
                      01152    
                      01153  FAR_CALL hlluserprog ,safepush
0179   3180               M  pagesel safepush
017A   2???               M  call safepush
017B   3180               M  pagesel hlluserprog
                      01154 
017C   0020           01155    banksel T1CON
017D   0818           01156    movfw T1CON
                      01157    
                      01158    
                      01159 
                      01160    
                      01161  HALF_FAR_CALL safepush
017E   3180               M  pagesel safepush       
017F   2???               M  call safepush
                      01162 
                      01163 
                      01164  
                      01165  FAR_CALL hlluserprog,setbit
0180   3180               M  pagesel setbit
0181   2???               M  call setbit
0182   3180               M  pagesel hlluserprog
                      01166 
                      01167  POP
0183   0013               M  moviw INDF0-- ; preserve the safety of this code under interruptible conditions. 
0184   0020           01168  banksel T1CON
0185   0098           01169  movwf T1CON
                      01170  
                      01171 
                      01172 
0186   3007           01173  movlw GIE
                      01174 
                      01175 
                      01176    
                      01177  FAR_CALL hlluserprog ,safepush
0187   3180               M  pagesel safepush
0188   2???               M  call safepush
0189   3180               M  pagesel hlluserprog
                      01178 
018A   0020           01179    banksel INTCON
018B   080B           01180    movfw INTCON
                      01181    
                      01182    
                      01183 
                      01184    
                      01185  HALF_FAR_CALL safepush
018C   3180               M  pagesel safepush       
018D   2???               M  call safepush
MPASM  5.35                        TARGET.ASM   1-15-2020  22:50:04         PAGE 34


LOC  OBJECT CODE     LINE SOURCE TEXT
  VALUE

                      01186 
                      01187 
                      01188  
                      01189  FAR_CALL hlluserprog,setbit
018E   3180               M  pagesel setbit
018F   2???               M  call setbit
0190   3180               M  pagesel hlluserprog
                      01190 
                      01191  POP
0191   0013               M  moviw INDF0-- ; preserve the safety of this code under interruptible conditions. 
0192   0020           01192  banksel INTCON
0193   008B           01193  movwf INTCON
                      01194  
                      01195 
                      01196 
                      01197  
                      01198  FAR_CALL hlluserprog,mainloop
0194   3180               M  pagesel mainloop
0195   2???               M  call mainloop
0196   3180               M  pagesel hlluserprog
                      01199 
                      01200     
0197                  01201 hllprogend:
0197   2???           01202  goto hllprogend
                      01203  
                      01204 
                      01205 hllt452 CODE
0000                  01206 mainloop:
                      01207 
                      01208 
                      01209  
                      01210  FAR_CALL mainloop,dofunc
0000   3180               M  pagesel dofunc
0001   2???               M  call dofunc
0002   3180               M  pagesel mainloop
                      01211 
                      01212  ;
0003   2???           01213  goto mainloop
                      01214 
                      01215  
                      01216 
                      01217 hllt453 CODE
0000                  01218 dofunc:
                      01219 
0000   0804           01220  movf FSR0L,w
                      01221  
                      01222 
                      01223  
                      01224  FAR_CALL dofunc ,kpush
0001   3180               M  pagesel kpush
0002   2???               M  call kpush
0003   3180               M  pagesel dofunc
                      01225 
MPASM  5.35                        TARGET.ASM   1-15-2020  22:50:04         PAGE 35


LOC  OBJECT CODE     LINE SOURCE TEXT
  VALUE

                      01226 
0004   3000           01227  movlw .0 
                      01228 
                      01229    
                      01230  HALF_FAR_CALL safepush
0005   3180               M  pagesel safepush       
0006   2???               M  call safepush
                      01231 
                      01232 
                      01233  
                      01234  FAR_CALL dofunc,getch
0007   3180               M  pagesel getch
0008   2???               M  call getch
0009   3180               M  pagesel dofunc
                      01235 
                      01236 
000A   3001           01237  movlw .1
                      01238 
                      01239    
                      01240  HALF_FAR_CALL safepush
000B   3180               M  pagesel safepush       
000C   2???               M  call safepush
                      01241 
                      01242 
                      01243  
                      01244  HALF_FAR_CALL receive
000D   3180               M  pagesel receive        
000E   2???               M  call receive
                      01245 
                      01246 
                      01247  
                      01248  FAR_CALL dofunc,kpop
000F   3180               M  pagesel kpop
0010   2???               M  call kpop
0011   3180               M  pagesel dofunc
                      01249 ; LOAD POINTER
                      01250 
0012   0084           01251  movwf FSR0L
                      01252  
                      01253 
0013   0008           01254  return
                      01255  
                      01256 
                      01257 hllt4514 CODE
0000                  01258 receive:
                      01259 
0000   0804           01260  movf FSR0L,w
                      01261  
                      01262 
                      01263  
                      01264  FAR_CALL receive ,kpush
0001   3180               M  pagesel kpush
0002   2???               M  call kpush
MPASM  5.35                        TARGET.ASM   1-15-2020  22:50:04         PAGE 36


LOC  OBJECT CODE     LINE SOURCE TEXT
  VALUE

0003   3180               M  pagesel receive
                      01265 
                      01266 
0004   3001           01267  movlw .1
                      01268 
                      01269    
                      01270  HALF_FAR_CALL safepush
0005   3180               M  pagesel safepush       
0006   2???               M  call safepush
                      01271 
                      01272 
                      01273  
                      01274  FAR_CALL receive,parm
0007   3180               M  pagesel parm
0008   2???               M  call parm
0009   3180               M  pagesel receive
                      01275 
                      01276  ; char ','
                      01277 
                      01278 
000A   302C           01279  movlw .44
                      01280 
                      01281 
                      01282    
                      01283  HALF_FAR_CALL safepush
000B   3180               M  pagesel safepush       
000C   2???               M  call safepush
                      01284 
                      01285 
                      01286  
                      01287  FAR_CALL receive,eq
000D   3180               M  pagesel eq
000E   2???               M  call eq
000F   3180               M  pagesel receive
                      01288 
                      01289  POP
0010   0013               M  moviw INDF0-- ; preserve the safety of this code under interruptible conditions. 
0011   3A00           01290  xorlw .0
0012   1903           01291  btfsc STATUS,Z
0013   2???           01292  goto hlllb51J12 
                      01293  
0014   002?           01294    banksel isgll
0015   08??           01295    movfw isgll
                      01296    
                      01297    
                      01298 
                      01299    
                      01300  FAR_CALL receive ,safepush
0016   3180               M  pagesel safepush
0017   2???               M  call safepush
0018   3180               M  pagesel receive
                      01301 
                      01302 
MPASM  5.35                        TARGET.ASM   1-15-2020  22:50:04         PAGE 37


LOC  OBJECT CODE     LINE SOURCE TEXT
  VALUE

0019   3002           01303  movlw .2
                      01304 
                      01305    
                      01306  HALF_FAR_CALL safepush
001A   3180               M  pagesel safepush       
001B   2???               M  call safepush
                      01307 
                      01308 
                      01309  
                      01310  FAR_CALL receive,geu
001C   3180               M  pagesel geu
001D   2???               M  call geu
001E   3180               M  pagesel receive
                      01311 
                      01312  POP
001F   0013               M  moviw INDF0-- ; preserve the safety of this code under interruptible conditions. 
0020   3A00           01313  xorlw .0
0021   1903           01314  btfsc STATUS,Z
0022   2???           01315  goto hlllb51J8 
                      01316  
                      01317 
0023   30FF           01318  movlw -.1
                      01319 
                      01320    
                      01321  FAR_CALL receive ,safepush
0024   3180               M  pagesel safepush
0025   2???               M  call safepush
0026   3180               M  pagesel receive
                      01322 
0027   002?           01323    banksel isgll
0028   08??           01324    movfw isgll
                      01325    
                      01326    
                      01327 
                      01328    
                      01329  HALF_FAR_CALL safepush
0029   3180               M  pagesel safepush       
002A   2???               M  call safepush
                      01330 
                      01331 
                      01332  
                      01333  FAR_CALL receive,add
002B   3180               M  pagesel add
002C   2???               M  call add
002D   3180               M  pagesel receive
                      01334 
                      01335  POP
002E   0013               M  moviw INDF0-- ; preserve the safety of this code under interruptible conditions. 
002F   002?           01336  banksel isgll
0030   00??           01337  movwf isgll
                      01338  
                      01339 
                      01340 
MPASM  5.35                        TARGET.ASM   1-15-2020  22:50:04         PAGE 38


LOC  OBJECT CODE     LINE SOURCE TEXT
  VALUE

0031   3000           01341  movlw .0
                      01342 
                      01343    
                      01344  HALF_FAR_CALL safepush
0032   3180               M  pagesel safepush       
0033   2???               M  call safepush
                      01345 
                      01346 
                      01347  
                      01348  FAR_CALL receive,parm
0034   3180               M  pagesel parm
0035   2???               M  call parm
0036   3180               M  pagesel receive
                      01349 
                      01350  POP
0037   0013               M  moviw INDF0-- ; preserve the safety of this code under interruptible conditions. 
0038   002?           01351  banksel temp
0039   00??           01352  movwf temp
                      01353  
                      01354 
                      01355 
                      01356  
                      01357  HALF_FAR_CALL dispose
003A   3180               M  pagesel dispose        
003B   2???               M  call dispose
                      01358 
                      01359 
                      01360  
                      01361  FAR_CALL receive,getch
003C   3180               M  pagesel getch
003D   2???               M  call getch
003E   3180               M  pagesel receive
                      01362 
                      01363 
003F   3001           01364  movlw .1 
                      01365 
                      01366    
                      01367  FAR_CALL receive ,safepush
0040   3180               M  pagesel safepush
0041   2???               M  call safepush
0042   3180               M  pagesel receive
                      01368 
0043   002?           01369    banksel temp
0044   08??           01370    movfw temp
                      01371    
                      01372    
                      01373 
                      01374    
                      01375  HALF_FAR_CALL safepush
0045   3180               M  pagesel safepush       
0046   2???               M  call safepush
                      01376 
                      01377 
MPASM  5.35                        TARGET.ASM   1-15-2020  22:50:04         PAGE 39


LOC  OBJECT CODE     LINE SOURCE TEXT
  VALUE

                      01378  
                      01379  FAR_CALL receive,add
0047   3180               M  pagesel add
0048   2???               M  call add
0049   3180               M  pagesel receive
                      01380 
                      01381  ;KDISCARD 
                      01382 
                      01383 
                      01384  
                      01385  FAR_CALL receive,receive
004A   3180               M  pagesel receive
004B   2???               M  call receive
004C   3180               M  pagesel receive
                      01386 
                      01387 
004D   3001           01388  movlw .1 
                      01389 
                      01390    
                      01391  FAR_CALL receive ,safepush
004E   3180               M  pagesel safepush
004F   2???               M  call safepush
0050   3180               M  pagesel receive
                      01392 
                      01393  
0051   2???           01394  goto hlllb51J9
                      01395  
                      01396 
0052                  01397 hlllb51J8:
                      01398 
0052   002?           01399    banksel isgll
0053   08??           01400    movfw isgll
                      01401    
                      01402    
                      01403 
                      01404    
                      01405  FAR_CALL receive ,safepush
0054   3180               M  pagesel safepush
0055   2???               M  call safepush
0056   3180               M  pagesel receive
                      01406 
                      01407 
0057   3001           01408  movlw .1
                      01409 
                      01410    
                      01411  HALF_FAR_CALL safepush
0058   3180               M  pagesel safepush       
0059   2???               M  call safepush
                      01412 
                      01413 
                      01414  
                      01415  FAR_CALL receive,eq
005A   3180               M  pagesel eq
MPASM  5.35                        TARGET.ASM   1-15-2020  22:50:04         PAGE 40


LOC  OBJECT CODE     LINE SOURCE TEXT
  VALUE

005B   2???               M  call eq
005C   3180               M  pagesel receive
                      01416 
                      01417  POP
005D   0013               M  moviw INDF0-- ; preserve the safety of this code under interruptible conditions. 
005E   3A00           01418  xorlw .0
005F   1903           01419  btfsc STATUS,Z
0060   2???           01420  goto hlllb51J6 
                      01421  
                      01422 
0061   3000           01423  movlw .0
                      01424 
                      01425    
                      01426  FAR_CALL receive ,safepush
0062   3180               M  pagesel safepush
0063   2???               M  call safepush
0064   3180               M  pagesel receive
                      01427 
                      01428  POP
0065   0013               M  moviw INDF0-- ; preserve the safety of this code under interruptible conditions. 
0066   002?           01429  banksel isgll
0067   00??           01430  movwf isgll
                      01431  
                      01432 
                      01433 
                      01434  
                      01435  FAR_CALL receive,purge
0068   3180               M  pagesel purge
0069   2???               M  call purge
006A   3180               M  pagesel receive
                      01436 
                      01437  
006B   2???           01438  goto hlllb51J7
                      01439  
                      01440 
006C                  01441 hlllb51J6:
                      01442 
                      01443 
006C   3002           01444  movlw .2
                      01445 
                      01446    
                      01447  HALF_FAR_CALL safepush
006D   3180               M  pagesel safepush       
006E   2???               M  call safepush
                      01448 
                      01449 
                      01450  
                      01451  FAR_CALL receive,parm
006F   3180               M  pagesel parm
0070   2???               M  call parm
0071   3180               M  pagesel receive
                      01452 
                      01453  ; char 'L'
MPASM  5.35                        TARGET.ASM   1-15-2020  22:50:04         PAGE 41


LOC  OBJECT CODE     LINE SOURCE TEXT
  VALUE

                      01454 
                      01455 
0072   304C           01456  movlw .76
                      01457 
                      01458 
                      01459    
                      01460  HALF_FAR_CALL safepush
0073   3180               M  pagesel safepush       
0074   2???               M  call safepush
                      01461 
                      01462 
                      01463  
                      01464  FAR_CALL receive,eq
0075   3180               M  pagesel eq
0076   2???               M  call eq
0077   3180               M  pagesel receive
                      01465 
                      01466 
0078   3003           01467  movlw .3
                      01468 
                      01469    
                      01470  HALF_FAR_CALL safepush
0079   3180               M  pagesel safepush       
007A   2???               M  call safepush
                      01471 
                      01472 
                      01473  
                      01474  FAR_CALL receive,parm
007B   3180               M  pagesel parm
007C   2???               M  call parm
007D   3180               M  pagesel receive
                      01475 
                      01476  ; char 'L'
                      01477 
                      01478 
007E   304C           01479  movlw .76
                      01480 
                      01481 
                      01482    
                      01483  HALF_FAR_CALL safepush
007F   3180               M  pagesel safepush       
0080   2???               M  call safepush
                      01484 
                      01485 
                      01486  
                      01487  HALF_FAR_CALL eq
0081   3180               M  pagesel eq             
0082   2???               M  call eq
                      01488 
                      01489 
                      01490  
                      01491  FAR_CALL receive,andb
0083   3180               M  pagesel andb
MPASM  5.35                        TARGET.ASM   1-15-2020  22:50:04         PAGE 42


LOC  OBJECT CODE     LINE SOURCE TEXT
  VALUE

0084   2???               M  call andb
0085   3180               M  pagesel receive
                      01492 
                      01493  POP
0086   0013               M  moviw INDF0-- ; preserve the safety of this code under interruptible conditions. 
0087   3A00           01494  xorlw .0
0088   1903           01495  btfsc STATUS,Z
0089   2???           01496  goto hlllb51J4 
                      01497  
                      01498 
008A   3004           01499  movlw .4
                      01500 
                      01501    
                      01502  FAR_CALL receive ,safepush
008B   3180               M  pagesel safepush
008C   2???               M  call safepush
008D   3180               M  pagesel receive
                      01503 
                      01504  POP
008E   0013               M  moviw INDF0-- ; preserve the safety of this code under interruptible conditions. 
008F   002?           01505  banksel isgll
0090   00??           01506  movwf isgll
                      01507  
                      01508 
                      01509  
0091   2???           01510  goto hlllb51J5
                      01511  
                      01512 
0092                  01513 hlllb51J4:
                      01514 
                      01515 
0092                  01516 hlllb51J5:
                      01517 
                      01518 
0092                  01519 hlllb51J7:
                      01520 
                      01521 
0092                  01522 hlllb51J9:
                      01523 
                      01524  
0092   2???           01525  goto hlllb51J13
                      01526  
                      01527 
0093                  01528 hlllb51J12:
                      01529 
                      01530 
0093   3000           01531  movlw .0
                      01532 
                      01533    
                      01534  HALF_FAR_CALL safepush
0094   3180               M  pagesel safepush       
0095   2???               M  call safepush
                      01535 
MPASM  5.35                        TARGET.ASM   1-15-2020  22:50:04         PAGE 43


LOC  OBJECT CODE     LINE SOURCE TEXT
  VALUE

                      01536 
                      01537  
                      01538  FAR_CALL receive,parm
0096   3180               M  pagesel parm
0097   2???               M  call parm
0098   3180               M  pagesel receive
                      01539 
                      01540 
0099   301C           01541  movlw .28
                      01542 
                      01543    
                      01544  HALF_FAR_CALL safepush
009A   3180               M  pagesel safepush       
009B   2???               M  call safepush
                      01545 
                      01546 
                      01547  
                      01548  FAR_CALL receive,geu
009C   3180               M  pagesel geu
009D   2???               M  call geu
009E   3180               M  pagesel receive
                      01549 
                      01550  POP
009F   0013               M  moviw INDF0-- ; preserve the safety of this code under interruptible conditions. 
00A0   3A00           01551  xorlw .0
00A1   1903           01552  btfsc STATUS,Z
00A2   2???           01553  goto hlllb51J10 
                      01554  
                      01555 
00A3   3000           01556  movlw .0 
                      01557 
                      01558    
                      01559  FAR_CALL receive ,safepush
00A4   3180               M  pagesel safepush
00A5   2???               M  call safepush
00A6   3180               M  pagesel receive
                      01560 
                      01561  POP
00A7   0013               M  moviw INDF0-- ; preserve the safety of this code under interruptible conditions. 
00A8   002?           01562  banksel filtervalid
00A9   00??           01563  movwf filtervalid
                      01564  
                      01565 
                      01566  
00AA   2???           01567  goto hlllb51J11
                      01568  
                      01569 
00AB                  01570 hlllb51J10:
                      01571 
                      01572 
00AB   3000           01573  movlw .0
                      01574 
                      01575    
MPASM  5.35                        TARGET.ASM   1-15-2020  22:50:04         PAGE 44


LOC  OBJECT CODE     LINE SOURCE TEXT
  VALUE

                      01576  HALF_FAR_CALL safepush
00AC   3180               M  pagesel safepush       
00AD   2???               M  call safepush
                      01577 
                      01578 
                      01579  
                      01580  FAR_CALL receive,parm
00AE   3180               M  pagesel parm
00AF   2???               M  call parm
00B0   3180               M  pagesel receive
                      01581 
                      01582  POP
00B1   0013               M  moviw INDF0-- ; preserve the safety of this code under interruptible conditions. 
00B2   002?           01583  banksel temp
00B3   00??           01584  movwf temp
                      01585  
                      01586 
                      01587 
                      01588  
                      01589  HALF_FAR_CALL dispose
00B4   3180               M  pagesel dispose        
00B5   2???               M  call dispose
                      01590 
                      01591 
                      01592  
                      01593  FAR_CALL receive,getch
00B6   3180               M  pagesel getch
00B7   2???               M  call getch
00B8   3180               M  pagesel receive
                      01594 
                      01595 
00B9   3001           01596  movlw .1 
                      01597 
                      01598    
                      01599  FAR_CALL receive ,safepush
00BA   3180               M  pagesel safepush
00BB   2???               M  call safepush
00BC   3180               M  pagesel receive
                      01600 
00BD   002?           01601    banksel temp
00BE   08??           01602    movfw temp
                      01603    
                      01604    
                      01605 
                      01606    
                      01607  HALF_FAR_CALL safepush
00BF   3180               M  pagesel safepush       
00C0   2???               M  call safepush
                      01608 
                      01609 
                      01610  
                      01611  FAR_CALL receive,add
00C1   3180               M  pagesel add
MPASM  5.35                        TARGET.ASM   1-15-2020  22:50:04         PAGE 45


LOC  OBJECT CODE     LINE SOURCE TEXT
  VALUE

00C2   2???               M  call add
00C3   3180               M  pagesel receive
                      01612 
                      01613  ;
                      01614 
                      01615 
                      01616  KDISCARD 
00C4   0386               M  decf FSR1L,f 
00C5   2???           01617  goto receive
00C6                  01618 hlllb51J11:
00C6                  01619 hlllb51J13:
                      01620 
                      01621  KDISCARD 
00C6   0386               M  decf FSR1L,f 
00C7   0008           01622  return 
                      01623 
                      01624  
                      01625 
                      01626 hllt4523 CODE
0000                  01627 purge:
                      01628 
0000   0804           01629  movf FSR0L,w
                      01630  
                      01631 
                      01632  
                      01633  FAR_CALL purge ,kpush
0001   3180               M  pagesel kpush
0002   2???               M  call kpush
0003   3180               M  pagesel purge
                      01634 
                      01635 
0004   3000           01636  movlw .0
                      01637 
                      01638    
                      01639  HALF_FAR_CALL safepush
0005   3180               M  pagesel safepush       
0006   2???               M  call safepush
                      01640 
                      01641 
                      01642  
                      01643  FAR_CALL purge,parm
0007   3180               M  pagesel parm
0008   2???               M  call parm
0009   3180               M  pagesel purge
                      01644 
                      01645 
000A   301B           01646  movlw .27
                      01647 
                      01648    
                      01649  HALF_FAR_CALL safepush
000B   3180               M  pagesel safepush       
000C   2???               M  call safepush
                      01650 
MPASM  5.35                        TARGET.ASM   1-15-2020  22:50:04         PAGE 46


LOC  OBJECT CODE     LINE SOURCE TEXT
  VALUE

                      01651 
                      01652  
                      01653  FAR_CALL purge,eq
000D   3180               M  pagesel eq
000E   2???               M  call eq
000F   3180               M  pagesel purge
                      01654 
                      01655  POP
0010   0013               M  moviw INDF0-- ; preserve the safety of this code under interruptible conditions. 
0011   3A00           01656  xorlw .0
0012   1903           01657  btfsc STATUS,Z
0013   2???           01658  goto hlllb51J21 
                      01659  
                      01660 
0014   3000           01661  movlw .0
                      01662  
                      01663 
                      01664 
                      01665 
                      01666    
                      01667  FAR_CALL purge ,safepush
0015   3180               M  pagesel safepush
0016   2???               M  call safepush
0017   3180               M  pagesel purge
                      01668 
                      01669 
0018   3080           01670  movlw .128
                      01671  
                      01672 
                      01673 
                      01674    
                      01675  FAR_CALL purge ,safepush
0019   3180               M  pagesel safepush
001A   2???               M  call safepush
001B   3180               M  pagesel purge
                      01676 
                      01677 
001C   3020           01678  movlw .32
                      01679  
                      01680 
                      01681 
                      01682 
                      01683    
                      01684  FAR_CALL purge ,safepush
001D   3180               M  pagesel safepush
001E   2???               M  call safepush
001F   3180               M  pagesel purge
                      01685 
                      01686 
0020   3003           01687  movlw .3
                      01688  
                      01689 
                      01690 
MPASM  5.35                        TARGET.ASM   1-15-2020  22:50:04         PAGE 47


LOC  OBJECT CODE     LINE SOURCE TEXT
  VALUE

                      01691    
                      01692  FAR_CALL purge ,safepush
0021   3180               M  pagesel safepush
0022   2???               M  call safepush
0023   3180               M  pagesel purge
                      01693 
                      01694 
0024   30FF           01695  movlw -.1
                      01696 
                      01697    
                      01698  FAR_CALL purge ,safepush
0025   3180               M  pagesel safepush
0026   2???               M  call safepush
0027   3180               M  pagesel purge
                      01699 
                      01700  ; char '0'
                      01701 
                      01702 
0028   3030           01703  movlw .48
                      01704 
                      01705 
                      01706    
                      01707  HALF_FAR_CALL safepush
0029   3180               M  pagesel safepush       
002A   2???               M  call safepush
                      01708 
                      01709 
                      01710  
                      01711  FAR_CALL purge,mul
002B   3180               M  pagesel mul
002C   2???               M  call mul
002D   3180               M  pagesel purge
                      01712 
                      01713 
002E   301B           01714  movlw .27
                      01715 
                      01716    
                      01717  HALF_FAR_CALL safepush
002F   3180               M  pagesel safepush       
0030   2???               M  call safepush
                      01718 
                      01719 
                      01720  
                      01721  HALF_FAR_CALL parm
0031   3180               M  pagesel parm           
0032   2???               M  call parm
                      01722 
                      01723 
                      01724  
                      01725  HALF_FAR_CALL add
0033   3180               M  pagesel add            
0034   2???               M  call add
                      01726 
MPASM  5.35                        TARGET.ASM   1-15-2020  22:50:04         PAGE 48


LOC  OBJECT CODE     LINE SOURCE TEXT
  VALUE

                      01727 
                      01728  
                      01729  HALF_FAR_CALL utof
0035   3180               M  pagesel utof           
0036   2???               M  call utof
                      01730 
                      01731 
                      01732  
                      01733  HALF_FAR_CALL mulf
0037   3180               M  pagesel mulf           
0038   2???               M  call mulf
                      01734 
                      01735 
                      01736  
                      01737  FAR_CALL purge,addf
0039   3180               M  pagesel addf
003A   2???               M  call addf
003B   3180               M  pagesel purge
                      01738 
                      01739 
003C   30FF           01740  movlw -.1
                      01741 
                      01742    
                      01743  FAR_CALL purge ,safepush
003D   3180               M  pagesel safepush
003E   2???               M  call safepush
003F   3180               M  pagesel purge
                      01744 
                      01745  ; char '0'
                      01746 
                      01747 
0040   3030           01748  movlw .48
                      01749 
                      01750 
                      01751    
                      01752  HALF_FAR_CALL safepush
0041   3180               M  pagesel safepush       
0042   2???               M  call safepush
                      01753 
                      01754 
                      01755  
                      01756  FAR_CALL purge,mul
0043   3180               M  pagesel mul
0044   2???               M  call mul
0045   3180               M  pagesel purge
                      01757 
                      01758 
0046   301A           01759  movlw .26
                      01760 
                      01761    
                      01762  HALF_FAR_CALL safepush
0047   3180               M  pagesel safepush       
0048   2???               M  call safepush
MPASM  5.35                        TARGET.ASM   1-15-2020  22:50:04         PAGE 49


LOC  OBJECT CODE     LINE SOURCE TEXT
  VALUE

                      01763 
                      01764 
                      01765  
                      01766  HALF_FAR_CALL parm
0049   3180               M  pagesel parm           
004A   2???               M  call parm
                      01767 
                      01768 
                      01769  
                      01770  HALF_FAR_CALL add
004B   3180               M  pagesel add            
004C   2???               M  call add
                      01771 
                      01772 
                      01773  
                      01774  HALF_FAR_CALL utof
004D   3180               M  pagesel utof           
004E   2???               M  call utof
                      01775 
                      01776 
                      01777  
                      01778  FAR_CALL purge,addf
004F   3180               M  pagesel addf
0050   2???               M  call addf
0051   3180               M  pagesel purge
                      01779 
                      01780  POP
0052   0013               M  moviw INDF0-- ; preserve the safety of this code under interruptible conditions. 
0053   002?           01781  banksel latdegb
0054   00??           01782  movwf latdegb
                      01783  
                      01784 
                      01785  POP
0055   0013               M  moviw INDF0-- ; preserve the safety of this code under interruptible conditions. 
0056   002?           01786  banksel latdeg
0057   00??           01787  movwf latdeg
                      01788  
                      01789 
                      01790 
0058   3000           01791  movlw .0
                      01792  
                      01793 
                      01794 
                      01795 
                      01796    
                      01797  FAR_CALL purge ,safepush
0059   3180               M  pagesel safepush
005A   2???               M  call safepush
005B   3180               M  pagesel purge
                      01798 
                      01799 
005C   3080           01800  movlw .128
                      01801  
MPASM  5.35                        TARGET.ASM   1-15-2020  22:50:04         PAGE 50


LOC  OBJECT CODE     LINE SOURCE TEXT
  VALUE

                      01802 
                      01803 
                      01804    
                      01805  FAR_CALL purge ,safepush
005D   3180               M  pagesel safepush
005E   2???               M  call safepush
005F   3180               M  pagesel purge
                      01806 
                      01807 
0060   3048           01808  movlw .72
                      01809  
                      01810 
                      01811 
                      01812 
                      01813    
                      01814  FAR_CALL purge ,safepush
0061   3180               M  pagesel safepush
0062   2???               M  call safepush
0063   3180               M  pagesel purge
                      01815 
                      01816 
0064   3006           01817  movlw .6
                      01818  
                      01819 
                      01820 
                      01821    
                      01822  FAR_CALL purge ,safepush
0065   3180               M  pagesel safepush
0066   2???               M  call safepush
0067   3180               M  pagesel purge
                      01823 
                      01824 
0068   30FF           01825  movlw -.1
                      01826 
                      01827    
                      01828  FAR_CALL purge ,safepush
0069   3180               M  pagesel safepush
006A   2???               M  call safepush
006B   3180               M  pagesel purge
                      01829 
                      01830  ; char '0'
                      01831 
                      01832 
006C   3030           01833  movlw .48
                      01834 
                      01835 
                      01836    
                      01837  HALF_FAR_CALL safepush
006D   3180               M  pagesel safepush       
006E   2???               M  call safepush
                      01838 
                      01839 
                      01840  
MPASM  5.35                        TARGET.ASM   1-15-2020  22:50:04         PAGE 51


LOC  OBJECT CODE     LINE SOURCE TEXT
  VALUE

                      01841  FAR_CALL purge,mul
006F   3180               M  pagesel mul
0070   2???               M  call mul
0071   3180               M  pagesel purge
                      01842 
                      01843 
0072   300E           01844  movlw .14
                      01845 
                      01846    
                      01847  HALF_FAR_CALL safepush
0073   3180               M  pagesel safepush       
0074   2???               M  call safepush
                      01848 
                      01849 
                      01850  
                      01851  HALF_FAR_CALL parm
0075   3180               M  pagesel parm           
0076   2???               M  call parm
                      01852 
                      01853 
                      01854  
                      01855  HALF_FAR_CALL add
0077   3180               M  pagesel add            
0078   2???               M  call add
                      01856 
                      01857 
                      01858  
                      01859  HALF_FAR_CALL utof
0079   3180               M  pagesel utof           
007A   2???               M  call utof
                      01860 
                      01861 
                      01862  
                      01863  HALF_FAR_CALL mulf
007B   3180               M  pagesel mulf           
007C   2???               M  call mulf
                      01864 
                      01865 
                      01866  
                      01867  FAR_CALL purge,addf
007D   3180               M  pagesel addf
007E   2???               M  call addf
007F   3180               M  pagesel purge
                      01868 
                      01869 
0080   3020           01870  movlw .32
                      01871  
                      01872 
                      01873 
                      01874 
                      01875    
                      01876  FAR_CALL purge ,safepush
0081   3180               M  pagesel safepush
MPASM  5.35                        TARGET.ASM   1-15-2020  22:50:04         PAGE 52


LOC  OBJECT CODE     LINE SOURCE TEXT
  VALUE

0082   2???               M  call safepush
0083   3180               M  pagesel purge
                      01877 
                      01878 
0084   3003           01879  movlw .3
                      01880  
                      01881 
                      01882 
                      01883    
                      01884  FAR_CALL purge ,safepush
0085   3180               M  pagesel safepush
0086   2???               M  call safepush
0087   3180               M  pagesel purge
                      01885 
                      01886 
0088   30FF           01887  movlw -.1
                      01888 
                      01889    
                      01890  FAR_CALL purge ,safepush
0089   3180               M  pagesel safepush
008A   2???               M  call safepush
008B   3180               M  pagesel purge
                      01891 
                      01892  ; char '0'
                      01893 
                      01894 
008C   3030           01895  movlw .48
                      01896 
                      01897 
                      01898    
                      01899  HALF_FAR_CALL safepush
008D   3180               M  pagesel safepush       
008E   2???               M  call safepush
                      01900 
                      01901 
                      01902  
                      01903  FAR_CALL purge,mul
008F   3180               M  pagesel mul
0090   2???               M  call mul
0091   3180               M  pagesel purge
                      01904 
                      01905 
0092   300D           01906  movlw .13
                      01907 
                      01908    
                      01909  HALF_FAR_CALL safepush
0093   3180               M  pagesel safepush       
0094   2???               M  call safepush
                      01910 
                      01911 
                      01912  
                      01913  HALF_FAR_CALL parm
0095   3180               M  pagesel parm           
MPASM  5.35                        TARGET.ASM   1-15-2020  22:50:04         PAGE 53


LOC  OBJECT CODE     LINE SOURCE TEXT
  VALUE

0096   2???               M  call parm
                      01914 
                      01915 
                      01916  
                      01917  HALF_FAR_CALL add
0097   3180               M  pagesel add            
0098   2???               M  call add
                      01918 
                      01919 
                      01920  
                      01921  HALF_FAR_CALL utof
0099   3180               M  pagesel utof           
009A   2???               M  call utof
                      01922 
                      01923 
                      01924  
                      01925  HALF_FAR_CALL mulf
009B   3180               M  pagesel mulf           
009C   2???               M  call mulf
                      01926 
                      01927 
                      01928  
                      01929  FAR_CALL purge,addf
009D   3180               M  pagesel addf
009E   2???               M  call addf
009F   3180               M  pagesel purge
                      01930 
                      01931 
00A0   30FF           01932  movlw -.1
                      01933 
                      01934    
                      01935  FAR_CALL purge ,safepush
00A1   3180               M  pagesel safepush
00A2   2???               M  call safepush
00A3   3180               M  pagesel purge
                      01936 
                      01937  ; char '0'
                      01938 
                      01939 
00A4   3030           01940  movlw .48
                      01941 
                      01942 
                      01943    
                      01944  HALF_FAR_CALL safepush
00A5   3180               M  pagesel safepush       
00A6   2???               M  call safepush
                      01945 
                      01946 
                      01947  
                      01948  FAR_CALL purge,mul
00A7   3180               M  pagesel mul
00A8   2???               M  call mul
00A9   3180               M  pagesel purge
MPASM  5.35                        TARGET.ASM   1-15-2020  22:50:04         PAGE 54


LOC  OBJECT CODE     LINE SOURCE TEXT
  VALUE

                      01949 
                      01950 
00AA   300C           01951  movlw .12
                      01952 
                      01953    
                      01954  HALF_FAR_CALL safepush
00AB   3180               M  pagesel safepush       
00AC   2???               M  call safepush
                      01955 
                      01956 
                      01957  
                      01958  HALF_FAR_CALL parm
00AD   3180               M  pagesel parm           
00AE   2???               M  call parm
                      01959 
                      01960 
                      01961  
                      01962  HALF_FAR_CALL add
00AF   3180               M  pagesel add            
00B0   2???               M  call add
                      01963 
                      01964 
                      01965  
                      01966  HALF_FAR_CALL utof
00B1   3180               M  pagesel utof           
00B2   2???               M  call utof
                      01967 
                      01968 
                      01969  
                      01970  FAR_CALL purge,addf
00B3   3180               M  pagesel addf
00B4   2???               M  call addf
00B5   3180               M  pagesel purge
                      01971 
                      01972  POP
00B6   0013               M  moviw INDF0-- ; preserve the safety of this code under interruptible conditions. 
00B7   002?           01973  banksel londegb
00B8   00??           01974  movwf londegb
                      01975  
                      01976 
                      01977  POP
00B9   0013               M  moviw INDF0-- ; preserve the safety of this code under interruptible conditions. 
00BA   002?           01978  banksel londeg
00BB   00??           01979  movwf londeg
                      01980  
                      01981 
                      01982 
00BC   3000           01983  movlw .0
                      01984  
                      01985 
                      01986 
                      01987 
                      01988    
MPASM  5.35                        TARGET.ASM   1-15-2020  22:50:04         PAGE 55


LOC  OBJECT CODE     LINE SOURCE TEXT
  VALUE

                      01989  FAR_CALL purge ,safepush
00BD   3180               M  pagesel safepush
00BE   2???               M  call safepush
00BF   3180               M  pagesel purge
                      01990 
                      01991 
00C0   3080           01992  movlw .128
                      01993  
                      01994 
                      01995 
                      01996    
                      01997  FAR_CALL purge ,safepush
00C1   3180               M  pagesel safepush
00C2   2???               M  call safepush
00C3   3180               M  pagesel purge
                      01998 
                      01999 
00C4   3020           02000  movlw .32
                      02001  
                      02002 
                      02003 
                      02004 
                      02005    
                      02006  FAR_CALL purge ,safepush
00C5   3180               M  pagesel safepush
00C6   2???               M  call safepush
00C7   3180               M  pagesel purge
                      02007 
                      02008 
00C8   3003           02009  movlw .3
                      02010  
                      02011 
                      02012 
                      02013    
                      02014  FAR_CALL purge ,safepush
00C9   3180               M  pagesel safepush
00CA   2???               M  call safepush
00CB   3180               M  pagesel purge
                      02015 
                      02016 
00CC   30FF           02017  movlw -.1
                      02018 
                      02019    
                      02020  FAR_CALL purge ,safepush
00CD   3180               M  pagesel safepush
00CE   2???               M  call safepush
00CF   3180               M  pagesel purge
                      02021 
                      02022  ; char '0'
                      02023 
                      02024 
00D0   3030           02025  movlw .48
                      02026 
MPASM  5.35                        TARGET.ASM   1-15-2020  22:50:04         PAGE 56


LOC  OBJECT CODE     LINE SOURCE TEXT
  VALUE

                      02027 
                      02028    
                      02029  HALF_FAR_CALL safepush
00D1   3180               M  pagesel safepush       
00D2   2???               M  call safepush
                      02030 
                      02031 
                      02032  
                      02033  FAR_CALL purge,mul
00D3   3180               M  pagesel mul
00D4   2???               M  call mul
00D5   3180               M  pagesel purge
                      02034 
                      02035 
00D6   3019           02036  movlw .25
                      02037 
                      02038    
                      02039  HALF_FAR_CALL safepush
00D7   3180               M  pagesel safepush       
00D8   2???               M  call safepush
                      02040 
                      02041 
                      02042  
                      02043  HALF_FAR_CALL parm
00D9   3180               M  pagesel parm           
00DA   2???               M  call parm
                      02044 
                      02045 
                      02046  
                      02047  HALF_FAR_CALL add
00DB   3180               M  pagesel add            
00DC   2???               M  call add
                      02048 
                      02049 
                      02050  
                      02051  HALF_FAR_CALL utof
00DD   3180               M  pagesel utof           
00DE   2???               M  call utof
                      02052 
                      02053 
                      02054  
                      02055  HALF_FAR_CALL mulf
00DF   3180               M  pagesel mulf           
00E0   2???               M  call mulf
                      02056 
                      02057 
                      02058  
                      02059  FAR_CALL purge,addf
00E1   3180               M  pagesel addf
00E2   2???               M  call addf
00E3   3180               M  pagesel purge
                      02060 
                      02061 
MPASM  5.35                        TARGET.ASM   1-15-2020  22:50:04         PAGE 57


LOC  OBJECT CODE     LINE SOURCE TEXT
  VALUE

00E4   30FF           02062  movlw -.1
                      02063 
                      02064    
                      02065  FAR_CALL purge ,safepush
00E5   3180               M  pagesel safepush
00E6   2???               M  call safepush
00E7   3180               M  pagesel purge
                      02066 
                      02067  ; char '0'
                      02068 
                      02069 
00E8   3030           02070  movlw .48
                      02071 
                      02072 
                      02073    
                      02074  HALF_FAR_CALL safepush
00E9   3180               M  pagesel safepush       
00EA   2???               M  call safepush
                      02075 
                      02076 
                      02077  
                      02078  FAR_CALL purge,mul
00EB   3180               M  pagesel mul
00EC   2???               M  call mul
00ED   3180               M  pagesel purge
                      02079 
                      02080 
00EE   3018           02081  movlw .24
                      02082 
                      02083    
                      02084  HALF_FAR_CALL safepush
00EF   3180               M  pagesel safepush       
00F0   2???               M  call safepush
                      02085 
                      02086 
                      02087  
                      02088  HALF_FAR_CALL parm
00F1   3180               M  pagesel parm           
00F2   2???               M  call parm
                      02089 
                      02090 
                      02091  
                      02092  HALF_FAR_CALL add
00F3   3180               M  pagesel add            
00F4   2???               M  call add
                      02093 
                      02094 
                      02095  
                      02096  HALF_FAR_CALL utof
00F5   3180               M  pagesel utof           
00F6   2???               M  call utof
                      02097 
                      02098 
MPASM  5.35                        TARGET.ASM   1-15-2020  22:50:04         PAGE 58


LOC  OBJECT CODE     LINE SOURCE TEXT
  VALUE

                      02099  
                      02100  FAR_CALL purge,addf
00F7   3180               M  pagesel addf
00F8   2???               M  call addf
00F9   3180               M  pagesel purge
                      02101 
                      02102  POP
00FA   0013               M  moviw INDF0-- ; preserve the safety of this code under interruptible conditions. 
00FB   002?           02103  banksel tempb
00FC   00??           02104  movwf tempb
                      02105  
                      02106 
                      02107  POP
00FD   0013               M  moviw INDF0-- ; preserve the safety of this code under interruptible conditions. 
00FE   002?           02108  banksel temp
00FF   00??           02109  movwf temp
                      02110  
                      02111 
0100   002?           02112    banksel temp
0101   08??           02113    movfw temp
                      02114    
                      02115    
                      02116 
                      02117    
                      02118  FAR_CALL purge ,safepush
0102   3180               M  pagesel safepush
0103   2???               M  call safepush
0104   3180               M  pagesel purge
                      02119 
0105   002?           02120    banksel latmin
0106   08??           02121    movfw latmin
                      02122    
                      02123    
                      02124 
                      02125    
                      02126  HALF_FAR_CALL safepush
0107   3180               M  pagesel safepush       
0108   2???               M  call safepush
                      02127 
                      02128 
                      02129  
                      02130  FAR_CALL purge,eq
0109   3180               M  pagesel eq
010A   2???               M  call eq
010B   3180               M  pagesel purge
                      02131 
                      02132  POP
010C   0013               M  moviw INDF0-- ; preserve the safety of this code under interruptible conditions. 
010D   3A00           02133  xorlw .0
010E   1903           02134  btfsc STATUS,Z
010F   2???           02135  goto hlllb51J15 
                      02136  
                      02137  
MPASM  5.35                        TARGET.ASM   1-15-2020  22:50:04         PAGE 59


LOC  OBJECT CODE     LINE SOURCE TEXT
  VALUE

0110   2???           02138  goto hlllb51J16
                      02139  
                      02140 
0111                  02141 hlllb51J15:
                      02142 
                      02143 
0111   3000           02144  movlw .0 
                      02145 
                      02146    
                      02147  FAR_CALL purge ,safepush
0112   3180               M  pagesel safepush
0113   2???               M  call safepush
0114   3180               M  pagesel purge
                      02148 
                      02149  POP
0115   0013               M  moviw INDF0-- ; preserve the safety of this code under interruptible conditions. 
0116   002?           02150  banksel filtervalid
0117   00??           02151  movwf filtervalid
                      02152  
                      02153 
                      02154 
0118                  02155 hlllb51J16:
                      02156 
0118   002?           02157    banksel tempb
0119   08??           02158    movfw tempb
                      02159    
                      02160    
                      02161 
                      02162    
                      02163  FAR_CALL purge ,safepush
011A   3180               M  pagesel safepush
011B   2???               M  call safepush
011C   3180               M  pagesel purge
                      02164 
                      02165  POP
011D   0013               M  moviw INDF0-- ; preserve the safety of this code under interruptible conditions. 
011E   002?           02166  banksel latminb
011F   00??           02167  movwf latminb
                      02168  
                      02169 
0120   002?           02170    banksel temp
0121   08??           02171    movfw temp
                      02172    
                      02173    
                      02174 
                      02175    
                      02176  FAR_CALL purge ,safepush
0122   3180               M  pagesel safepush
0123   2???               M  call safepush
0124   3180               M  pagesel purge
                      02177 
                      02178  POP
0125   0013               M  moviw INDF0-- ; preserve the safety of this code under interruptible conditions. 
MPASM  5.35                        TARGET.ASM   1-15-2020  22:50:04         PAGE 60


LOC  OBJECT CODE     LINE SOURCE TEXT
  VALUE

0126   002?           02179  banksel latmin
0127   00??           02180  movwf latmin
                      02181  
                      02182 
                      02183 
0128   3000           02184  movlw .0
                      02185  
                      02186 
                      02187 
                      02188 
                      02189    
                      02190  FAR_CALL purge ,safepush
0129   3180               M  pagesel safepush
012A   2???               M  call safepush
012B   3180               M  pagesel purge
                      02191 
                      02192 
012C   3080           02193  movlw .128
                      02194  
                      02195 
                      02196 
                      02197    
                      02198  FAR_CALL purge ,safepush
012D   3180               M  pagesel safepush
012E   2???               M  call safepush
012F   3180               M  pagesel purge
                      02199 
                      02200 
0130   3020           02201  movlw .32
                      02202  
                      02203 
                      02204 
                      02205 
                      02206    
                      02207  FAR_CALL purge ,safepush
0131   3180               M  pagesel safepush
0132   2???               M  call safepush
0133   3180               M  pagesel purge
                      02208 
                      02209 
0134   3003           02210  movlw .3
                      02211  
                      02212 
                      02213 
                      02214    
                      02215  FAR_CALL purge ,safepush
0135   3180               M  pagesel safepush
0136   2???               M  call safepush
0137   3180               M  pagesel purge
                      02216 
                      02217 
0138   30FF           02218  movlw -.1
                      02219 
MPASM  5.35                        TARGET.ASM   1-15-2020  22:50:04         PAGE 61


LOC  OBJECT CODE     LINE SOURCE TEXT
  VALUE

                      02220    
                      02221  FAR_CALL purge ,safepush
0139   3180               M  pagesel safepush
013A   2???               M  call safepush
013B   3180               M  pagesel purge
                      02222 
                      02223  ; char '0'
                      02224 
                      02225 
013C   3030           02226  movlw .48
                      02227 
                      02228 
                      02229    
                      02230  HALF_FAR_CALL safepush
013D   3180               M  pagesel safepush       
013E   2???               M  call safepush
                      02231 
                      02232 
                      02233  
                      02234  FAR_CALL purge,mul
013F   3180               M  pagesel mul
0140   2???               M  call mul
0141   3180               M  pagesel purge
                      02235 
                      02236 
0142   300B           02237  movlw .11
                      02238 
                      02239    
                      02240  HALF_FAR_CALL safepush
0143   3180               M  pagesel safepush       
0144   2???               M  call safepush
                      02241 
                      02242 
                      02243  
                      02244  HALF_FAR_CALL parm
0145   3180               M  pagesel parm           
0146   2???               M  call parm
                      02245 
                      02246 
                      02247  
                      02248  HALF_FAR_CALL add
0147   3180               M  pagesel add            
0148   2???               M  call add
                      02249 
                      02250 
                      02251  
                      02252  HALF_FAR_CALL utof
0149   3180               M  pagesel utof           
014A   2???               M  call utof
                      02253 
                      02254 
                      02255  
                      02256  HALF_FAR_CALL mulf
MPASM  5.35                        TARGET.ASM   1-15-2020  22:50:04         PAGE 62


LOC  OBJECT CODE     LINE SOURCE TEXT
  VALUE

014B   3180               M  pagesel mulf           
014C   2???               M  call mulf
                      02257 
                      02258 
                      02259  
                      02260  FAR_CALL purge,addf
014D   3180               M  pagesel addf
014E   2???               M  call addf
014F   3180               M  pagesel purge
                      02261 
                      02262 
0150   30FF           02263  movlw -.1
                      02264 
                      02265    
                      02266  FAR_CALL purge ,safepush
0151   3180               M  pagesel safepush
0152   2???               M  call safepush
0153   3180               M  pagesel purge
                      02267 
                      02268  ; char '0'
                      02269 
                      02270 
0154   3030           02271  movlw .48
                      02272 
                      02273 
                      02274    
                      02275  HALF_FAR_CALL safepush
0155   3180               M  pagesel safepush       
0156   2???               M  call safepush
                      02276 
                      02277 
                      02278  
                      02279  FAR_CALL purge,mul
0157   3180               M  pagesel mul
0158   2???               M  call mul
0159   3180               M  pagesel purge
                      02280 
                      02281 
015A   300A           02282  movlw .10
                      02283 
                      02284    
                      02285  HALF_FAR_CALL safepush
015B   3180               M  pagesel safepush       
015C   2???               M  call safepush
                      02286 
                      02287 
                      02288  
                      02289  HALF_FAR_CALL parm
015D   3180               M  pagesel parm           
015E   2???               M  call parm
                      02290 
                      02291 
                      02292  
MPASM  5.35                        TARGET.ASM   1-15-2020  22:50:04         PAGE 63


LOC  OBJECT CODE     LINE SOURCE TEXT
  VALUE

                      02293  HALF_FAR_CALL add
015F   3180               M  pagesel add            
0160   2???               M  call add
                      02294 
                      02295 
                      02296  
                      02297  HALF_FAR_CALL utof
0161   3180               M  pagesel utof           
0162   2???               M  call utof
                      02298 
                      02299 
                      02300  
                      02301  FAR_CALL purge,addf
0163   3180               M  pagesel addf
0164   2???               M  call addf
0165   3180               M  pagesel purge
                      02302 
                      02303  POP
0166   0013               M  moviw INDF0-- ; preserve the safety of this code under interruptible conditions. 
0167   002?           02304  banksel tempb
0168   00??           02305  movwf tempb
                      02306  
                      02307 
                      02308  POP
0169   0013               M  moviw INDF0-- ; preserve the safety of this code under interruptible conditions. 
016A   002?           02309  banksel temp
016B   00??           02310  movwf temp
                      02311  
                      02312 
016C   002?           02313    banksel tempb
016D   08??           02314    movfw tempb
                      02315    
                      02316    
                      02317 
                      02318    
                      02319  FAR_CALL purge ,safepush
016E   3180               M  pagesel safepush
016F   2???               M  call safepush
0170   3180               M  pagesel purge
                      02320 
                      02321  POP
0171   0013               M  moviw INDF0-- ; preserve the safety of this code under interruptible conditions. 
0172   002?           02322  banksel lonminb
0173   00??           02323  movwf lonminb
                      02324  
                      02325 
0174   002?           02326    banksel temp
0175   08??           02327    movfw temp
                      02328    
                      02329    
                      02330 
                      02331    
                      02332  FAR_CALL purge ,safepush
MPASM  5.35                        TARGET.ASM   1-15-2020  22:50:04         PAGE 64


LOC  OBJECT CODE     LINE SOURCE TEXT
  VALUE

0176   3180               M  pagesel safepush
0177   2???               M  call safepush
0178   3180               M  pagesel purge
                      02333 
                      02334  POP
0179   0013               M  moviw INDF0-- ; preserve the safety of this code under interruptible conditions. 
017A   002?           02335  banksel lonmin
017B   00??           02336  movwf lonmin
                      02337  
                      02338 
                      02339 
017C   3000           02340  movlw .0
                      02341  
                      02342 
                      02343 
                      02344 
                      02345    
                      02346  FAR_CALL purge ,safepush
017D   3180               M  pagesel safepush
017E   2???               M  call safepush
017F   3180               M  pagesel purge
                      02347 
                      02348 
0180   3080           02349  movlw .128
                      02350  
                      02351 
                      02352 
                      02353    
                      02354  FAR_CALL purge ,safepush
0181   3180               M  pagesel safepush
0182   2???               M  call safepush
0183   3180               M  pagesel purge
                      02355 
                      02356 
0184   3000           02357  movlw .0
                      02358  
                      02359 
                      02360 
                      02361 
                      02362    
                      02363  FAR_CALL purge ,safepush
0185   3180               M  pagesel safepush
0186   2???               M  call safepush
0187   3180               M  pagesel purge
                      02364 
                      02365 
0188   3080           02366  movlw .128
                      02367  
                      02368 
                      02369 
                      02370    
                      02371  FAR_CALL purge ,safepush
0189   3180               M  pagesel safepush
MPASM  5.35                        TARGET.ASM   1-15-2020  22:50:04         PAGE 65


LOC  OBJECT CODE     LINE SOURCE TEXT
  VALUE

018A   2???               M  call safepush
018B   3180               M  pagesel purge
                      02372 
                      02373 
018C   3000           02374  movlw .0
                      02375  
                      02376 
                      02377 
                      02378 
                      02379    
                      02380  FAR_CALL purge ,safepush
018D   3180               M  pagesel safepush
018E   2???               M  call safepush
018F   3180               M  pagesel purge
                      02381 
                      02382 
0190   3080           02383  movlw .128
                      02384  
                      02385 
                      02386 
                      02387    
                      02388  FAR_CALL purge ,safepush
0191   3180               M  pagesel safepush
0192   2???               M  call safepush
0193   3180               M  pagesel purge
                      02389 
                      02390 
0194   301C           02391  movlw .28
                      02392  
                      02393 
                      02394 
                      02395 
                      02396    
                      02397  FAR_CALL purge ,safepush
0195   3180               M  pagesel safepush
0196   2???               M  call safepush
0197   3180               M  pagesel purge
                      02398 
                      02399 
0198   300D           02400  movlw .13
                      02401  
                      02402 
                      02403 
                      02404    
                      02405  FAR_CALL purge ,safepush
0199   3180               M  pagesel safepush
019A   2???               M  call safepush
019B   3180               M  pagesel purge
                      02406 
                      02407 
019C   30FF           02408  movlw -.1
                      02409 
                      02410    
MPASM  5.35                        TARGET.ASM   1-15-2020  22:50:04         PAGE 66


LOC  OBJECT CODE     LINE SOURCE TEXT
  VALUE

                      02411  FAR_CALL purge ,safepush
019D   3180               M  pagesel safepush
019E   2???               M  call safepush
019F   3180               M  pagesel purge
                      02412 
                      02413  ; char '0'
                      02414 
                      02415 
01A0   3030           02416  movlw .48
                      02417 
                      02418 
                      02419    
                      02420  HALF_FAR_CALL safepush
01A1   3180               M  pagesel safepush       
01A2   2???               M  call safepush
                      02421 
                      02422 
                      02423  
                      02424  FAR_CALL purge,mul
01A3   3180               M  pagesel mul
01A4   2???               M  call mul
01A5   3180               M  pagesel purge
                      02425 
                      02426 
01A6   3016           02427  movlw .22
                      02428 
                      02429    
                      02430  HALF_FAR_CALL safepush
01A7   3180               M  pagesel safepush       
01A8   2???               M  call safepush
                      02431 
                      02432 
                      02433  
                      02434  HALF_FAR_CALL parm
01A9   3180               M  pagesel parm           
01AA   2???               M  call parm
                      02435 
                      02436 
                      02437  
                      02438  HALF_FAR_CALL add
01AB   3180               M  pagesel add            
01AC   2???               M  call add
                      02439 
                      02440 
                      02441  
                      02442  HALF_FAR_CALL utof
01AD   3180               M  pagesel utof           
01AE   2???               M  call utof
                      02443 
                      02444 
                      02445  
                      02446  HALF_FAR_CALL mulf
01AF   3180               M  pagesel mulf           
MPASM  5.35                        TARGET.ASM   1-15-2020  22:50:04         PAGE 67


LOC  OBJECT CODE     LINE SOURCE TEXT
  VALUE

01B0   2???               M  call mulf
                      02447 
                      02448 
                      02449  
                      02450  FAR_CALL purge,addf
01B1   3180               M  pagesel addf
01B2   2???               M  call addf
01B3   3180               M  pagesel purge
                      02451 
                      02452 
01B4   307A           02453  movlw .122
                      02454  
                      02455 
                      02456 
                      02457 
                      02458    
                      02459  FAR_CALL purge ,safepush
01B5   3180               M  pagesel safepush
01B6   2???               M  call safepush
01B7   3180               M  pagesel purge
                      02460 
                      02461 
01B8   3009           02462  movlw .9
                      02463  
                      02464 
                      02465 
                      02466    
                      02467  FAR_CALL purge ,safepush
01B9   3180               M  pagesel safepush
01BA   2???               M  call safepush
01BB   3180               M  pagesel purge
                      02468 
                      02469 
01BC   30FF           02470  movlw -.1
                      02471 
                      02472    
                      02473  FAR_CALL purge ,safepush
01BD   3180               M  pagesel safepush
01BE   2???               M  call safepush
01BF   3180               M  pagesel purge
                      02474 
                      02475  ; char '0'
                      02476 
                      02477 
01C0   3030           02478  movlw .48
                      02479 
                      02480 
                      02481    
                      02482  HALF_FAR_CALL safepush
01C1   3180               M  pagesel safepush       
01C2   2???               M  call safepush
                      02483 
                      02484 
MPASM  5.35                        TARGET.ASM   1-15-2020  22:50:04         PAGE 68


LOC  OBJECT CODE     LINE SOURCE TEXT
  VALUE

                      02485  
                      02486  FAR_CALL purge,mul
01C3   3180               M  pagesel mul
01C4   2???               M  call mul
01C5   3180               M  pagesel purge
                      02487 
                      02488 
01C6   3015           02489  movlw .21
                      02490 
                      02491    
                      02492  HALF_FAR_CALL safepush
01C7   3180               M  pagesel safepush       
01C8   2???               M  call safepush
                      02493 
                      02494 
                      02495  
                      02496  HALF_FAR_CALL parm
01C9   3180               M  pagesel parm           
01CA   2???               M  call parm
                      02497 
                      02498 
                      02499  
                      02500  HALF_FAR_CALL add
01CB   3180               M  pagesel add            
01CC   2???               M  call add
                      02501 
                      02502 
                      02503  
                      02504  HALF_FAR_CALL utof
01CD   3180               M  pagesel utof           
01CE   2???               M  call utof
                      02505 
                      02506 
                      02507  
                      02508  HALF_FAR_CALL mulf
01CF   3180               M  pagesel mulf           
01D0   2???               M  call mulf
                      02509 
                      02510 
                      02511  
                      02512  FAR_CALL purge,addf
01D1   3180               M  pagesel addf
01D2   2???               M  call addf
01D3   3180               M  pagesel purge
                      02513 
                      02514 
01D4   3048           02515  movlw .72
                      02516  
                      02517 
                      02518 
                      02519 
                      02520    
                      02521  FAR_CALL purge ,safepush
MPASM  5.35                        TARGET.ASM   1-15-2020  22:50:04         PAGE 69


LOC  OBJECT CODE     LINE SOURCE TEXT
  VALUE

01D5   3180               M  pagesel safepush
01D6   2???               M  call safepush
01D7   3180               M  pagesel purge
                      02522 
                      02523 
01D8   3006           02524  movlw .6
                      02525  
                      02526 
                      02527 
                      02528    
                      02529  FAR_CALL purge ,safepush
01D9   3180               M  pagesel safepush
01DA   2???               M  call safepush
01DB   3180               M  pagesel purge
                      02530 
                      02531 
01DC   30FF           02532  movlw -.1
                      02533 
                      02534    
                      02535  FAR_CALL purge ,safepush
01DD   3180               M  pagesel safepush
01DE   2???               M  call safepush
01DF   3180               M  pagesel purge
                      02536 
                      02537  ; char '0'
                      02538 
                      02539 
01E0   3030           02540  movlw .48
                      02541 
                      02542 
                      02543    
                      02544  HALF_FAR_CALL safepush
01E1   3180               M  pagesel safepush       
01E2   2???               M  call safepush
                      02545 
                      02546 
                      02547  
                      02548  FAR_CALL purge,mul
01E3   3180               M  pagesel mul
01E4   2???               M  call mul
01E5   3180               M  pagesel purge
                      02549 
                      02550 
01E6   3014           02551  movlw .20
                      02552 
                      02553    
                      02554  HALF_FAR_CALL safepush
01E7   3180               M  pagesel safepush       
01E8   2???               M  call safepush
                      02555 
                      02556 
                      02557  
                      02558  HALF_FAR_CALL parm
MPASM  5.35                        TARGET.ASM   1-15-2020  22:50:04         PAGE 70


LOC  OBJECT CODE     LINE SOURCE TEXT
  VALUE

01E9   3180               M  pagesel parm           
01EA   2???               M  call parm
                      02559 
                      02560 
                      02561  
                      02562  HALF_FAR_CALL add
01EB   3180               M  pagesel add            
01EC   2???               M  call add
                      02563 
                      02564 
                      02565  
                      02566  HALF_FAR_CALL utof
01ED   3180               M  pagesel utof           
01EE   2???               M  call utof
                      02567 
                      02568 
                      02569  
                      02570  HALF_FAR_CALL mulf
01EF   3180               M  pagesel mulf           
01F0   2???               M  call mulf
                      02571 
                      02572 
                      02573  
                      02574  FAR_CALL purge,addf
01F1   3180               M  pagesel addf
01F2   2???               M  call addf
01F3   3180               M  pagesel purge
                      02575 
                      02576 
01F4   3020           02577  movlw .32
                      02578  
                      02579 
                      02580 
                      02581 
                      02582    
                      02583  FAR_CALL purge ,safepush
01F5   3180               M  pagesel safepush
01F6   2???               M  call safepush
01F7   3180               M  pagesel purge
                      02584 
                      02585 
01F8   3003           02586  movlw .3
                      02587  
                      02588 
                      02589 
                      02590    
                      02591  FAR_CALL purge ,safepush
01F9   3180               M  pagesel safepush
01FA   2???               M  call safepush
01FB   3180               M  pagesel purge
                      02592 
                      02593 
01FC   30FF           02594  movlw -.1
MPASM  5.35                        TARGET.ASM   1-15-2020  22:50:04         PAGE 71


LOC  OBJECT CODE     LINE SOURCE TEXT
  VALUE

                      02595 
                      02596    
                      02597  FAR_CALL purge ,safepush
01FD   3180               M  pagesel safepush
01FE   2???               M  call safepush
01FF   3180               M  pagesel purge
                      02598 
                      02599  ; char '0'
                      02600 
                      02601 
0200   3030           02602  movlw .48
                      02603 
                      02604 
                      02605    
                      02606  HALF_FAR_CALL safepush
0201   3180               M  pagesel safepush       
0202   2???               M  call safepush
                      02607 
                      02608 
                      02609  
                      02610  FAR_CALL purge,mul
0203   3180               M  pagesel mul
0204   2???               M  call mul
0205   3180               M  pagesel purge
                      02611 
                      02612 
0206   3013           02613  movlw .19
                      02614 
                      02615    
                      02616  HALF_FAR_CALL safepush
0207   3180               M  pagesel safepush       
0208   2???               M  call safepush
                      02617 
                      02618 
                      02619  
                      02620  HALF_FAR_CALL parm
0209   3180               M  pagesel parm           
020A   2???               M  call parm
                      02621 
                      02622 
                      02623  
                      02624  HALF_FAR_CALL add
020B   3180               M  pagesel add            
020C   2???               M  call add
                      02625 
                      02626 
                      02627  
                      02628  HALF_FAR_CALL utof
020D   3180               M  pagesel utof           
020E   2???               M  call utof
                      02629 
                      02630 
                      02631  
MPASM  5.35                        TARGET.ASM   1-15-2020  22:50:04         PAGE 72


LOC  OBJECT CODE     LINE SOURCE TEXT
  VALUE

                      02632  HALF_FAR_CALL mulf
020F   3180               M  pagesel mulf           
0210   2???               M  call mulf
                      02633 
                      02634 
                      02635  
                      02636  FAR_CALL purge,addf
0211   3180               M  pagesel addf
0212   2???               M  call addf
0213   3180               M  pagesel purge
                      02637 
                      02638 
0214   30FF           02639  movlw -.1
                      02640 
                      02641    
                      02642  FAR_CALL purge ,safepush
0215   3180               M  pagesel safepush
0216   2???               M  call safepush
0217   3180               M  pagesel purge
                      02643 
                      02644  ; char '0'
                      02645 
                      02646 
0218   3030           02647  movlw .48
                      02648 
                      02649 
                      02650    
                      02651  HALF_FAR_CALL safepush
0219   3180               M  pagesel safepush       
021A   2???               M  call safepush
                      02652 
                      02653 
                      02654  
                      02655  FAR_CALL purge,mul
021B   3180               M  pagesel mul
021C   2???               M  call mul
021D   3180               M  pagesel purge
                      02656 
                      02657 
021E   3012           02658  movlw .18
                      02659 
                      02660    
                      02661  HALF_FAR_CALL safepush
021F   3180               M  pagesel safepush       
0220   2???               M  call safepush
                      02662 
                      02663 
                      02664  
                      02665  HALF_FAR_CALL parm
0221   3180               M  pagesel parm           
0222   2???               M  call parm
                      02666 
                      02667 
MPASM  5.35                        TARGET.ASM   1-15-2020  22:50:04         PAGE 73


LOC  OBJECT CODE     LINE SOURCE TEXT
  VALUE

                      02668  
                      02669  HALF_FAR_CALL add
0223   3180               M  pagesel add            
0224   2???               M  call add
                      02670 
                      02671 
                      02672  
                      02673  HALF_FAR_CALL utof
0225   3180               M  pagesel utof           
0226   2???               M  call utof
                      02674 
                      02675 
                      02676  
                      02677  FAR_CALL purge,addf
0227   3180               M  pagesel addf
0228   2???               M  call addf
0229   3180               M  pagesel purge
                      02678 
                      02679 
022A   3043           02680  movlw .67
                      02681  
                      02682 
                      02683 
                      02684 
                      02685    
                      02686  FAR_CALL purge ,safepush
022B   3180               M  pagesel safepush
022C   2???               M  call safepush
022D   3180               M  pagesel purge
                      02687 
                      02688 
022E   3010           02689  movlw .16
                      02690  
                      02691 
                      02692 
                      02693    
                      02694  HALF_FAR_CALL safepush
022F   3180               M  pagesel safepush       
0230   2???               M  call safepush
                      02695 
                      02696 
                      02697  
                      02698  FAR_CALL purge,divf
0231   3180               M  pagesel divf
0232   2???               M  call divf
0233   3180               M  pagesel purge
                      02699 
                      02700  POP
0234   0013               M  moviw INDF0-- ; preserve the safety of this code under interruptible conditions. 
0235   002?           02701  banksel tempb
0236   00??           02702  movwf tempb
                      02703  
                      02704 
MPASM  5.35                        TARGET.ASM   1-15-2020  22:50:04         PAGE 74


LOC  OBJECT CODE     LINE SOURCE TEXT
  VALUE

                      02705  POP
0237   0013               M  moviw INDF0-- ; preserve the safety of this code under interruptible conditions. 
0238   002?           02706  banksel temp
0239   00??           02707  movwf temp
                      02708  
                      02709 
023A   002?           02710    banksel filtervalid
023B   08??           02711    movfw filtervalid
                      02712    
                      02713    
                      02714 
                      02715    
                      02716  FAR_CALL purge ,safepush
023C   3180               M  pagesel safepush
023D   2???               M  call safepush
023E   3180               M  pagesel purge
                      02717 
                      02718  POP
023F   0013               M  moviw INDF0-- ; preserve the safety of this code under interruptible conditions. 
0240   3A00           02719  xorlw .0
0241   1903           02720  btfsc STATUS,Z
0242   2???           02721  goto hlllb51J17 
                      02722  
                      02723 
0243   3000           02724  movlw .0
                      02725  
                      02726 
                      02727 
                      02728 
                      02729    
                      02730  FAR_CALL purge ,safepush
0244   3180               M  pagesel safepush
0245   2???               M  call safepush
0246   3180               M  pagesel purge
                      02731 
                      02732 
0247   30FF           02733  movlw .255
                      02734  
                      02735 
                      02736 
                      02737    
                      02738  FAR_CALL purge ,safepush
0248   3180               M  pagesel safepush
0249   2???               M  call safepush
024A   3180               M  pagesel purge
                      02739 
024B   002?           02740    banksel temp
024C   08??           02741    movfw temp
                      02742    
                      02743    
                      02744 
                      02745    
                      02746  FAR_CALL purge ,safepush
MPASM  5.35                        TARGET.ASM   1-15-2020  22:50:04         PAGE 75


LOC  OBJECT CODE     LINE SOURCE TEXT
  VALUE

024D   3180               M  pagesel safepush
024E   2???               M  call safepush
024F   3180               M  pagesel purge
                      02747 
0250   002?           02748    banksel tempb
0251   08??           02749    movfw tempb
                      02750    
                      02751    
                      02752 
                      02753    
                      02754  HALF_FAR_CALL safepush
0252   3180               M  pagesel safepush       
0253   2???               M  call safepush
                      02755 
                      02756 
                      02757  
                      02758  FAR_CALL purge,mulf
0254   3180               M  pagesel mulf
0255   2???               M  call mulf
0256   3180               M  pagesel purge
                      02759 
                      02760 
0257   3000           02761  movlw .0
                      02762  
                      02763 
                      02764 
                      02765 
                      02766    
                      02767  FAR_CALL purge ,safepush
0258   3180               M  pagesel safepush
0259   2???               M  call safepush
025A   3180               M  pagesel purge
                      02768 
                      02769 
025B   30FF           02770  movlw .255
                      02771  
                      02772 
                      02773 
                      02774    
                      02775  FAR_CALL purge ,safepush
025C   3180               M  pagesel safepush
025D   2???               M  call safepush
025E   3180               M  pagesel purge
                      02776 
025F   002?           02777    banksel latsubmin
0260   08??           02778    movfw latsubmin
                      02779    
                      02780    
                      02781 
                      02782    
                      02783  FAR_CALL purge ,safepush
0261   3180               M  pagesel safepush
0262   2???               M  call safepush
MPASM  5.35                        TARGET.ASM   1-15-2020  22:50:04         PAGE 76


LOC  OBJECT CODE     LINE SOURCE TEXT
  VALUE

0263   3180               M  pagesel purge
                      02784 
0264   002?           02785    banksel latsubminb
0265   08??           02786    movfw latsubminb
                      02787    
                      02788    
                      02789 
                      02790    
                      02791  HALF_FAR_CALL safepush
0266   3180               M  pagesel safepush       
0267   2???               M  call safepush
                      02792 
                      02793 
                      02794  
                      02795  HALF_FAR_CALL mulf
0268   3180               M  pagesel mulf           
0269   2???               M  call mulf
                      02796 
                      02797 
                      02798  
                      02799  FAR_CALL purge,addf
026A   3180               M  pagesel addf
026B   2???               M  call addf
026C   3180               M  pagesel purge
                      02800 
                      02801  POP
026D   0013               M  moviw INDF0-- ; preserve the safety of this code under interruptible conditions. 
026E   002?           02802  banksel latsubminb
026F   00??           02803  movwf latsubminb
                      02804  
                      02805 
                      02806  POP
0270   0013               M  moviw INDF0-- ; preserve the safety of this code under interruptible conditions. 
0271   002?           02807  banksel latsubmin
0272   00??           02808  movwf latsubmin
                      02809  
                      02810 
                      02811  
0273   2???           02812  goto hlllb51J18
                      02813  
                      02814 
0274                  02815 hlllb51J17:
                      02816 
0274   002?           02817    banksel tempb
0275   08??           02818    movfw tempb
                      02819    
                      02820    
                      02821 
                      02822    
                      02823  FAR_CALL purge ,safepush
0276   3180               M  pagesel safepush
0277   2???               M  call safepush
0278   3180               M  pagesel purge
MPASM  5.35                        TARGET.ASM   1-15-2020  22:50:04         PAGE 77


LOC  OBJECT CODE     LINE SOURCE TEXT
  VALUE

                      02824 
                      02825  POP
0279   0013               M  moviw INDF0-- ; preserve the safety of this code under interruptible conditions. 
027A   002?           02826  banksel latsubminb
027B   00??           02827  movwf latsubminb
                      02828  
                      02829 
027C   002?           02830    banksel temp
027D   08??           02831    movfw temp
                      02832    
                      02833    
                      02834 
                      02835    
                      02836  FAR_CALL purge ,safepush
027E   3180               M  pagesel safepush
027F   2???               M  call safepush
0280   3180               M  pagesel purge
                      02837 
                      02838  POP
0281   0013               M  moviw INDF0-- ; preserve the safety of this code under interruptible conditions. 
0282   002?           02839  banksel latsubmin
0283   00??           02840  movwf latsubmin
                      02841  
                      02842 
                      02843 
0284                  02844 hlllb51J18:
                      02845 
                      02846 
0284   3000           02847  movlw .0
                      02848  
                      02849 
                      02850 
                      02851 
                      02852    
                      02853  FAR_CALL purge ,safepush
0285   3180               M  pagesel safepush
0286   2???               M  call safepush
0287   3180               M  pagesel purge
                      02854 
                      02855 
0288   3080           02856  movlw .128
                      02857  
                      02858 
                      02859 
                      02860    
                      02861  FAR_CALL purge ,safepush
0289   3180               M  pagesel safepush
028A   2???               M  call safepush
028B   3180               M  pagesel purge
                      02862 
                      02863 
028C   3000           02864  movlw .0
                      02865  
MPASM  5.35                        TARGET.ASM   1-15-2020  22:50:04         PAGE 78


LOC  OBJECT CODE     LINE SOURCE TEXT
  VALUE

                      02866 
                      02867 
                      02868 
                      02869    
                      02870  FAR_CALL purge ,safepush
028D   3180               M  pagesel safepush
028E   2???               M  call safepush
028F   3180               M  pagesel purge
                      02871 
                      02872 
0290   3080           02873  movlw .128
                      02874  
                      02875 
                      02876 
                      02877    
                      02878  FAR_CALL purge ,safepush
0291   3180               M  pagesel safepush
0292   2???               M  call safepush
0293   3180               M  pagesel purge
                      02879 
                      02880 
0294   3000           02881  movlw .0
                      02882  
                      02883 
                      02884 
                      02885 
                      02886    
                      02887  FAR_CALL purge ,safepush
0295   3180               M  pagesel safepush
0296   2???               M  call safepush
0297   3180               M  pagesel purge
                      02888 
                      02889 
0298   3080           02890  movlw .128
                      02891  
                      02892 
                      02893 
                      02894    
                      02895  FAR_CALL purge ,safepush
0299   3180               M  pagesel safepush
029A   2???               M  call safepush
029B   3180               M  pagesel purge
                      02896 
                      02897 
029C   301C           02898  movlw .28
                      02899  
                      02900 
                      02901 
                      02902 
                      02903    
                      02904  FAR_CALL purge ,safepush
029D   3180               M  pagesel safepush
029E   2???               M  call safepush
MPASM  5.35                        TARGET.ASM   1-15-2020  22:50:04         PAGE 79


LOC  OBJECT CODE     LINE SOURCE TEXT
  VALUE

029F   3180               M  pagesel purge
                      02905 
                      02906 
02A0   300D           02907  movlw .13
                      02908  
                      02909 
                      02910 
                      02911    
                      02912  FAR_CALL purge ,safepush
02A1   3180               M  pagesel safepush
02A2   2???               M  call safepush
02A3   3180               M  pagesel purge
                      02913 
                      02914 
02A4   30FF           02915  movlw -.1
                      02916 
                      02917    
                      02918  FAR_CALL purge ,safepush
02A5   3180               M  pagesel safepush
02A6   2???               M  call safepush
02A7   3180               M  pagesel purge
                      02919 
                      02920  ; char '0'
                      02921 
                      02922 
02A8   3030           02923  movlw .48
                      02924 
                      02925 
                      02926    
                      02927  HALF_FAR_CALL safepush
02A9   3180               M  pagesel safepush       
02AA   2???               M  call safepush
                      02928 
                      02929 
                      02930  
                      02931  FAR_CALL purge,mul
02AB   3180               M  pagesel mul
02AC   2???               M  call mul
02AD   3180               M  pagesel purge
                      02932 
                      02933 
02AE   3008           02934  movlw .8
                      02935 
                      02936    
                      02937  HALF_FAR_CALL safepush
02AF   3180               M  pagesel safepush       
02B0   2???               M  call safepush
                      02938 
                      02939 
                      02940  
                      02941  HALF_FAR_CALL parm
02B1   3180               M  pagesel parm           
02B2   2???               M  call parm
MPASM  5.35                        TARGET.ASM   1-15-2020  22:50:04         PAGE 80


LOC  OBJECT CODE     LINE SOURCE TEXT
  VALUE

                      02942 
                      02943 
                      02944  
                      02945  HALF_FAR_CALL add
02B3   3180               M  pagesel add            
02B4   2???               M  call add
                      02946 
                      02947 
                      02948  
                      02949  HALF_FAR_CALL utof
02B5   3180               M  pagesel utof           
02B6   2???               M  call utof
                      02950 
                      02951 
                      02952  
                      02953  HALF_FAR_CALL mulf
02B7   3180               M  pagesel mulf           
02B8   2???               M  call mulf
                      02954 
                      02955 
                      02956  
                      02957  FAR_CALL purge,addf
02B9   3180               M  pagesel addf
02BA   2???               M  call addf
02BB   3180               M  pagesel purge
                      02958 
                      02959 
02BC   307A           02960  movlw .122
                      02961  
                      02962 
                      02963 
                      02964 
                      02965    
                      02966  FAR_CALL purge ,safepush
02BD   3180               M  pagesel safepush
02BE   2???               M  call safepush
02BF   3180               M  pagesel purge
                      02967 
                      02968 
02C0   3009           02969  movlw .9
                      02970  
                      02971 
                      02972 
                      02973    
                      02974  FAR_CALL purge ,safepush
02C1   3180               M  pagesel safepush
02C2   2???               M  call safepush
02C3   3180               M  pagesel purge
                      02975 
                      02976 
02C4   30FF           02977  movlw -.1
                      02978 
                      02979    
MPASM  5.35                        TARGET.ASM   1-15-2020  22:50:04         PAGE 81


LOC  OBJECT CODE     LINE SOURCE TEXT
  VALUE

                      02980  FAR_CALL purge ,safepush
02C5   3180               M  pagesel safepush
02C6   2???               M  call safepush
02C7   3180               M  pagesel purge
                      02981 
                      02982  ; char '0'
                      02983 
                      02984 
02C8   3030           02985  movlw .48
                      02986 
                      02987 
                      02988    
                      02989  HALF_FAR_CALL safepush
02C9   3180               M  pagesel safepush       
02CA   2???               M  call safepush
                      02990 
                      02991 
                      02992  
                      02993  FAR_CALL purge,mul
02CB   3180               M  pagesel mul
02CC   2???               M  call mul
02CD   3180               M  pagesel purge
                      02994 
                      02995 
02CE   3007           02996  movlw .7
                      02997 
                      02998    
                      02999  HALF_FAR_CALL safepush
02CF   3180               M  pagesel safepush       
02D0   2???               M  call safepush
                      03000 
                      03001 
                      03002  
                      03003  HALF_FAR_CALL parm
02D1   3180               M  pagesel parm           
02D2   2???               M  call parm
                      03004 
                      03005 
                      03006  
                      03007  HALF_FAR_CALL add
02D3   3180               M  pagesel add            
02D4   2???               M  call add
                      03008 
                      03009 
                      03010  
                      03011  HALF_FAR_CALL utof
02D5   3180               M  pagesel utof           
02D6   2???               M  call utof
                      03012 
                      03013 
                      03014  
                      03015  HALF_FAR_CALL mulf
02D7   3180               M  pagesel mulf           
MPASM  5.35                        TARGET.ASM   1-15-2020  22:50:04         PAGE 82


LOC  OBJECT CODE     LINE SOURCE TEXT
  VALUE

02D8   2???               M  call mulf
                      03016 
                      03017 
                      03018  
                      03019  FAR_CALL purge,addf
02D9   3180               M  pagesel addf
02DA   2???               M  call addf
02DB   3180               M  pagesel purge
                      03020 
                      03021 
02DC   3048           03022  movlw .72
                      03023  
                      03024 
                      03025 
                      03026 
                      03027    
                      03028  FAR_CALL purge ,safepush
02DD   3180               M  pagesel safepush
02DE   2???               M  call safepush
02DF   3180               M  pagesel purge
                      03029 
                      03030 
02E0   3006           03031  movlw .6
                      03032  
                      03033 
                      03034 
                      03035    
                      03036  FAR_CALL purge ,safepush
02E1   3180               M  pagesel safepush
02E2   2???               M  call safepush
02E3   3180               M  pagesel purge
                      03037 
                      03038 
02E4   30FF           03039  movlw -.1
                      03040 
                      03041    
                      03042  FAR_CALL purge ,safepush
02E5   3180               M  pagesel safepush
02E6   2???               M  call safepush
02E7   3180               M  pagesel purge
                      03043 
                      03044  ; char '0'
                      03045 
                      03046 
02E8   3030           03047  movlw .48
                      03048 
                      03049 
                      03050    
                      03051  HALF_FAR_CALL safepush
02E9   3180               M  pagesel safepush       
02EA   2???               M  call safepush
                      03052 
                      03053 
MPASM  5.35                        TARGET.ASM   1-15-2020  22:50:04         PAGE 83


LOC  OBJECT CODE     LINE SOURCE TEXT
  VALUE

                      03054  
                      03055  FAR_CALL purge,mul
02EB   3180               M  pagesel mul
02EC   2???               M  call mul
02ED   3180               M  pagesel purge
                      03056 
                      03057 
02EE   3006           03058  movlw .6
                      03059 
                      03060    
                      03061  HALF_FAR_CALL safepush
02EF   3180               M  pagesel safepush       
02F0   2???               M  call safepush
                      03062 
                      03063 
                      03064  
                      03065  HALF_FAR_CALL parm
02F1   3180               M  pagesel parm           
02F2   2???               M  call parm
                      03066 
                      03067 
                      03068  
                      03069  HALF_FAR_CALL add
02F3   3180               M  pagesel add            
02F4   2???               M  call add
                      03070 
                      03071 
                      03072  
                      03073  HALF_FAR_CALL utof
02F5   3180               M  pagesel utof           
02F6   2???               M  call utof
                      03074 
                      03075 
                      03076  
                      03077  HALF_FAR_CALL mulf
02F7   3180               M  pagesel mulf           
02F8   2???               M  call mulf
                      03078 
                      03079 
                      03080  
                      03081  FAR_CALL purge,addf
02F9   3180               M  pagesel addf
02FA   2???               M  call addf
02FB   3180               M  pagesel purge
                      03082 
                      03083 
02FC   3020           03084  movlw .32
                      03085  
                      03086 
                      03087 
                      03088 
                      03089    
                      03090  FAR_CALL purge ,safepush
MPASM  5.35                        TARGET.ASM   1-15-2020  22:50:04         PAGE 84


LOC  OBJECT CODE     LINE SOURCE TEXT
  VALUE

02FD   3180               M  pagesel safepush
02FE   2???               M  call safepush
02FF   3180               M  pagesel purge
                      03091 
                      03092 
0300   3003           03093  movlw .3
                      03094  
                      03095 
                      03096 
                      03097    
                      03098  FAR_CALL purge ,safepush
0301   3180               M  pagesel safepush
0302   2???               M  call safepush
0303   3180               M  pagesel purge
                      03099 
                      03100 
0304   30FF           03101  movlw -.1
                      03102 
                      03103    
                      03104  FAR_CALL purge ,safepush
0305   3180               M  pagesel safepush
0306   2???               M  call safepush
0307   3180               M  pagesel purge
                      03105 
                      03106  ; char '0'
                      03107 
                      03108 
0308   3030           03109  movlw .48
                      03110 
                      03111 
                      03112    
                      03113  HALF_FAR_CALL safepush
0309   3180               M  pagesel safepush       
030A   2???               M  call safepush
                      03114 
                      03115 
                      03116  
                      03117  FAR_CALL purge,mul
030B   3180               M  pagesel mul
030C   2???               M  call mul
030D   3180               M  pagesel purge
                      03118 
                      03119 
030E   3005           03120  movlw .5
                      03121 
                      03122    
                      03123  HALF_FAR_CALL safepush
030F   3180               M  pagesel safepush       
0310   2???               M  call safepush
                      03124 
                      03125 
                      03126  
                      03127  HALF_FAR_CALL parm
MPASM  5.35                        TARGET.ASM   1-15-2020  22:50:04         PAGE 85


LOC  OBJECT CODE     LINE SOURCE TEXT
  VALUE

0311   3180               M  pagesel parm           
0312   2???               M  call parm
                      03128 
                      03129 
                      03130  
                      03131  HALF_FAR_CALL add
0313   3180               M  pagesel add            
0314   2???               M  call add
                      03132 
                      03133 
                      03134  
                      03135  HALF_FAR_CALL utof
0315   3180               M  pagesel utof           
0316   2???               M  call utof
                      03136 
                      03137 
                      03138  
                      03139  HALF_FAR_CALL mulf
0317   3180               M  pagesel mulf           
0318   2???               M  call mulf
                      03140 
                      03141 
                      03142  
                      03143  FAR_CALL purge,addf
0319   3180               M  pagesel addf
031A   2???               M  call addf
031B   3180               M  pagesel purge
                      03144 
                      03145 
031C   30FF           03146  movlw -.1
                      03147 
                      03148    
                      03149  FAR_CALL purge ,safepush
031D   3180               M  pagesel safepush
031E   2???               M  call safepush
031F   3180               M  pagesel purge
                      03150 
                      03151  ; char '0'
                      03152 
                      03153 
0320   3030           03154  movlw .48
                      03155 
                      03156 
                      03157    
                      03158  HALF_FAR_CALL safepush
0321   3180               M  pagesel safepush       
0322   2???               M  call safepush
                      03159 
                      03160 
                      03161  
                      03162  FAR_CALL purge,mul
0323   3180               M  pagesel mul
0324   2???               M  call mul
MPASM  5.35                        TARGET.ASM   1-15-2020  22:50:04         PAGE 86


LOC  OBJECT CODE     LINE SOURCE TEXT
  VALUE

0325   3180               M  pagesel purge
                      03163 
                      03164 
0326   3004           03165  movlw .4
                      03166 
                      03167    
                      03168  HALF_FAR_CALL safepush
0327   3180               M  pagesel safepush       
0328   2???               M  call safepush
                      03169 
                      03170 
                      03171  
                      03172  HALF_FAR_CALL parm
0329   3180               M  pagesel parm           
032A   2???               M  call parm
                      03173 
                      03174 
                      03175  
                      03176  HALF_FAR_CALL add
032B   3180               M  pagesel add            
032C   2???               M  call add
                      03177 
                      03178 
                      03179  
                      03180  HALF_FAR_CALL utof
032D   3180               M  pagesel utof           
032E   2???               M  call utof
                      03181 
                      03182 
                      03183  
                      03184  FAR_CALL purge,addf
032F   3180               M  pagesel addf
0330   2???               M  call addf
0331   3180               M  pagesel purge
                      03185 
                      03186 
0332   3043           03187  movlw .67
                      03188  
                      03189 
                      03190 
                      03191 
                      03192    
                      03193  FAR_CALL purge ,safepush
0333   3180               M  pagesel safepush
0334   2???               M  call safepush
0335   3180               M  pagesel purge
                      03194 
                      03195 
0336   3010           03196  movlw .16
                      03197  
                      03198 
                      03199 
                      03200    
MPASM  5.35                        TARGET.ASM   1-15-2020  22:50:04         PAGE 87


LOC  OBJECT CODE     LINE SOURCE TEXT
  VALUE

                      03201  HALF_FAR_CALL safepush
0337   3180               M  pagesel safepush       
0338   2???               M  call safepush
                      03202 
                      03203 
                      03204  
                      03205  FAR_CALL purge,divf
0339   3180               M  pagesel divf
033A   2???               M  call divf
033B   3180               M  pagesel purge
                      03206 
                      03207  POP
033C   0013               M  moviw INDF0-- ; preserve the safety of this code under interruptible conditions. 
033D   002?           03208  banksel tempb
033E   00??           03209  movwf tempb
                      03210  
                      03211 
                      03212  POP
033F   0013               M  moviw INDF0-- ; preserve the safety of this code under interruptible conditions. 
0340   002?           03213  banksel temp
0341   00??           03214  movwf temp
                      03215  
                      03216 
0342   002?           03217    banksel filtervalid
0343   08??           03218    movfw filtervalid
                      03219    
                      03220    
                      03221 
                      03222    
                      03223  FAR_CALL purge ,safepush
0344   3180               M  pagesel safepush
0345   2???               M  call safepush
0346   3180               M  pagesel purge
                      03224 
                      03225  POP
0347   0013               M  moviw INDF0-- ; preserve the safety of this code under interruptible conditions. 
0348   3A00           03226  xorlw .0
0349   1903           03227  btfsc STATUS,Z
034A   2???           03228  goto hlllb51J19 
                      03229  
                      03230 
034B   3000           03231  movlw .0
                      03232  
                      03233 
                      03234 
                      03235 
                      03236    
                      03237  FAR_CALL purge ,safepush
034C   3180               M  pagesel safepush
034D   2???               M  call safepush
034E   3180               M  pagesel purge
                      03238 
                      03239 
MPASM  5.35                        TARGET.ASM   1-15-2020  22:50:04         PAGE 88


LOC  OBJECT CODE     LINE SOURCE TEXT
  VALUE

034F   30FF           03240  movlw .255
                      03241  
                      03242 
                      03243 
                      03244    
                      03245  FAR_CALL purge ,safepush
0350   3180               M  pagesel safepush
0351   2???               M  call safepush
0352   3180               M  pagesel purge
                      03246 
0353   002?           03247    banksel temp
0354   08??           03248    movfw temp
                      03249    
                      03250    
                      03251 
                      03252    
                      03253  FAR_CALL purge ,safepush
0355   3180               M  pagesel safepush
0356   2???               M  call safepush
0357   3180               M  pagesel purge
                      03254 
0358   002?           03255    banksel tempb
0359   08??           03256    movfw tempb
                      03257    
                      03258    
                      03259 
                      03260    
                      03261  HALF_FAR_CALL safepush
035A   3180               M  pagesel safepush       
035B   2???               M  call safepush
                      03262 
                      03263 
                      03264  
                      03265  FAR_CALL purge,mulf
035C   3180               M  pagesel mulf
035D   2???               M  call mulf
035E   3180               M  pagesel purge
                      03266 
                      03267 
035F   3000           03268  movlw .0
                      03269  
                      03270 
                      03271 
                      03272 
                      03273    
                      03274  FAR_CALL purge ,safepush
0360   3180               M  pagesel safepush
0361   2???               M  call safepush
0362   3180               M  pagesel purge
                      03275 
                      03276 
0363   30FF           03277  movlw .255
                      03278  
MPASM  5.35                        TARGET.ASM   1-15-2020  22:50:04         PAGE 89


LOC  OBJECT CODE     LINE SOURCE TEXT
  VALUE

                      03279 
                      03280 
                      03281    
                      03282  FAR_CALL purge ,safepush
0364   3180               M  pagesel safepush
0365   2???               M  call safepush
0366   3180               M  pagesel purge
                      03283 
0367   002?           03284    banksel lonsubmin
0368   08??           03285    movfw lonsubmin
                      03286    
                      03287    
                      03288 
                      03289    
                      03290  FAR_CALL purge ,safepush
0369   3180               M  pagesel safepush
036A   2???               M  call safepush
036B   3180               M  pagesel purge
                      03291 
036C   002?           03292    banksel lonsubminb
036D   08??           03293    movfw lonsubminb
                      03294    
                      03295    
                      03296 
                      03297    
                      03298  HALF_FAR_CALL safepush
036E   3180               M  pagesel safepush       
036F   2???               M  call safepush
                      03299 
                      03300 
                      03301  
                      03302  HALF_FAR_CALL mulf
0370   3180               M  pagesel mulf           
0371   2???               M  call mulf
                      03303 
                      03304 
                      03305  
                      03306  FAR_CALL purge,addf
0372   3180               M  pagesel addf
0373   2???               M  call addf
0374   3180               M  pagesel purge
                      03307 
                      03308  POP
0375   0013               M  moviw INDF0-- ; preserve the safety of this code under interruptible conditions. 
0376   002?           03309  banksel lonsubminb
0377   00??           03310  movwf lonsubminb
                      03311  
                      03312 
                      03313  POP
0378   0013               M  moviw INDF0-- ; preserve the safety of this code under interruptible conditions. 
0379   002?           03314  banksel lonsubmin
037A   00??           03315  movwf lonsubmin
                      03316  
MPASM  5.35                        TARGET.ASM   1-15-2020  22:50:04         PAGE 90


LOC  OBJECT CODE     LINE SOURCE TEXT
  VALUE

                      03317 
                      03318  
037B   2???           03319  goto hlllb51J20
                      03320  
                      03321 
037C                  03322 hlllb51J19:
                      03323 
037C   002?           03324    banksel tempb
037D   08??           03325    movfw tempb
                      03326    
                      03327    
                      03328 
                      03329    
                      03330  FAR_CALL purge ,safepush
037E   3180               M  pagesel safepush
037F   2???               M  call safepush
0380   3180               M  pagesel purge
                      03331 
                      03332  POP
0381   0013               M  moviw INDF0-- ; preserve the safety of this code under interruptible conditions. 
0382   002?           03333  banksel lonsubminb
0383   00??           03334  movwf lonsubminb
                      03335  
                      03336 
0384   002?           03337    banksel temp
0385   08??           03338    movfw temp
                      03339    
                      03340    
                      03341 
                      03342    
                      03343  FAR_CALL purge ,safepush
0386   3180               M  pagesel safepush
0387   2???               M  call safepush
0388   3180               M  pagesel purge
                      03344 
                      03345  POP
0389   0013               M  moviw INDF0-- ; preserve the safety of this code under interruptible conditions. 
038A   002?           03346  banksel lonsubmin
038B   00??           03347  movwf lonsubmin
                      03348  
                      03349 
                      03350 
038C   3001           03351  movlw .1 
                      03352 
                      03353    
                      03354  FAR_CALL purge ,safepush
038D   3180               M  pagesel safepush
038E   2???               M  call safepush
038F   3180               M  pagesel purge
                      03355 
                      03356  POP
0390   0013               M  moviw INDF0-- ; preserve the safety of this code under interruptible conditions. 
0391   002?           03357  banksel filtervalid
MPASM  5.35                        TARGET.ASM   1-15-2020  22:50:04         PAGE 91


LOC  OBJECT CODE     LINE SOURCE TEXT
  VALUE

0392   00??           03358  movwf filtervalid
                      03359  
                      03360 
                      03361 
0393   3001           03362  movlw .1 
                      03363 
                      03364    
                      03365  FAR_CALL purge ,safepush
0394   3180               M  pagesel safepush
0395   2???               M  call safepush
0396   3180               M  pagesel purge
                      03366 
                      03367  POP
0397   0013               M  moviw INDF0-- ; preserve the safety of this code under interruptible conditions. 
0398   002?           03368  banksel fix
0399   00??           03369  movwf fix
                      03370  
                      03371 
                      03372 
039A                  03373 hlllb51J20:
                      03374 
                      03375  
039A   2???           03376  goto hlllb51J22
                      03377  
                      03378 
039B                  03379 hlllb51J21:
                      03380 
                      03381 
039B                  03382 hlllb51J22:
                      03383 
                      03384 
                      03385  KDISCARD
039B   0386               M  decf FSR1L,f 
                      03386 
                      03387 
039C   0008           03388  return
                      03389  
039D                  03390 hllprgen2:
039D   2???           03391  goto hllprgen2
                      03392  
                      03393 
                      03394 
                      03395 
                      03396 
                      03397 
                      03398  
                      03399 
                      03400 
                      03401  
                      03402 hlog1g CODE
                      03403  
0000                  03404 andb: 
0000   3180           03405  pagesel mul
MPASM  5.35                        TARGET.ASM   1-15-2020  22:50:04         PAGE 92


LOC  OBJECT CODE     LINE SOURCE TEXT
  VALUE

0001   2???           03406  goto mul
                      03407 
                      03408  
                      03409 
                      03410 
                      03411 
                      03412 
                      03413 
                      03414  
                      03415 
                      03416  
                      03417 hlog1h CODE
0000                  03418 andu: 
                      03419  POP
0000   0013               M  moviw INDF0-- ; preserve the safety of this code under interruptible conditions. 
0001   0500           03420  andwf HLINDF,w
0002   0384           03421  decf HLFSR,f 
                      03422  PUSH
0003   0018               M  movwi ++INDF0
0004   0008           03423  return
                      03424  
                      03425 
                      03426 
                      03427 
                      03428 
                      03429 
                      03430 
                      03431 
                      03432  
                      03433 
                      03434 
                      03435 hlog1a CODE
                      03436 
                      03437 
                      03438 
                      03439 #define margp2 hllblss00
                      03440 
                      03441 
0000                  03442 clearbit:  
                      03443 #ifdef HLLMULTITASK
                      03444 #ifdef HLLGUARDhllblss 
0000   08??           03445  movf in_isr,f  
0001   1903           03446  btfsc STATUS,Z
                      03447  
                      03448 
                      03449 
0002   2???           03450  goto clearbit0
                      03451 
                      03452  POP
0003   0013               M  moviw INDF0-- ; preserve the safety of this code under interruptible conditions. 
0004   002?           03453  banksel margp2
0005   00??           03454  movwf margp2
                      03455  POP 
MPASM  5.35                        TARGET.ASM   1-15-2020  22:50:04         PAGE 93


LOC  OBJECT CODE     LINE SOURCE TEXT
  VALUE

0006   0013               M  moviw INDF0-- ; preserve the safety of this code under interruptible conditions. 
0007   3A00           03456  xorlw .0
0008   1D03           03457  btfss STATUS,Z
0009   2???           03458  goto tff00h
                      03459  
000A   08??           03460  movfw margp2
000B   39FE           03461  andlw .255-.1
000C   2???           03462  goto tff99h
000D                  03463 tff00h: 
                      03464  
000D   3A01           03465  xorlw .1
000E   1D03           03466  btfss STATUS,Z
000F   2???           03467  goto tff01h
                      03468  
0010   08??           03469  movfw margp2
0011   39FD           03470  andlw .255-.2
0012   2???           03471  goto tff99h
0013                  03472 tff01h: 
0013   3A01           03473  xorlw .1
0014   3A02           03474  xorlw .2
0015   1D03           03475  btfss STATUS,Z
0016   2???           03476  goto tff02h
                      03477  
0017   08??           03478  movfw margp2
0018   39FB           03479  andlw .255-.4
0019   2???           03480  goto tff99h
001A                  03481 tff02h: 
001A   3A02           03482  xorlw .2
001B   3A03           03483  xorlw .3
001C   1D03           03484  btfss STATUS,Z
001D   2???           03485  goto tff03h
                      03486  
001E   08??           03487  movfw margp2
001F   39F7           03488  andlw .255-.8
0020   2???           03489  goto tff99h
0021                  03490 tff03h: 
0021   3A03           03491  xorlw .3
0022   3A04           03492  xorlw .4
0023   1D03           03493  btfss STATUS,Z
0024   2???           03494  goto tff04h
                      03495  
0025   08??           03496  movfw margp2
0026   39EF           03497  andlw .255-.16
0027   2???           03498  goto tff99h
0028                  03499 tff04h: 
0028   3A04           03500  xorlw .4
0029   3A05           03501  xorlw .5
002A   1D03           03502  btfss STATUS,Z
002B   2???           03503  goto tff05h
                      03504  
002C   08??           03505  movfw margp2
002D   39DF           03506  andlw .255-.32
002E   2???           03507  goto tff99h
MPASM  5.35                        TARGET.ASM   1-15-2020  22:50:04         PAGE 94


LOC  OBJECT CODE     LINE SOURCE TEXT
  VALUE

002F                  03508 tff05h: 
002F   3A05           03509  xorlw .5
0030   3A06           03510  xorlw .6
0031   1D03           03511  btfss STATUS,Z
0032   2???           03512  goto tff07h
                      03513  
0033   08??           03514  movfw margp2
0034   39BF           03515  andlw .255-.64
0035   2???           03516  goto tff99h
0036                  03517 tff07h: 
                      03518  
0036   08??           03519  movfw margp2
0037   397F           03520  andlw .255-.128
0038                  03521 tff99h:  
                      03522  PUSH
0038   0018               M  movwi ++INDF0
0039   0008           03523  return
                      03524 
                      03525 
                      03526 
                      03527 
                      03528 #undefine margp2
                      03529 
                      03530 
                      03531 #define margp2 hllblss00+1
                      03532 
                      03533 
003A                  03534 clearbit0:
                      03535 #endif
                      03536 #endif
                      03537 
                      03538  POP
003A   0013               M  moviw INDF0-- ; preserve the safety of this code under interruptible conditions. 
003B   002?           03539  banksel margp2
003C   00??           03540  movwf margp2
                      03541  POP 
003D   0013               M  moviw INDF0-- ; preserve the safety of this code under interruptible conditions. 
003E   3A00           03542  xorlw .0
003F   1D03           03543  btfss STATUS,Z
0040   2???           03544  goto hllAAAAA
                      03545  
0041   08??           03546  movfw margp2
0042   39FE           03547  andlw .255-.1
0043   2???           03548  goto hllHAAAA
0044                  03549 hllAAAAA: 
                      03550  
0044   3A01           03551  xorlw .1
0045   1D03           03552  btfss STATUS,Z
0046   2???           03553  goto hllBAAAA
                      03554  
0047   08??           03555  movfw margp2
0048   39FD           03556  andlw .255-.2
0049   2???           03557  goto hllHAAAA
MPASM  5.35                        TARGET.ASM   1-15-2020  22:50:04         PAGE 95


LOC  OBJECT CODE     LINE SOURCE TEXT
  VALUE

004A                  03558 hllBAAAA: 
004A   3A01           03559  xorlw .1
004B   3A02           03560  xorlw .2
004C   1D03           03561  btfss STATUS,Z
004D   2???           03562  goto hllCAAAA
                      03563  
004E   08??           03564  movfw margp2
004F   39FB           03565  andlw .255-.4
0050   2???           03566  goto hllHAAAA
0051                  03567 hllCAAAA: 
0051   3A02           03568  xorlw .2
0052   3A03           03569  xorlw .3
0053   1D03           03570  btfss STATUS,Z
0054   2???           03571  goto hllDAAAA
                      03572  
0055   08??           03573  movfw margp2
0056   39F7           03574  andlw .255-.8
0057   2???           03575  goto hllHAAAA
0058                  03576 hllDAAAA: 
0058   3A03           03577  xorlw .3
0059   3A04           03578  xorlw .4
005A   1D03           03579  btfss STATUS,Z
005B   2???           03580  goto hllEAAAA
                      03581  
005C   08??           03582  movfw margp2
005D   39EF           03583  andlw .255-.16
005E   2???           03584  goto hllHAAAA
005F                  03585 hllEAAAA: 
005F   3A04           03586  xorlw .4
0060   3A05           03587  xorlw .5
0061   1D03           03588  btfss STATUS,Z
0062   2???           03589  goto hllFAAAA
                      03590  
0063   08??           03591  movfw margp2
0064   39DF           03592  andlw .255-.32
0065   2???           03593  goto hllHAAAA
0066                  03594 hllFAAAA: 
0066   3A05           03595  xorlw .5
0067   3A06           03596  xorlw .6
0068   1D03           03597  btfss STATUS,Z
0069   2???           03598  goto hllGAAAA
                      03599  
006A   08??           03600  movfw margp2
006B   39BF           03601  andlw .255-.64
006C   2???           03602  goto hllHAAAA
006D                  03603 hllGAAAA: 
                      03604  
006D   08??           03605  movfw margp2
006E   397F           03606  andlw .255-.128
006F                  03607 hllHAAAA:  
                      03608  PUSH
006F   0018               M  movwi ++INDF0
0070   0008           03609  return
MPASM  5.35                        TARGET.ASM   1-15-2020  22:50:04         PAGE 96


LOC  OBJECT CODE     LINE SOURCE TEXT
  VALUE

                      03610 
                      03611 
                      03612 
                      03613 
                      03614 #undefine margp2
                      03615 
                      03616 
                      03617 
                      03618 
                      03619  
                      03620  
                      03621 
                      03622 hllcmppic CODE
                      03623 
                      03624 
                      03625 
                      03626 #define mkarg1 hllblss00
                      03627 
                      03628 
0000                  03629 geu:  
                      03630 #ifdef HLLMULTITASK
                      03631 #ifdef HLLGUARDhllblss 
0000   08??           03632  movf in_isr,f  
0001   1903           03633  btfsc STATUS,Z
                      03634  
                      03635 
                      03636 
0002   2???           03637  goto geu0
                      03638 
                      03639 
                      03640  POP
0003   0013               M  moviw INDF0-- ; preserve the safety of this code under interruptible conditions. 
0004   002?           03641  banksel mkarg1
0005   00??           03642  movwf mkarg1    
                      03643  POP
0006   0013               M  moviw INDF0-- ; preserve the safety of this code under interruptible conditions. 
0007   02??           03644  subwf mkarg1,w
0008   1903           03645  btfsc STATUS,Z
0009   2???           03646  goto mxhbl
000A   1803           03647  btfsc STATUS,C
000B   2???           03648  goto mxhbm
000C                  03649 mxhbl:
000C   3001           03650  movlw .1
                      03651  PUSH
000D   0018               M  movwi ++INDF0
                      03652  
000E   0008           03653  return
000F                  03654 mxhbm:
000F   3000           03655  movlw .0
                      03656  PUSH
0010   0018               M  movwi ++INDF0
                      03657  
0011   0008           03658  return
MPASM  5.35                        TARGET.ASM   1-15-2020  22:50:04         PAGE 97


LOC  OBJECT CODE     LINE SOURCE TEXT
  VALUE

                      03659 
                      03660 
                      03661 
                      03662 #undefine mkarg1
                      03663 
                      03664 
                      03665 #define mkarg1 hllblss00+1
                      03666 
                      03667 
0012                  03668 geu0:
                      03669 #endif
                      03670 #endif
                      03671 
                      03672 
                      03673  POP
0012   0013               M  moviw INDF0-- ; preserve the safety of this code under interruptible conditions. 
0013   002?           03674  banksel mkarg1
0014   00??           03675  movwf mkarg1    
                      03676  POP
0015   0013               M  moviw INDF0-- ; preserve the safety of this code under interruptible conditions. 
0016   02??           03677  subwf mkarg1,w
0017   1903           03678  btfsc STATUS,Z
0018   2???           03679  goto hllIAAAA
0019   1803           03680  btfsc STATUS,C
001A   2???           03681  goto hllJAAAA
001B                  03682 hllIAAAA:
001B   3001           03683  movlw .1
                      03684  PUSH
001C   0018               M  movwi ++INDF0
                      03685  
001D   0008           03686  return
001E                  03687 hllJAAAA:
001E   3000           03688  movlw .0
                      03689  PUSH
001F   0018               M  movwi ++INDF0
                      03690  
0020   0008           03691  return
                      03692 
                      03693 
                      03694 
                      03695 #undefine mkarg1
                      03696 
                      03697 
                      03698 
                      03699 
                      03700 
                      03701 
                      03702 
                      03703  
                      03704 
                      03705 
                      03706 
                      03707 ukrnl2 UDATA
MPASM  5.35                        TARGET.ASM   1-15-2020  22:50:04         PAGE 98


LOC  OBJECT CODE     LINE SOURCE TEXT
  VALUE

0000                  03708 stack res HLOE_STACK_SIZE
                      03709  
                      03710 ukrnl3 UDATA 
0000                  03711 alt_stack res HLOE_STACK2_SIZE
                      03712  
                      03713 
                      03714 
                      03715 ukernl udata 
                      03716 
                      03717 
                      03718 
                      03719 
                      03720 
0000                  03721 hllblss00 res 1           
                      03722 #ifdef HLLMULTITASK
                      03723 #ifdef HLLGUARDhllblss
0001                  03724 hllblss00isr res 1      
                      03725 #endif
                      03726 #endif
                      03727 
0002                  03728 hllblss01 res 1    
                      03729 #ifdef HLLMULTITASK
                      03730 #ifdef HLLGUARDhllblss
0003                  03731 hllblss01isr res 1      
                      03732 #endif
                      03733 #endif
                      03734 
0004                  03735 hllblss02 res 1    
                      03736 #ifdef HLLMULTITASK
                      03737 #ifdef HLLGUARDhllblss
0005                  03738 hllblss02isr res 1      
                      03739 #endif
                      03740 #endif
                      03741   
                      03742 ukrshr udata_shr
                      03743 
                      03744 
0000                  03745 softstack0 res 1                
                      03746 #ifdef HLLMULTITASK
0001                  03747 softstack0isr res 1
                      03748 #endif
                      03749 
0002                  03750 softstack1 res 1                
                      03751 #ifdef HLLMULTITASK
0003                  03752 softstack1isr res 1
                      03753 #endif
                      03754 
0004                  03755 softstack2 res 1                
                      03756 #ifdef HLLMULTITASK
0005                  03757 softstack2isr res 1
                      03758 #endif
                      03759 
0006                  03760 alt_fsr res 1
MPASM  5.35                        TARGET.ASM   1-15-2020  22:50:04         PAGE 99


LOC  OBJECT CODE     LINE SOURCE TEXT
  VALUE

0007                  03761 W_Save res 1 
0008                  03762 STATUS_Save res 1
0009                  03763 FSR_Save res 1
000A                  03764 ALT_Save res 1
000B                  03765 in_isr res 1
                      03766 
                      03767 hllkrna00 CODE
                      03768 
                      03769  
                      03770 
                      03771 
                      03772 #define mterm hllblss00
                      03773 
                      03774 
0000                  03775 mul:  
                      03776 #ifdef HLLMULTITASK
                      03777 #ifdef HLLGUARDhllblss 
0000   08??           03778  movf in_isr,f  
0001   1903           03779  btfsc STATUS,Z
                      03780  
                      03781 
                      03782 
0002   2???           03783  goto mul0
                      03784 
                      03785  POP
0003   0013               M  moviw INDF0-- ; preserve the safety of this code under interruptible conditions. 
0004   002?           03786  banksel mterm 
0005   00??           03787  movwf mterm
0006   0103           03788  clrw 
0007   0700           03789  addwf HLINDF,w 
0008   03??           03790  decf mterm,f 
0009   1D03           03791  btfss STATUS,Z 
000A   2???           03792  goto $-3
000B   0080           03793  movwf HLINDF
000C   0008           03794  return
                      03795 
                      03796 
                      03797 
                      03798 #undefine mterm
                      03799 
                      03800 
                      03801 #define mterm hllblss00+1
                      03802 
                      03803 
000D                  03804 mul0:
                      03805 #endif
                      03806 #endif
                      03807 
                      03808  POP
000D   0013               M  moviw INDF0-- ; preserve the safety of this code under interruptible conditions. 
000E   002?           03809  banksel mterm 
000F   00??           03810  movwf mterm
0010   0103           03811  clrw 
MPASM  5.35                        TARGET.ASM   1-15-2020  22:50:04         PAGE 100


LOC  OBJECT CODE     LINE SOURCE TEXT
  VALUE

0011   0700           03812  addwf HLINDF,w 
0012   03??           03813  decf mterm,f 
0013   1D03           03814  btfss STATUS,Z 
0014   2???           03815  goto $-3
0015   0080           03816  movwf HLINDF
0016   0008           03817  return
                      03818 
                      03819 
                      03820 
                      03821 #undefine mterm
                      03822 hllkrna01 CODE
                      03823 
0000                  03824 add: 
                      03825  POP
0000   0013               M  moviw INDF0-- ; preserve the safety of this code under interruptible conditions. 
0001   0700           03826  addwf HLINDF,w
0002   0384           03827  decf HLFSR,f 
                      03828  PUSH
0003   0018               M  movwi ++INDF0
0004   0008           03829  return
                      03830  
                      03831 hllkrna02 CODE 
                      03832 
0000                  03833 negti:  
0000   0980           03834  comf HLINDF,f
0001   0A80           03835  incf HLINDF,f
0002   0008           03836  return
                      03837  
                      03838 hllkrna03 CODE 
                      03839  
0000                  03840 printch:
                      03841  POP
0000   0013               M  moviw INDF0-- ; preserve the safety of this code under interruptible conditions. 
                      03842 #ifdef HLLMULTITASK 
                      03843  
0001   0020           03844  banksel PIR1
0002   1E11           03845  btfss PIR1,TXIF  
0003   2???           03846  goto $-1 
                      03847 #endif 
                      03848  
0004   0023           03849  banksel TXREG
0005   009A           03850  movwf TXREG  
                      03851  
0006   0020           03852  banksel PIR1
0007   1E11           03853  btfss PIR1,TXIF  
0008   2???           03854  goto $-1  
0009   0008           03855  return  
                      03856 
                      03857 
                      03858 
                      03859 
                      03860 hllkrna04 CODE
                      03861  
MPASM  5.35                        TARGET.ASM   1-15-2020  22:50:04         PAGE 101


LOC  OBJECT CODE     LINE SOURCE TEXT
  VALUE

                      03862 
                      03863 
                      03864 #define mterm hllblss00
                      03865 
                      03866 
                      03867 #define mdiv hllblss01
                      03868 
                      03869 
                      03870 #define mquot hllblss02
                      03871 
                      03872 
0000                  03873 modu:  
                      03874 #ifdef HLLMULTITASK
                      03875 #ifdef HLLGUARDhllblss 
0000   08??           03876  movf in_isr,f  
0001   1903           03877  btfsc STATUS,Z
                      03878  
                      03879 
                      03880 
0002   2???           03881  goto modu0
                      03882 
0003   002?           03883  banksel mquot 
0004   01??           03884  clrf mquot
                      03885  POP
0005   0013               M  moviw INDF0-- ; preserve the safety of this code under interruptible conditions. 
0006   00??           03886  movwf mdiv
                      03887  POP
0007   0013               M  moviw INDF0-- ; preserve the safety of this code under interruptible conditions. 
0008   00??           03888  movwf mterm
0009   08??           03889  movfw mdiv
000A   02??           03890  subwf mterm,f
000B   1C03           03891  btfss STATUS,C 
000C   2???           03892  goto $+3
000D   0A??           03893  incf mquot,f 
000E   2???           03894  goto $-4
000F   07??           03895  addwf mterm,w
                      03896  PUSH
0010   0018               M  movwi ++INDF0
0011   0008           03897  return 
                      03898 
                      03899 
                      03900 
                      03901 #undefine mterm
                      03902 
                      03903 
                      03904 #undefine mdiv
                      03905 
                      03906 
                      03907 #undefine mquot
                      03908 
                      03909 
                      03910 #define mterm hllblss00+1
                      03911 
MPASM  5.35                        TARGET.ASM   1-15-2020  22:50:04         PAGE 102


LOC  OBJECT CODE     LINE SOURCE TEXT
  VALUE

                      03912 
                      03913 #define mdiv hllblss01+1
                      03914 
                      03915 
                      03916 #define mquot hllblss02+1
                      03917 
                      03918 
0012                  03919 modu0:
                      03920 #endif
                      03921 #endif
                      03922 
0012   002?           03923  banksel mquot 
0013   01??           03924  clrf mquot
                      03925  POP
0014   0013               M  moviw INDF0-- ; preserve the safety of this code under interruptible conditions. 
0015   00??           03926  movwf mdiv
                      03927  POP
0016   0013               M  moviw INDF0-- ; preserve the safety of this code under interruptible conditions. 
0017   00??           03928  movwf mterm
0018   08??           03929  movfw mdiv
0019   02??           03930  subwf mterm,f
001A   1C03           03931  btfss STATUS,C 
001B   2???           03932  goto $+3
001C   0A??           03933  incf mquot,f 
001D   2???           03934  goto $-4
001E   07??           03935  addwf mterm,w
                      03936  PUSH
001F   0018               M  movwi ++INDF0
0020   0008           03937  return 
                      03938 
                      03939 
                      03940 
                      03941 #undefine mterm
                      03942 
                      03943 
                      03944 #undefine mdiv
                      03945 
                      03946 
                      03947 #undefine mquot
                      03948 hllkrna05 CODE
                      03949 
                      03950 
                      03951 
                      03952 #define mterm hllblss00
                      03953 
                      03954 
                      03955 #define mdiv hllblss01
                      03956 
                      03957 
                      03958 #define mquot hllblss02
                      03959 
                      03960 
0000                  03961 divu:  
MPASM  5.35                        TARGET.ASM   1-15-2020  22:50:04         PAGE 103


LOC  OBJECT CODE     LINE SOURCE TEXT
  VALUE

                      03962 #ifdef HLLMULTITASK
                      03963 #ifdef HLLGUARDhllblss 
0000   08??           03964  movf in_isr,f  
0001   1903           03965  btfsc STATUS,Z
                      03966  
                      03967 
                      03968 
0002   2???           03969  goto divu0
                      03970 
0003   002?           03971  banksel mquot 
0004   01??           03972  clrf mquot
                      03973  POP
0005   0013               M  moviw INDF0-- ; preserve the safety of this code under interruptible conditions. 
0006   00??           03974  movwf mdiv
                      03975  POP
0007   0013               M  moviw INDF0-- ; preserve the safety of this code under interruptible conditions. 
0008   00??           03976  movwf mterm
0009   08??           03977  movfw mdiv
000A   02??           03978  subwf mterm,f
000B   1C03           03979  btfss STATUS,C 
000C   2???           03980  goto $+3
000D   0A??           03981  incf mquot,f 
000E   2???           03982  goto $-4
000F   08??           03983  movfw mquot
                      03984  PUSH
0010   0018               M  movwi ++INDF0
0011   0008           03985  return 
                      03986 
                      03987 
                      03988 
                      03989 #undefine mterm
                      03990 
                      03991 
                      03992 #undefine mdiv
                      03993 
                      03994 
                      03995 #undefine mquot
                      03996 
                      03997 
                      03998 #define mterm hllblss00+1
                      03999 
                      04000 
                      04001 #define mdiv hllblss01+1
                      04002 
                      04003 
                      04004 #define mquot hllblss02+1
                      04005 
                      04006 
0012                  04007 divu0:
                      04008 #endif
                      04009 #endif
                      04010 
0012   002?           04011  banksel mquot 
MPASM  5.35                        TARGET.ASM   1-15-2020  22:50:04         PAGE 104


LOC  OBJECT CODE     LINE SOURCE TEXT
  VALUE

0013   01??           04012  clrf mquot
                      04013  POP
0014   0013               M  moviw INDF0-- ; preserve the safety of this code under interruptible conditions. 
0015   00??           04014  movwf mdiv
                      04015  POP
0016   0013               M  moviw INDF0-- ; preserve the safety of this code under interruptible conditions. 
0017   00??           04016  movwf mterm
0018   08??           04017  movfw mdiv
0019   02??           04018  subwf mterm,f
001A   1C03           04019  btfss STATUS,C 
001B   2???           04020  goto $+3
001C   0A??           04021  incf mquot,f 
001D   2???           04022  goto $-4
001E   08??           04023  movfw mquot
                      04024  PUSH
001F   0018               M  movwi ++INDF0
0020   0008           04025  return 
                      04026 
                      04027 
                      04028 
                      04029 #undefine mterm
                      04030 
                      04031 
                      04032 #undefine mdiv
                      04033 
                      04034 
                      04035 #undefine mquot
                      04036 hllkrna06 CODE
                      04037 
                      04038  
                      04039  
                      04040  
0000                  04041 getch:
0000   0023           04042  banksel RCSTA
0001   1C9D           04043  btfss RCSTA,OERR
0002   2???           04044  goto geth2
0003   121D           04045  bcf RCSTA,CREN
0004   161D           04046  bsf RCSTA,CREN
0005                  04047 geth2:
0005   1D1D           04048  btfss RCSTA,FERR
0006   2???           04049  goto geth4
0007   139D           04050  bcf RCSTA,SPEN
0008   179D           04051  bsf RCSTA,SPEN
0009                  04052 geth4:
0009   0020           04053  banksel PIR1
000A                  04054 geth3: 
000A   1E91           04055  btfss PIR1,RCIF
000B   2???           04056  goto geth3
000C   0023           04057  banksel RCREG
000D   0819           04058  movf RCREG,w
                      04059  PUSH 
000E   0018               M  movwi ++INDF0
000F   0008           04060  return
MPASM  5.35                        TARGET.ASM   1-15-2020  22:50:04         PAGE 105


LOC  OBJECT CODE     LINE SOURCE TEXT
  VALUE

                      04061  
                      04062 hllkrna07 CODE 
                      04063  
0000                  04064 eq: 
                      04065  POP 
0000   0013               M  moviw INDF0-- ; preserve the safety of this code under interruptible conditions. 
0001   0600           04066  xorwf HLINDF,w
0002   3001           04067  movlw .1 
0003   1D03           04068  btfss STATUS,Z
0004   3000           04069  movlw .0 
0005   0384           04070  decf HLFSR,f 
                      04071  PUSH 
0006   0018               M  movwi ++INDF0
0007   0008           04072  return
                      04073  
                      04074  
                      04075  
                      04076 
                      04077 #define sstack0 softstack0 
                      04078 #define sstack1 softstack1 
                      04079 #define sstack2 softstack2 
                      04080 
                      04081 hllparmcore macro 
                      04082  movwf sstack2
                      04083  movfw HLFSR 
                      04084            
                      04085                    
                      04086  movwf sstack0
                      04087  movfw HLINDF
                      04088  
                      04089  subwf sstack2,w
                      04090  movwf HLFSR 
                      04091  movfw HLINDF 
                      04092  
                      04093  movwf sstack1
                      04094  
                      04095  movfw sstack0
                      04096  movwf HLFSR 
                      04097  clrf sstack0
                      04098  movfw sstack1 
                      04099  movwf HLINDF
                      04100  
                      04101  movfw sstack2
                      04102  pagesel kpush
                      04103  goto kpush 
                      04104  endm
                      04105 
                      04106  
                      04107 hllkrna08 CODE  
0000                  04108 parm:
                      04109  KPOP 
0000   0017               M  moviw INDF1--
                      04110  
MPASM  5.35                        TARGET.ASM   1-15-2020  22:50:04         PAGE 106


LOC  OBJECT CODE     LINE SOURCE TEXT
  VALUE

                      04111 #ifdef HLLMULTITASK 
0001   08??           04112  movf in_isr,f 
0002   1D03           04113  btfss STATUS,Z
0003   2???           04114  goto parm4
                      04115  hllparmcore
0004   00??               M  movwf sstack2
0005   0804               M  movfw HLFSR 
                          M            
                          M                    
0006   00??               M  movwf sstack0
0007   0800               M  movfw HLINDF
                          M  
0008   02??               M  subwf sstack2,w
0009   0084               M  movwf HLFSR 
000A   0800               M  movfw HLINDF 
                          M  
000B   00??               M  movwf sstack1
                          M  
000C   08??               M  movfw sstack0
000D   0084               M  movwf HLFSR 
000E   01??               M  clrf sstack0
000F   08??               M  movfw sstack1 
0010   0080               M  movwf HLINDF
                          M  
0011   08??               M  movfw sstack2
0012   3180               M  pagesel kpush
0013   2???               M  goto kpush 
                      04116 #undefine sstack0 
                      04117 #undefine sstack1
                      04118 #undefine sstack2 
                      04119 #define sstack0 softstack0+1
                      04120 #define sstack1 softstack1+1
                      04121 #define sstack2 softstack2+1
0014                  04122 parm4:
                      04123 #endif 
                      04124  hllparmcore
0014   00??               M  movwf sstack2
0015   0804               M  movfw HLFSR 
                          M            
                          M                    
0016   00??               M  movwf sstack0
0017   0800               M  movfw HLINDF
                          M  
0018   02??               M  subwf sstack2,w
0019   0084               M  movwf HLFSR 
001A   0800               M  movfw HLINDF 
                          M  
001B   00??               M  movwf sstack1
                          M  
001C   08??               M  movfw sstack0
001D   0084               M  movwf HLFSR 
001E   01??               M  clrf sstack0
001F   08??               M  movfw sstack1 
MPASM  5.35                        TARGET.ASM   1-15-2020  22:50:04         PAGE 107


LOC  OBJECT CODE     LINE SOURCE TEXT
  VALUE

0020   0080               M  movwf HLINDF
                          M  
0021   08??               M  movfw sstack2
0022   3180               M  pagesel kpush
0023   2???               M  goto kpush 
                      04125 #undefine sstack0 
                      04126 #undefine sstack1
                      04127 #undefine sstack2 
                      04128  
                      04129 hllkrna09 CODE  
0000                  04130 kpop: 
                      04131  KPOP
0000   0017               M  moviw INDF1--
0001   0008           04132  return 
                      04133  
                      04134 hllkrna10 CODE   
0000                  04135 kpush: 
                      04136  KPUSH
0000   001C               M  movwi ++INDF1
0001   0008           04137  return
                      04138 
                      04139 hllkrna11 CODE   
0000                  04140 dispose:
                      04141  DISCARD
0000   0384               M  decf FSR0L,f 
0001   0008           04142  return 
                      04143  
                      04144  
                      04145 
                      04146 
                      04147 
                      04148 
                      04149 
                      04150 
                      04151  
                      04152  
                      04153 
                      04154  
                      04155 hlog1d CODE
                      04156 
0000                  04157 oru: 
                      04158  POP
0000   0013               M  moviw INDF0-- ; preserve the safety of this code under interruptible conditions. 
0001   0400           04159  iorwf HLINDF,w
0002   0384           04160  decf HLFSR,f 
                      04161  PUSH
0003   0018               M  movwi ++INDF0
0004   0008           04162  return
                      04163 
                      04164  
                      04165 
                      04166 
                      04167 
MPASM  5.35                        TARGET.ASM   1-15-2020  22:50:04         PAGE 108


LOC  OBJECT CODE     LINE SOURCE TEXT
  VALUE

                      04168 
                      04169 
                      04170 
                      04171 
                      04172 
                      04173 hllkrn444 CODE    
0000                  04174 safepush: 
                      04175  PUSH
0000   0018               M  movwi ++INDF0
                      04176  
                      04177  
                      04178  
0001   0804           04179  movf HLFSR,w
0002   3C??           04180  sublw stack  
0003   1903           04181  btfsc STATUS,Z
0004   2???           04182  goto kspox5 
0005   1803           04183  btfsc STATUS,C 
0006   2???           04184  goto sperr11 
0007                  04185 kspox5:
                      04186   
                      04187 
0007   0804           04188  movf HLFSR,w
0008   3E01           04189  addlw .1
0009   3C??           04190  sublw (stack+HLOE_STACK_SIZE)  
000A   1C03           04191  btfss STATUS,C
000B   2???           04192  goto sperr11
000C   0800           04193  movf HLINDF,w
000D   0008           04194  return
000E                  04195 sperr11:
000E   138B           04196  BCF INTCON,GIE 
                      04197  DISCARD 
000F   0384               M  decf FSR0L,f 
0010                  04198 dmm445:
0010   3021           04199  movlw '!' 
                      04200  PUSH
0011   0018               M  movwi ++INDF0
                      04201  
                      04202  FAR_CALL safepush,printch
0012   3180               M  pagesel printch
0013   2???               M  call printch
0014   3180               M  pagesel safepush
0015   2???           04203  goto dmm445
                      04204  
                      04205  
                      04206 
                      04207 
                      04208 
                      04209 
                      04210 
                      04211  
                      04212  
                      04213 
                      04214  
MPASM  5.35                        TARGET.ASM   1-15-2020  22:50:04         PAGE 109


LOC  OBJECT CODE     LINE SOURCE TEXT
  VALUE

                      04215 hlog1b CODE
                      04216 
                      04217 
                      04218 #define margp2 hllblss00
                      04219 
                      04220 
0000                  04221 setbit:  
                      04222 #ifdef HLLMULTITASK
                      04223 #ifdef HLLGUARDhllblss 
0000   08??           04224  movf in_isr,f  
0001   1903           04225  btfsc STATUS,Z
                      04226  
                      04227 
                      04228 
0002   2???           04229  goto setbit0
                      04230 
                      04231  POP
0003   0013               M  moviw INDF0-- ; preserve the safety of this code under interruptible conditions. 
0004   002?           04232  banksel margp2
0005   00??           04233  movwf  margp2
                      04234  POP
0006   0013               M  moviw INDF0-- ; preserve the safety of this code under interruptible conditions. 
0007   3A00           04235  xorlw .0
0008   1D03           04236  btfss STATUS,Z
0009   2???           04237  goto tcf00h
                      04238  
000A   08??           04239  movfw  margp2
000B   3801           04240  iorlw .1
000C   2???           04241  goto tcf99h
000D                  04242 tcf00h: 
                      04243  
000D   3A01           04244  xorlw .1
000E   1D03           04245  btfss STATUS,Z
000F   2???           04246  goto tcf01h
                      04247  
0010   08??           04248  movfw  margp2
0011   3802           04249  iorlw .2
0012   2???           04250  goto tcf99h
0013                  04251 tcf01h: 
0013   3A01           04252  xorlw .1
0014   3A02           04253  xorlw .2
0015   1D03           04254  btfss STATUS,Z
0016   2???           04255  goto tcf02h
                      04256  
0017   08??           04257  movfw margp2
0018   3804           04258  iorlw .4
0019   2???           04259  goto tcf99h
001A                  04260 tcf02h: 
001A   3A02           04261  xorlw .2
001B   3A03           04262  xorlw .3
001C   1D03           04263  btfss STATUS,Z
001D   2???           04264  goto tcf03h
                      04265  
MPASM  5.35                        TARGET.ASM   1-15-2020  22:50:04         PAGE 110


LOC  OBJECT CODE     LINE SOURCE TEXT
  VALUE

001E   08??           04266  movfw margp2
001F   3808           04267  iorlw .8
0020   2???           04268  goto tcf99h
0021                  04269 tcf03h: 
0021   3A03           04270  xorlw .3
0022   3A04           04271  xorlw .4
0023   1D03           04272  btfss STATUS,Z
0024   2???           04273  goto tcf04h
                      04274  
0025   08??           04275  movfw margp2
0026   3810           04276  iorlw .16
0027   2???           04277  goto tcf99h
0028                  04278 tcf04h: 
0028   3A04           04279  xorlw .4
0029   3A05           04280  xorlw .5
002A   1D03           04281  btfss STATUS,Z
002B   2???           04282  goto tcf05h
                      04283  
002C   08??           04284  movfw margp2
002D   3820           04285  iorlw .32
002E   2???           04286  goto tcf99h
002F                  04287 tcf05h: 
002F   3A05           04288  xorlw .5
0030   3A06           04289  xorlw .6
0031   1D03           04290  btfss STATUS,Z
0032   2???           04291  goto tcf07h
                      04292  
0033   08??           04293  movfw margp2
0034   3840           04294  iorlw .64
0035   2???           04295  goto tcf99h
0036                  04296 tcf07h: 
                      04297  
0036   08??           04298  movfw margp2
0037   3880           04299  iorlw .128 
0038                  04300 tcf99h:  
                      04301  PUSH 
0038   0018               M  movwi ++INDF0
0039   0008           04302  return
                      04303 
                      04304 
                      04305 
                      04306 
                      04307 #undefine margp2
                      04308 
                      04309 
                      04310 #define margp2 hllblss00+1
                      04311 
                      04312 
003A                  04313 setbit0:
                      04314 #endif
                      04315 #endif
                      04316 
                      04317  POP
MPASM  5.35                        TARGET.ASM   1-15-2020  22:50:04         PAGE 111


LOC  OBJECT CODE     LINE SOURCE TEXT
  VALUE

003A   0013               M  moviw INDF0-- ; preserve the safety of this code under interruptible conditions. 
003B   002?           04318  banksel margp2
003C   00??           04319  movwf  margp2
                      04320  POP
003D   0013               M  moviw INDF0-- ; preserve the safety of this code under interruptible conditions. 
003E   3A00           04321  xorlw .0
003F   1D03           04322  btfss STATUS,Z
0040   2???           04323  goto hllKAAAA
                      04324  
0041   08??           04325  movfw  margp2
0042   3801           04326  iorlw .1
0043   2???           04327  goto hllRAAAA
0044                  04328 hllKAAAA: 
                      04329  
0044   3A01           04330  xorlw .1
0045   1D03           04331  btfss STATUS,Z
0046   2???           04332  goto hllLAAAA
                      04333  
0047   08??           04334  movfw  margp2
0048   3802           04335  iorlw .2
0049   2???           04336  goto hllRAAAA
004A                  04337 hllLAAAA: 
004A   3A01           04338  xorlw .1
004B   3A02           04339  xorlw .2
004C   1D03           04340  btfss STATUS,Z
004D   2???           04341  goto hllMAAAA
                      04342  
004E   08??           04343  movfw margp2
004F   3804           04344  iorlw .4
0050   2???           04345  goto hllRAAAA
0051                  04346 hllMAAAA: 
0051   3A02           04347  xorlw .2
0052   3A03           04348  xorlw .3
0053   1D03           04349  btfss STATUS,Z
0054   2???           04350  goto hllNAAAA
                      04351  
0055   08??           04352  movfw margp2
0056   3808           04353  iorlw .8
0057   2???           04354  goto hllRAAAA
0058                  04355 hllNAAAA: 
0058   3A03           04356  xorlw .3
0059   3A04           04357  xorlw .4
005A   1D03           04358  btfss STATUS,Z
005B   2???           04359  goto hllOAAAA
                      04360  
005C   08??           04361  movfw margp2
005D   3810           04362  iorlw .16
005E   2???           04363  goto hllRAAAA
005F                  04364 hllOAAAA: 
005F   3A04           04365  xorlw .4
0060   3A05           04366  xorlw .5
0061   1D03           04367  btfss STATUS,Z
0062   2???           04368  goto hllPAAAA
MPASM  5.35                        TARGET.ASM   1-15-2020  22:50:04         PAGE 112


LOC  OBJECT CODE     LINE SOURCE TEXT
  VALUE

                      04369  
0063   08??           04370  movfw margp2
0064   3820           04371  iorlw .32
0065   2???           04372  goto hllRAAAA
0066                  04373 hllPAAAA: 
0066   3A05           04374  xorlw .5
0067   3A06           04375  xorlw .6
0068   1D03           04376  btfss STATUS,Z
0069   2???           04377  goto hllQAAAA
                      04378  
006A   08??           04379  movfw margp2
006B   3840           04380  iorlw .64
006C   2???           04381  goto hllRAAAA
006D                  04382 hllQAAAA: 
                      04383  
006D   08??           04384  movfw margp2
006E   3880           04385  iorlw .128 
006F                  04386 hllRAAAA:  
                      04387  PUSH 
006F   0018               M  movwi ++INDF0
0070   0008           04388  return
                      04389 
                      04390 
                      04391 
                      04392 
                      04393 #undefine margp2
                      04394 
                      04395 
                      04396 
                      04397 
                      04398 sfpu UDATA
                      04399  
                      04400  
                      04401  
                      04402  
0000                  04403 sfploc00 res .1
0001                  04404 sfpaux00 res .1
                      04405 
                      04406 #ifdef HLLMULTITASK   
                      04407 #ifdef HLLGUARDsfploc
                      04408 sfploc00isr res .1
                      04409 sfpaux00isr res .1
                      04410 #endif
                      04411 #endif
                      04412 
0002                  04413 sfploc01 res .1
0003                  04414 sfpaux01 res .1
                      04415 
                      04416 #ifdef HLLMULTITASK
                      04417 #ifdef HLLGUARDsfploc
                      04418 sfploc01isr res .1
                      04419 sfpaux01isr res .1
                      04420 #endif
MPASM  5.35                        TARGET.ASM   1-15-2020  22:50:04         PAGE 113


LOC  OBJECT CODE     LINE SOURCE TEXT
  VALUE

                      04421 #endif
                      04422 
                      04423 
0004                  04424 sfploc02 res .1
0005                  04425 sfpaux02 res .1
                      04426 
                      04427 #ifdef HLLMULTITASK
                      04428 #ifdef HLLGUARDsfploc
                      04429 sfploc02isr res .1
                      04430 sfpaux02isr res .1
                      04431 #endif
                      04432 #endif
                      04433 
                      04434 
0006                  04435 sfploc03 res .1
0007                  04436 sfpaux03 res .1
                      04437 
                      04438 #ifdef HLLMULTITASK
                      04439 #ifdef HLLGUARDsfploc
                      04440 sfploc03isr res .1
                      04441 sfpaux03isr res .1
                      04442 #endif
                      04443 #endif
                      04444 
                      04445 
0008                  04446 sfploc04 res .1
                      04447 
                      04448 #ifdef HLLMULTITASK
                      04449 #ifdef HLLGUARDsfploc
                      04450 sfploc04isr res .1
                      04451 #endif
                      04452 #endif
                      04453 
                      04454 
0009                  04455 sfploc05 res .1
                      04456 
                      04457 #ifdef HLLMULTITASK
                      04458 #ifdef HLLGUARDsfploc
                      04459 sfploc05isr res .1
                      04460 #endif
                      04461 #endif
                      04462 
                      04463 
000A                  04464 sfploc06 res .1
                      04465 
                      04466 #ifdef HLLMULTITASK
                      04467 #ifdef HLLGUARDsfploc
                      04468 sfploc06isr res .1
                      04469 #endif
                      04470 #endif
                      04471 
                      04472 
000B                  04473 sfploc07 res .1
MPASM  5.35                        TARGET.ASM   1-15-2020  22:50:04         PAGE 114


LOC  OBJECT CODE     LINE SOURCE TEXT
  VALUE

                      04474 
                      04475 #ifdef HLLMULTITASK
                      04476 #ifdef HLLGUARDsfploc
                      04477 sfploc07isr res .1
                      04478 #endif
                      04479 #endif
                      04480 
                      04481 
000C                  04482 sfploc08 res .1
                      04483 
                      04484 #ifdef HLLMULTITASK
                      04485 #ifdef HLLGUARDsfploc
                      04486 sfploc08isr res .1
                      04487 #endif
                      04488 #endif
                      04489 
                      04490 
000D                  04491 sfploc09 res .1
                      04492 
                      04493 #ifdef HLLMULTITASK
                      04494 #ifdef HLLGUARDsfploc
                      04495 sfploc09isr res .1
                      04496 #endif
                      04497 #endif
                      04498 
                      04499 
000E                  04500 sfploc10 res .1
                      04501 
                      04502 #ifdef HLLMULTITASK
                      04503 #ifdef HLLGUARDsfploc
                      04504 sfploc10isr res .1
                      04505 #endif
                      04506 #endif
                      04507 
                      04508 
000F                  04509 sfploc11 res .1
                      04510 
                      04511 #ifdef HLLMULTITASK
                      04512 #ifdef HLLGUARDsfploc
                      04513 sfploc11isr res .1
                      04514 #endif
                      04515 #endif
                      04516 
                      04517 
0010                  04518 sfploc12 res .1
                      04519 
                      04520 #ifdef HLLMULTITASK
                      04521 #ifdef HLLGUARDsfploc
                      04522 sfploc12isr res .1
                      04523 #endif
                      04524 #endif
                      04525 
                      04526 
MPASM  5.35                        TARGET.ASM   1-15-2020  22:50:04         PAGE 115


LOC  OBJECT CODE     LINE SOURCE TEXT
  VALUE

0011                  04527 sfploc13 res .1
                      04528 
                      04529 #ifdef HLLMULTITASK
                      04530 #ifdef HLLGUARDsfploc
                      04531 sfploc13isr res .1
                      04532 #endif
                      04533 #endif
                      04534 
                      04535 
0012                  04536 sfploc14 res .1
                      04537 
                      04538 #ifdef HLLMULTITASK
                      04539 #ifdef HLLGUARDsfploc
                      04540 sfploc14isr res .1
                      04541 #endif
                      04542 #endif
                      04543 
                      04544 
0013                  04545 sfploc15 res .1
                      04546 
                      04547 #ifdef HLLMULTITASK
                      04548 #ifdef HLLGUARDsfploc
                      04549 sfploc15isr res .1
                      04550 #endif
                      04551 #endif
                      04552 
                      04553 
0014                  04554 sfploc16 res .1
                      04555 
                      04556 #ifdef HLLMULTITASK
                      04557 #ifdef HLLGUARDsfploc
                      04558 sfploc16isr res .1
                      04559 #endif
                      04560 #endif
                      04561 
                      04562 
0015                  04563 sfploc17 res .1 
                      04564 
                      04565 #ifdef HLLMULTITASK
                      04566 #ifdef HLLGUARDsfploc
                      04567 sfploc17isr res .1
                      04568 #endif
                      04569 #endif
                      04570 
                      04571 
                      04572  
                      04573 
                      04574 
                      04575 
                      04576 
                      04577 
                      04578 
                      04579 
MPASM  5.35                        TARGET.ASM   1-15-2020  22:50:04         PAGE 116


LOC  OBJECT CODE     LINE SOURCE TEXT
  VALUE

                      04580 
                      04581  
                      04582  
                      04583 
                      04584 sfp_add CODE
                      04585 
                      04586 
                      04587 
                      04588 
                      04589 #define mout_hi sfploc00
                      04590 
                      04591 
                      04592 #define big_c sfploc01
                      04593 
                      04594 
                      04595 #define min2_lower sfploc02
                      04596 
                      04597 
                      04598 #define minres sfploc03
                      04599 
                      04600 
                      04601 #define fulmin2H sfploc04
                      04602 
                      04603 
                      04604 #define fulminH sfploc05
                      04605 
                      04606 
                      04607 #define min_lower sfploc06
                      04608 
                      04609 
                      04610 #define rev sfploc07
                      04611 
                      04612 
                      04613 #define fulmin2 sfploc08
                      04614 
                      04615 
                      04616 #define fulmin sfploc09
                      04617 
                      04618 
                      04619 #define multiplier sfploc10
                      04620 
                      04621 
                      04622 #define mout sfploc11
                      04623 
                      04624 
                      04625 #define util sfploc12
                      04626 
                      04627 
                      04628 #define neg sfploc13
                      04629 
                      04630 
                      04631 #define ein2 sfploc14
                      04632 
MPASM  5.35                        TARGET.ASM   1-15-2020  22:50:04         PAGE 117


LOC  OBJECT CODE     LINE SOURCE TEXT
  VALUE

                      04633 
                      04634 #define min2 sfploc15
                      04635 
                      04636 
                      04637 #define ein1 sfploc16
                      04638 
                      04639 
                      04640 #define min sfploc17
                      04641 
                      04642 
0000                  04643 addf:  
                      04644 #ifdef HLLMULTITASK
                      04645 #ifdef HLLGUARDsfploc 
                      04646  movf in_isr,f  
                      04647  btfsc STATUS,Z
                      04648  
                      04649 
                      04650 
                      04651  goto addf0
                      04652 
                      04653 
                      04654  
                      04655  
                      04656  
                      04657  
                      04658  
                      04659  
                      04660  
                      04661  
                      04662  POP
                      04663  banksel min
                      04664  movwf ein2 
                      04665  POP
                      04666  banksel min
                      04667  movwf min2 
                      04668 
                      04669  POP
                      04670  banksel min
                      04671  movwf ein1 
                      04672 
                      04673  POP
                      04674  banksel min
                      04675  movwf min 
                      04676  
                      04677  
                      04678  
                      04679  
                      04680  bcf minres,0 
                      04681  
                      04682  
                      04683  
                      04684  clrf mout 
                      04685  
MPASM  5.35                        TARGET.ASM   1-15-2020  22:50:04         PAGE 118


LOC  OBJECT CODE     LINE SOURCE TEXT
  VALUE

                      04686  
                      04687  
                      04688  
                      04689  
                      04690  clrf neg
                      04691  btfsc min,7
                      04692  bsf neg,0
                      04693  
                      04694  
                      04695  
                      04696  btfsc min2,7
                      04697  bsf neg,1
                      04698  
                      04699 
                      04700 
                      04701 
                      04702  btfsc ein2,7  
                      04703  goto yzpt44
                      04704  
                      04705  btfss ein1,7
                      04706  goto yzpt65
                      04707  
                      04708  goto ein_lt_ein2
                      04709 yzpt65: 
                      04710  
                      04711  movfw ein1
                      04712  subwf ein2,w    
                      04713  btfss STATUS,C 
                      04714  goto ein_lt_ein1  
                      04715 lz_ein15:
                      04716  goto ein_lt_ein2  
                      04717 yzpt44:   
                      04718  
                      04719  
                      04720  btfsc ein1,7
                      04721  goto yzpt65  
                      04722 ein_lt_ein1:  
                      04723  
                      04724  
                      04725 
                      04726 
                      04727  movf ein2,w
                      04728  xorwf ein1,f
                      04729 
                      04730  movf ein1,w
                      04731  xorwf ein2,f
                      04732 
                      04733  movf ein2,w
                      04734  xorwf ein1,f
                      04735 
                      04736 
                      04737  movf min2,w
                      04738  xorwf min,f
MPASM  5.35                        TARGET.ASM   1-15-2020  22:50:04         PAGE 119


LOC  OBJECT CODE     LINE SOURCE TEXT
  VALUE

                      04739 
                      04740  movf min,w
                      04741  xorwf min2,f
                      04742 
                      04743  movf min2,w
                      04744  xorwf min,f
                      04745  
                      04746  
                      04747  
                      04748  bsf rev,0 
                      04749  
                      04750  
                      04751  
                      04752  goto ein_lt_ein2_done 
                      04753 ein_lt_ein2: 
                      04754  
                      04755  
                      04756  
                      04757  clrf rev 
                      04758 ein_lt_ein2_done: 
                      04759  
                      04760  
                      04761  
                      04762  
                      04763  movfw min 
                      04764  andlw .127 
                      04765  movwf min 
                      04766  
                      04767  
                      04768  
                      04769  movfw min2 
                      04770  andlw .127 
                      04771  movwf min2 
                      04772  
                      04773  
                      04774  
                      04775  clrf fulminH 
                      04776  movfw min 
                      04777  addlw .128 
                      04778  btfsc STATUS,C 
                      04779  incf fulminH,f 
                      04780  
                      04781  
                      04782  movwf fulmin 
                      04783  
                      04784  
                      04785  
                      04786  clrf fulmin2H 
                      04787  movfw min2 
                      04788  addlw .128 
                      04789  btfsc STATUS,C 
                      04790  incf fulmin2H,f 
                      04791  
MPASM  5.35                        TARGET.ASM   1-15-2020  22:50:04         PAGE 120


LOC  OBJECT CODE     LINE SOURCE TEXT
  VALUE

                      04792  movwf fulmin2 
                      04793  
                      04794         
                      04795         
                      04796         
                      04797         
                      04798         
                      04799 
                      04800 
                      04801  clrf min_lower
                      04802 
                      04803  clrf min2_lower
                      04804  
                      04805 whi77:
                      04806 
                      04807 
                      04808  movfw ein1 
                      04809  xorwf ein2,w 
                      04810  btfsc STATUS,Z 
                      04811  goto eein2outw  
                      04812  
                      04813 
                      04814 
                      04815  RSHIFT min_lower
                      04816  
                      04817 
                      04818 
                      04819  RSHIFT fulmin
                      04820  
                      04821 
                      04822  btfss STATUS,C
                      04823  goto nocar001
                      04824  
                      04825 
                      04826  bsf min_lower,7
                      04827 nocar001:
                      04828 
                      04829 
                      04830 
                      04831 
                      04832  incf ein1,f
                      04833 
                      04834 
                      04835  goto whi77
                      04836  
                      04837 
                      04838 eein2outw:      
                      04839 
                      04840  
                      04841  
                      04842  
                      04843  
                      04844  
MPASM  5.35                        TARGET.ASM   1-15-2020  22:50:04         PAGE 121


LOC  OBJECT CODE     LINE SOURCE TEXT
  VALUE

                      04845  btfss rev,0 
                      04846  goto if_2_done 
                      04847 
                      04848 
                      04849 
                      04850  movf fulmin2,w
                      04851  xorwf fulmin,f
                      04852 
                      04853  movf fulmin,w
                      04854  xorwf fulmin2,f
                      04855 
                      04856  movf fulmin2,w
                      04857  xorwf fulmin,f 
                      04858  
                      04859  
                      04860  movfw min_lower 
                      04861  movwf min2_lower 
                      04862  
                      04863  clrf min_lower
                      04864  
                      04865  
                      04866  
                      04867  
                      04868  
                      04869 if_2_done: 
                      04870 
                      04871  banksel min_lower
                      04872 
                      04873  
                      04874  
                      04875 
                      04876 nrev0:  
                      04877 
                      04878  btfss neg,0
                      04879  goto nextspeci0
                      04880  
                      04881 
                      04882  btfss neg,1
                      04883  goto nextspeci0
                      04884 
                      04885 
                      04886 
                      04887 
                      04888  bsf minres,0
                      04889 
                      04890  goto nextspeci2
                      04891 
                      04892  
                      04893  
                      04894  
                      04895  
                      04896 nextspeci0:
                      04897  
MPASM  5.35                        TARGET.ASM   1-15-2020  22:50:04         PAGE 122


LOC  OBJECT CODE     LINE SOURCE TEXT
  VALUE

                      04898 
                      04899  btfss neg,0
                      04900  goto nextspeci1 
                      04901 
                      04902  
                      04903 rrrout0:
                      04904 
                      04905         
                      04906         
                      04907         
                      04908  movfw fulmin 
                      04909  subwf fulmin2,w 
                      04910  movwf mout 
                      04911  
                      04912  
                      04913  btfsc STATUS,C
                      04914  goto nc11rr            
                      04915                 
                      04916         
                      04917  bsf minres,0   
                      04918         
                      04919         
                      04920  goto rrrout1   
                      04921         
                      04922 nc11rr:
                      04923 
                      04924         
                      04925  movf mout,f
                      04926  btfsc STATUS,Z
                      04927  goto specidone0        
                      04928 mouty:
                      04929 
                      04930         
                      04931  btfsc mout,7   
                      04932  goto nn91   
                      04933         
                      04934         
                      04935     
                      04936  LSHIFT mout
                      04937  
                      04938         
                      04939  btfss min_lower,7      
                      04940  goto yym43   
                      04941 
                      04942  
                      04943  decf mout,f    
                      04944 
                      04945         
                      04946  movlw .255
                      04947  xorwf mout,w
                      04948  btfss STATUS,Z
                      04949  goto yym43     
                      04950         
MPASM  5.35                        TARGET.ASM   1-15-2020  22:50:04         PAGE 123


LOC  OBJECT CODE     LINE SOURCE TEXT
  VALUE

                      04951      
                      04952  bsf minres,0
                      04953  
                      04954          
                      04955  goto rrrout1
                      04956          
                      04957 
                      04958 yym43:
                      04959 
                      04960    
                      04961  LSHIFT min_lower
                      04962  
                      04963         
                      04964  decf ein1,f    
                      04965 
                      04966         
                      04967  goto mouty
                      04968 
                      04969 nn91:
                      04970         
                      04971  btfss min_lower,7      
                      04972  goto trup5   
                      04973                 
                      04974         
                      04975  decf mout,f
                      04976 
                      04977         
                      04978  movlw .255
                      04979  xorwf mout,w
                      04980  btfss STATUS,Z
                      04981  goto fltu54    
                      04982                 
                      04983      
                      04984  bsf minres,0    
                      04985          
                      04986          
                      04987  goto rrrout1    
                      04988          
                      04989          
                      04990 fltu54:
                      04991         
                      04992  movlw .127
                      04993  xorwf mout,w
                      04994  btfss STATUS,Z
                      04995  goto trup5     
                      04996         
                      04997         
                      04998         
                      04999         
                      05000  LSHIFT mout
                      05001         
                      05002         
                      05003  decf ein1,f    
MPASM  5.35                        TARGET.ASM   1-15-2020  22:50:04         PAGE 124


LOC  OBJECT CODE     LINE SOURCE TEXT
  VALUE

                      05004         
                      05005         
                      05006  btfsc min_lower,6
                      05007  goto trup5 
                      05008         
                      05009         
                      05010  incf mout,f    
                      05011         
                      05012 trup5:
                      05013         
                      05014  goto specidone0
                      05015 nextspeci1:
                      05016  
                      05017 
                      05018         
                      05019  btfss neg,1
                      05020  goto nextspeci2 
                      05021  
                      05022         
                      05023 rrrout1:
                      05024 
                      05025         
                      05026  movfw fulmin2
                      05027  subwf fulmin,w 
                      05028  movwf mout 
                      05029 
                      05030  
                      05031  btfsc STATUS,C
                      05032  goto rmxd3             
                      05033         
                      05034         
                      05035         
                      05036         
                      05037  bsf minres,0
                      05038         
                      05039         
                      05040  goto rrrout0   
                      05041 
                      05042 rmxd3:
                      05043 
                      05044         
                      05045  movf mout,f 
                      05046  btfsc STATUS,Z 
                      05047  goto specidone0 
                      05048         
                      05049 moutx:
                      05050 
                      05051         
                      05052  btfsc mout,7
                      05053  goto nn91b
                      05054  
                      05055         
                      05056         
MPASM  5.35                        TARGET.ASM   1-15-2020  22:50:04         PAGE 125


LOC  OBJECT CODE     LINE SOURCE TEXT
  VALUE

                      05057     
                      05058  LSHIFT mout 
                      05059  
                      05060         
                      05061  btfss min2_lower,7
                      05062  goto spyr5
                      05063 
                      05064         
                      05065         
                      05066  decf mout,f    
                      05067         
                      05068         
                      05069  movlw .255
                      05070  xorwf mout,w
                      05071  btfss STATUS,Z
                      05072  goto spyr5     
                      05073         
                      05074 
                      05075  bsf minres,0
                      05076         
                      05077 
                      05078  goto rrrout0
                      05079         
                      05080 spyr5:
                      05081 
                      05082  
                      05083  LSHIFT min2_lower
                      05084  
                      05085 
                      05086  decf ein1,f
                      05087    
                      05088         
                      05089  goto moutx     
                      05090 nn91b:
                      05091 
                      05092         
                      05093  btfss min2_lower,7
                      05094  goto cxaa
                      05095 
                      05096         
                      05097  decf mout,f    
                      05098         
                      05099         
                      05100  movlw .255
                      05101  xorwf mout,w
                      05102  btfss STATUS,Z
                      05103  goto iwrtt     
                      05104                 
                      05105         
                      05106  bsf minres,0
                      05107  
                      05108         
                      05109  goto rrrout0
MPASM  5.35                        TARGET.ASM   1-15-2020  22:50:04         PAGE 126


LOC  OBJECT CODE     LINE SOURCE TEXT
  VALUE

                      05110 iwrtt:
                      05111 
                      05112 
                      05113         
                      05114  movlw .127
                      05115  xorwf mout,w
                      05116  btfss STATUS,Z
                      05117  goto cxaa      
                      05118                 
                      05119         
                      05120         
                      05121         
                      05122  LSHIFT mout
                      05123 
                      05124         
                      05125  decf ein1,f    
                      05126 
                      05127         
                      05128  btfsc min2_lower,6
                      05129  goto cxaa 
                      05130  
                      05131         
                      05132         
                      05133  incf mout,f    
                      05134         
                      05135 cxaa:
                      05136 
                      05137         
                      05138  goto specidone0
                      05139 
                      05140 tpc0lea:
                      05141          
                      05142  movfw fulmin
                      05143  subwf fulmin2,w 
                      05144  movwf mout 
                      05145          
                      05146          
                      05147          
                      05148      
                      05149  bsf minres,0    
                      05150         
                      05151  goto specidone0
                      05152 
                      05153         
                      05154 nextspeci2:
                      05155 
                      05156 
                      05157  
                      05158 
                      05159         
                      05160  clrf mout_hi
                      05161         
                      05162         
MPASM  5.35                        TARGET.ASM   1-15-2020  22:50:04         PAGE 127


LOC  OBJECT CODE     LINE SOURCE TEXT
  VALUE

                      05163         
                      05164  movf fulmin,w
                      05165  addwf fulmin2,w
                      05166  movwf mout
                      05167         
                      05168         
                      05169 
                      05170         
                      05171  btfss STATUS,C 
                      05172  goto cxab                      
                      05173         
                      05174         
                      05175  incf mout_hi,f 
                      05176         
                      05177 cxab:
                      05178 
                      05179 
                      05180 
                      05181         
                      05182  movf min_lower,w
                      05183  addwf min2_lower,w
                      05184  btfsc STATUS,C
                      05185  goto bihhg   
                      05186  
                      05187 
                      05188         
                      05189         
                      05190  andlw .128     
                      05191  btfss STATUS,Z
                      05192  goto bihhg       
                      05193         
                      05194         
                      05195  goto bihh0     
                      05196         
                      05197 bihhg:
                      05198 
                      05199 
                      05200         
                      05201  incf mout,f    
                      05202         
                      05203         
                      05204  movf mout,f
                      05205  btfss STATUS,Z
                      05206  goto bihh0 
                      05207 
                      05208         
                      05209  incf mout_hi,f
                      05210 
                      05211 bihh0:
                      05212         
                      05213  movf mout_hi,f
                      05214  btfsc STATUS,Z
                      05215  goto specidone0 
MPASM  5.35                        TARGET.ASM   1-15-2020  22:50:04         PAGE 128


LOC  OBJECT CODE     LINE SOURCE TEXT
  VALUE

                      05216 
                      05217         
                      05218         
                      05219         
                      05220         
                      05221  clrf big_c
                      05222  RSHIFT fulmin
                      05223  btfsc STATUS,C
                      05224  bsf big_c,0
                      05225         
                      05226         
                      05227  RSHIFT min_lower
                      05228 
                      05229         
                      05230         
                      05231  btfss big_c,0
                      05232  goto ddnyy
                      05233         
                      05234         
                      05235         
                      05236  bsf min_lower,7        
                      05237         
                      05238 ddnyy:
                      05239 
                      05240         
                      05241         
                      05242  clrf big_c
                      05243  RSHIFT fulmin2
                      05244  btfsc STATUS,C
                      05245  bsf big_c,0
                      05246         
                      05247         
                      05248         
                      05249         
                      05250  RSHIFT min2_lower
                      05251         
                      05252         
                      05253         
                      05254  btfss big_c,0
                      05255  goto ddnzz
                      05256 
                      05257         
                      05258         
                      05259         
                      05260  bsf min_lower,7                
                      05261         
                      05262 ddnzz:
                      05263 
                      05264         
                      05265  incf ein1,f    
                      05266         
                      05267         
                      05268  goto nextspeci2
MPASM  5.35                        TARGET.ASM   1-15-2020  22:50:04         PAGE 129


LOC  OBJECT CODE     LINE SOURCE TEXT
  VALUE

                      05269 
                      05270 
                      05271 specidone0:
                      05272 
                      05273  movfw mout 
                      05274  
                      05275  
                      05276  btfss STATUS,Z 
                      05277  goto nomoutzeer 
                      05278  
                      05279  
                      05280  
                      05281  movlw .0 
                      05282 
                      05283  PUSH
                      05284  
                      05285  
                      05286  
                      05287  movlw 0x80 
                      05288  PUSH
                      05289  
                      05290  
                      05291  
                      05292  goto re455tu
                      05293  
                      05294  
                      05295  
                      05296 nomoutzeer: 
                      05297  
                      05298  
                      05299  
                      05300  
                      05301  movfw mout
                      05302  addlw -.128 
                      05303  movwf mout 
                      05304 
                      05305  
                      05306  
                      05307  
                      05308  btfsc minres,0 
                      05309  bsf mout,7
                      05310  
                      05311  movfw mout 
                      05312  PUSH
                      05313  
                      05314  
                      05315  
                      05316  banksel min
                      05317  movfw ein1 
                      05318 
                      05319  PUSH
                      05320  
                      05321 re455tu:
MPASM  5.35                        TARGET.ASM   1-15-2020  22:50:04         PAGE 130


LOC  OBJECT CODE     LINE SOURCE TEXT
  VALUE

                      05322  
                      05323  return 
                      05324 
                      05325  
                      05326 
                      05327 
                      05328 #undefine mout_hi
                      05329 
                      05330 
                      05331 #undefine big_c
                      05332 
                      05333 
                      05334 #undefine min2_lower
                      05335 
                      05336 
                      05337 #undefine minres
                      05338 
                      05339 
                      05340 #undefine fulmin2H
                      05341 
                      05342 
                      05343 #undefine fulminH
                      05344 
                      05345 
                      05346 #undefine min_lower
                      05347 
                      05348 
                      05349 #undefine rev
                      05350 
                      05351 
                      05352 #undefine fulmin2
                      05353 
                      05354 
                      05355 #undefine fulmin
                      05356 
                      05357 
                      05358 #undefine multiplier
                      05359 
                      05360 
                      05361 #undefine mout
                      05362 
                      05363 
                      05364 #undefine util
                      05365 
                      05366 
                      05367 #undefine neg
                      05368 
                      05369 
                      05370 #undefine ein2
                      05371 
                      05372 
                      05373 #undefine min2
                      05374 
MPASM  5.35                        TARGET.ASM   1-15-2020  22:50:04         PAGE 131


LOC  OBJECT CODE     LINE SOURCE TEXT
  VALUE

                      05375 
                      05376 #undefine ein1
                      05377 
                      05378 
                      05379 #undefine min
                      05380 
                      05381 
                      05382 #define mout_hi sfploc00+1
                      05383 
                      05384 
                      05385 #define big_c sfploc01+1
                      05386 
                      05387 
                      05388 #define min2_lower sfploc02+1
                      05389 
                      05390 
                      05391 #define minres sfploc03+1
                      05392 
                      05393 
                      05394 #define fulmin2H sfploc04+1
                      05395 
                      05396 
                      05397 #define fulminH sfploc05+1
                      05398 
                      05399 
                      05400 #define min_lower sfploc06+1
                      05401 
                      05402 
                      05403 #define rev sfploc07+1
                      05404 
                      05405 
                      05406 #define fulmin2 sfploc08+1
                      05407 
                      05408 
                      05409 #define fulmin sfploc09+1
                      05410 
                      05411 
                      05412 #define multiplier sfploc10+1
                      05413 
                      05414 
                      05415 #define mout sfploc11+1
                      05416 
                      05417 
                      05418 #define util sfploc12+1
                      05419 
                      05420 
                      05421 #define neg sfploc13+1
                      05422 
                      05423 
                      05424 #define ein2 sfploc14+1
                      05425 
                      05426 
                      05427 #define min2 sfploc15+1
MPASM  5.35                        TARGET.ASM   1-15-2020  22:50:04         PAGE 132


LOC  OBJECT CODE     LINE SOURCE TEXT
  VALUE

                      05428 
                      05429 
                      05430 #define ein1 sfploc16+1
                      05431 
                      05432 
                      05433 #define min sfploc17+1
                      05434 
                      05435 
                      05436 addf0:
                      05437 #endif
                      05438 #endif
                      05439 
                      05440 
                      05441  
                      05442  
                      05443  
                      05444  
                      05445  
                      05446  
                      05447  
                      05448  
                      05449  POP
0000   0013               M  moviw INDF0-- ; preserve the safety of this code under interruptible conditions. 
0001   002?           05450  banksel min
0002   00??           05451  movwf ein2 
                      05452  POP
0003   0013               M  moviw INDF0-- ; preserve the safety of this code under interruptible conditions. 
0004   002?           05453  banksel min
0005   00??           05454  movwf min2 
                      05455 
                      05456  POP
0006   0013               M  moviw INDF0-- ; preserve the safety of this code under interruptible conditions. 
0007   002?           05457  banksel min
0008   00??           05458  movwf ein1 
                      05459 
                      05460  POP
0009   0013               M  moviw INDF0-- ; preserve the safety of this code under interruptible conditions. 
000A   002?           05461  banksel min
000B   00??           05462  movwf min 
                      05463  
                      05464  
                      05465  
                      05466  
000C   1000           05467  bcf minres,0 
                      05468  
                      05469  
                      05470  
000D   01??           05471  clrf mout 
                      05472  
                      05473  
                      05474  
                      05475  
                      05476  
MPASM  5.35                        TARGET.ASM   1-15-2020  22:50:04         PAGE 133


LOC  OBJECT CODE     LINE SOURCE TEXT
  VALUE

000E   01??           05477  clrf neg
000F   1B80           05478  btfsc min,7
0010   1400           05479  bsf neg,0
                      05480  
                      05481  
                      05482  
0011   1B80           05483  btfsc min2,7
0012   1480           05484  bsf neg,1
                      05485  
                      05486 
                      05487 
                      05488 
0013   1B80           05489  btfsc ein2,7  
0014   2???           05490  goto hllUAAAA
                      05491  
0015   1F80           05492  btfss ein1,7
0016   2???           05493  goto hllSAAAA
                      05494  
0017   2???           05495  goto hllWAAAA
0018                  05496 hllSAAAA: 
                      05497  
0018   08??           05498  movfw ein1
0019   02??           05499  subwf ein2,w    
001A   1C03           05500  btfss STATUS,C 
001B   2???           05501  goto hllVAAAA  
001C                  05502 hllTAAAA:
001C   2???           05503  goto hllWAAAA  
001D                  05504 hllUAAAA:   
                      05505  
                      05506  
001D   1B80           05507  btfsc ein1,7
001E   2???           05508  goto hllSAAAA  
001F                  05509 hllVAAAA:  
                      05510  
                      05511  
                      05512 
                      05513 
001F   08??           05514  movf ein2,w
0020   06??           05515  xorwf ein1,f
                      05516 
0021   08??           05517  movf ein1,w
0022   06??           05518  xorwf ein2,f
                      05519 
0023   08??           05520  movf ein2,w
0024   06??           05521  xorwf ein1,f
                      05522 
                      05523 
0025   08??           05524  movf min2,w
0026   06??           05525  xorwf min,f
                      05526 
0027   08??           05527  movf min,w
0028   06??           05528  xorwf min2,f
                      05529 
MPASM  5.35                        TARGET.ASM   1-15-2020  22:50:04         PAGE 134


LOC  OBJECT CODE     LINE SOURCE TEXT
  VALUE

0029   08??           05530  movf min2,w
002A   06??           05531  xorwf min,f
                      05532  
                      05533  
                      05534  
002B   1400           05535  bsf rev,0 
                      05536  
                      05537  
                      05538  
002C   2???           05539  goto hllWAAAA_done 
002D                  05540 hllWAAAA: 
                      05541  
                      05542  
                      05543  
002D   01??           05544  clrf rev 
002E                  05545 hllWAAAA_done: 
                      05546  
                      05547  
                      05548  
                      05549  
002E   08??           05550  movfw min 
002F   397F           05551  andlw .127 
0030   00??           05552  movwf min 
                      05553  
                      05554  
                      05555  
0031   08??           05556  movfw min2 
0032   397F           05557  andlw .127 
0033   00??           05558  movwf min2 
                      05559  
                      05560  
                      05561  
0034   01??           05562  clrf fulminH 
0035   08??           05563  movfw min 
0036   3E80           05564  addlw .128 
0037   1803           05565  btfsc STATUS,C 
0038   0A??           05566  incf fulminH,f 
                      05567  
                      05568  
0039   00??           05569  movwf fulmin 
                      05570  
                      05571  
                      05572  
003A   01??           05573  clrf fulmin2H 
003B   08??           05574  movfw min2 
003C   3E80           05575  addlw .128 
003D   1803           05576  btfsc STATUS,C 
003E   0A??           05577  incf fulmin2H,f 
                      05578  
003F   00??           05579  movwf fulmin2 
                      05580  
                      05581         
                      05582         
MPASM  5.35                        TARGET.ASM   1-15-2020  22:50:04         PAGE 135


LOC  OBJECT CODE     LINE SOURCE TEXT
  VALUE

                      05583         
                      05584         
                      05585         
                      05586 
                      05587 
0040   01??           05588  clrf min_lower
                      05589 
0041   01??           05590  clrf min2_lower
                      05591  
0042                  05592 hllYAAAA:
                      05593 
                      05594 
0042   08??           05595  movfw ein1 
0043   06??           05596  xorwf ein2,w 
0044   1903           05597  btfsc STATUS,Z 
0045   2???           05598  goto hllABAAA  
                      05599  
                      05600 
                      05601 
                      05602  RSHIFT min_lower
0046   36??               M  lsrf sfploc06,f
                      05603  
                      05604 
                      05605 
                      05606  RSHIFT fulmin
0047   36??               M  lsrf sfploc09,f
                      05607  
                      05608 
0048   1C03           05609  btfss STATUS,C
0049   2???           05610  goto hllZAAAA
                      05611  
                      05612 
004A   1780           05613  bsf min_lower,7
004B                  05614 hllZAAAA:
                      05615 
                      05616 
                      05617 
                      05618 
004B   0A??           05619  incf ein1,f
                      05620 
                      05621 
004C   2???           05622  goto hllYAAAA
                      05623  
                      05624 
004D                  05625 hllABAAA:       
                      05626 
                      05627  
                      05628  
                      05629  
                      05630  
                      05631  
004D   1C00           05632  btfss rev,0 
004E   2???           05633  goto hllBBAAA 
MPASM  5.35                        TARGET.ASM   1-15-2020  22:50:04         PAGE 136


LOC  OBJECT CODE     LINE SOURCE TEXT
  VALUE

                      05634 
                      05635 
                      05636 
004F   08??           05637  movf fulmin2,w
0050   06??           05638  xorwf fulmin,f
                      05639 
0051   08??           05640  movf fulmin,w
0052   06??           05641  xorwf fulmin2,f
                      05642 
0053   08??           05643  movf fulmin2,w
0054   06??           05644  xorwf fulmin,f 
                      05645  
                      05646  
0055   08??           05647  movfw min_lower 
0056   00??           05648  movwf min2_lower 
                      05649  
0057   01??           05650  clrf min_lower
                      05651  
                      05652  
                      05653  
                      05654  
                      05655  
0058                  05656 hllBBAAA: 
                      05657 
0058   002?           05658  banksel min_lower
                      05659 
                      05660  
                      05661  
                      05662 
0059                  05663 hllCBAAA:       
                      05664 
0059   1C00           05665  btfss neg,0
005A   2???           05666  goto hllDBAAA
                      05667  
                      05668 
005B   1C80           05669  btfss neg,1
005C   2???           05670  goto hllDBAAA
                      05671 
                      05672 
                      05673 
                      05674 
005D   1400           05675  bsf minres,0
                      05676 
005E   2???           05677  goto hllUBAAA
                      05678 
                      05679  
                      05680  
                      05681  
                      05682  
005F                  05683 hllDBAAA:
                      05684  
                      05685 
005F   1C00           05686  btfss neg,0
MPASM  5.35                        TARGET.ASM   1-15-2020  22:50:04         PAGE 137


LOC  OBJECT CODE     LINE SOURCE TEXT
  VALUE

0060   2???           05687  goto hllLBAAA 
                      05688 
                      05689  
0061                  05690 hllEBAAA:
                      05691 
                      05692         
                      05693         
                      05694         
0061   08??           05695  movfw fulmin 
0062   02??           05696  subwf fulmin2,w 
0063   00??           05697  movwf mout 
                      05698  
                      05699  
0064   1803           05700  btfsc STATUS,C
0065   2???           05701  goto hllFBAAA          
                      05702                 
                      05703         
0066   1400           05704  bsf minres,0   
                      05705         
                      05706         
0067   2???           05707  goto hllMBAAA  
                      05708         
0068                  05709 hllFBAAA:
                      05710 
                      05711         
0068   08??           05712  movf mout,f
0069   1903           05713  btfsc STATUS,Z
006A   2???           05714  goto hllACAAA  
006B                  05715 hllGBAAA:
                      05716 
                      05717         
006B   1B80           05718  btfsc mout,7   
006C   2???           05719  goto hllIBAAA   
                      05720         
                      05721         
                      05722     
                      05723  LSHIFT mout
006D   35??               M  lslf sfploc11,f
                      05724  
                      05725         
006E   1F80           05726  btfss min_lower,7      
006F   2???           05727  goto hllHBAAA   
                      05728 
                      05729  
0070   03??           05730  decf mout,f    
                      05731 
                      05732         
0071   30FF           05733  movlw .255
0072   06??           05734  xorwf mout,w
0073   1D03           05735  btfss STATUS,Z
0074   2???           05736  goto hllHBAAA  
                      05737         
                      05738      
MPASM  5.35                        TARGET.ASM   1-15-2020  22:50:04         PAGE 138


LOC  OBJECT CODE     LINE SOURCE TEXT
  VALUE

0075   1400           05739  bsf minres,0
                      05740  
                      05741          
0076   2???           05742  goto hllMBAAA
                      05743          
                      05744 
0077                  05745 hllHBAAA:
                      05746 
                      05747    
                      05748  LSHIFT min_lower
0077   35??               M  lslf sfploc06,f
                      05749  
                      05750         
0078   03??           05751  decf ein1,f    
                      05752 
                      05753         
0079   2???           05754  goto hllGBAAA
                      05755 
007A                  05756 hllIBAAA:
                      05757         
007A   1F80           05758  btfss min_lower,7      
007B   2???           05759  goto hllKBAAA   
                      05760                 
                      05761         
007C   03??           05762  decf mout,f
                      05763 
                      05764         
007D   30FF           05765  movlw .255
007E   06??           05766  xorwf mout,w
007F   1D03           05767  btfss STATUS,Z
0080   2???           05768  goto hllJBAAA  
                      05769                 
                      05770      
0081   1400           05771  bsf minres,0    
                      05772          
                      05773          
0082   2???           05774  goto hllMBAAA   
                      05775          
                      05776          
0083                  05777 hllJBAAA:
                      05778         
0083   307F           05779  movlw .127
0084   06??           05780  xorwf mout,w
0085   1D03           05781  btfss STATUS,Z
0086   2???           05782  goto hllKBAAA  
                      05783         
                      05784         
                      05785         
                      05786         
                      05787  LSHIFT mout
0087   35??               M  lslf sfploc11,f
                      05788         
                      05789         
MPASM  5.35                        TARGET.ASM   1-15-2020  22:50:04         PAGE 139


LOC  OBJECT CODE     LINE SOURCE TEXT
  VALUE

0088   03??           05790  decf ein1,f    
                      05791         
                      05792         
0089   1B00           05793  btfsc min_lower,6
008A   2???           05794  goto hllKBAAA 
                      05795         
                      05796         
008B   0A??           05797  incf mout,f    
                      05798         
008C                  05799 hllKBAAA:
                      05800         
008C   2???           05801  goto hllACAAA
008D                  05802 hllLBAAA:
                      05803  
                      05804 
                      05805         
008D   1C80           05806  btfss neg,1
008E   2???           05807  goto hllUBAAA 
                      05808  
                      05809         
008F                  05810 hllMBAAA:
                      05811 
                      05812         
008F   08??           05813  movfw fulmin2
0090   02??           05814  subwf fulmin,w 
0091   00??           05815  movwf mout 
                      05816 
                      05817  
0092   1803           05818  btfsc STATUS,C
0093   2???           05819  goto hllNBAAA          
                      05820         
                      05821         
                      05822         
                      05823         
0094   1400           05824  bsf minres,0
                      05825         
                      05826         
0095   2???           05827  goto hllEBAAA  
                      05828 
0096                  05829 hllNBAAA:
                      05830 
                      05831         
0096   08??           05832  movf mout,f 
0097   1903           05833  btfsc STATUS,Z 
0098   2???           05834  goto hllACAAA 
                      05835         
0099                  05836 hllOBAAA:
                      05837 
                      05838         
0099   1B80           05839  btfsc mout,7
009A   2???           05840  goto hllIBAAAb
                      05841  
                      05842         
MPASM  5.35                        TARGET.ASM   1-15-2020  22:50:04         PAGE 140


LOC  OBJECT CODE     LINE SOURCE TEXT
  VALUE

                      05843         
                      05844     
                      05845  LSHIFT mout 
009B   35??               M  lslf sfploc11,f
                      05846  
                      05847         
009C   1F80           05848  btfss min2_lower,7
009D   2???           05849  goto hllPBAAA
                      05850 
                      05851         
                      05852         
009E   03??           05853  decf mout,f    
                      05854         
                      05855         
009F   30FF           05856  movlw .255
00A0   06??           05857  xorwf mout,w
00A1   1D03           05858  btfss STATUS,Z
00A2   2???           05859  goto hllPBAAA  
                      05860         
                      05861 
00A3   1400           05862  bsf minres,0
                      05863         
                      05864 
00A4   2???           05865  goto hllEBAAA
                      05866         
00A5                  05867 hllPBAAA:
                      05868 
                      05869  
                      05870  LSHIFT min2_lower
00A5   35??               M  lslf sfploc02,f
                      05871  
                      05872 
00A6   03??           05873  decf ein1,f
                      05874    
                      05875         
00A7   2???           05876  goto hllOBAAA  
00A8                  05877 hllIBAAAb:
                      05878 
                      05879         
00A8   1F80           05880  btfss min2_lower,7
00A9   2???           05881  goto hllSBAAA
                      05882 
                      05883         
00AA   03??           05884  decf mout,f    
                      05885         
                      05886         
00AB   30FF           05887  movlw .255
00AC   06??           05888  xorwf mout,w
00AD   1D03           05889  btfss STATUS,Z
00AE   2???           05890  goto hllRBAAA  
                      05891                 
                      05892         
00AF   1400           05893  bsf minres,0
MPASM  5.35                        TARGET.ASM   1-15-2020  22:50:04         PAGE 141


LOC  OBJECT CODE     LINE SOURCE TEXT
  VALUE

                      05894  
                      05895         
00B0   2???           05896  goto hllEBAAA
00B1                  05897 hllRBAAA:
                      05898 
                      05899 
                      05900         
00B1   307F           05901  movlw .127
00B2   06??           05902  xorwf mout,w
00B3   1D03           05903  btfss STATUS,Z
00B4   2???           05904  goto hllSBAAA  
                      05905                 
                      05906         
                      05907         
                      05908         
                      05909  LSHIFT mout
00B5   35??               M  lslf sfploc11,f
                      05910 
                      05911         
00B6   03??           05912  decf ein1,f    
                      05913 
                      05914         
00B7   1B00           05915  btfsc min2_lower,6
00B8   2???           05916  goto hllSBAAA 
                      05917  
                      05918         
                      05919         
00B9   0A??           05920  incf mout,f    
                      05921         
00BA                  05922 hllSBAAA:
                      05923 
                      05924         
00BA   2???           05925  goto hllACAAA
                      05926 
00BB                  05927 hllTBAAA:
                      05928          
00BB   08??           05929  movfw fulmin
00BC   02??           05930  subwf fulmin2,w 
00BD   00??           05931  movwf mout 
                      05932          
                      05933          
                      05934          
                      05935      
00BE   1400           05936  bsf minres,0    
                      05937         
00BF   2???           05938  goto hllACAAA
                      05939 
                      05940         
00C0                  05941 hllUBAAA:
                      05942 
                      05943 
                      05944  
                      05945 
MPASM  5.35                        TARGET.ASM   1-15-2020  22:50:04         PAGE 142


LOC  OBJECT CODE     LINE SOURCE TEXT
  VALUE

                      05946         
00C0   01??           05947  clrf mout_hi
                      05948         
                      05949         
                      05950         
00C1   08??           05951  movf fulmin,w
00C2   07??           05952  addwf fulmin2,w
00C3   00??           05953  movwf mout
                      05954         
                      05955         
                      05956 
                      05957         
00C4   1C03           05958  btfss STATUS,C 
00C5   2???           05959  goto hllVBAAA                  
                      05960         
                      05961         
00C6   0A??           05962  incf mout_hi,f 
                      05963         
00C7                  05964 hllVBAAA:
                      05965 
                      05966 
                      05967 
                      05968         
00C7   08??           05969  movf min_lower,w
00C8   07??           05970  addwf min2_lower,w
00C9   1803           05971  btfsc STATUS,C
00CA   2???           05972  goto hllWBAAA   
                      05973  
                      05974 
                      05975         
                      05976         
00CB   3980           05977  andlw .128     
00CC   1D03           05978  btfss STATUS,Z
00CD   2???           05979  goto hllWBAAA    
                      05980         
                      05981         
00CE   2???           05982  goto hllXBAAA  
                      05983         
00CF                  05984 hllWBAAA:
                      05985 
                      05986 
                      05987         
00CF   0A??           05988  incf mout,f    
                      05989         
                      05990         
00D0   08??           05991  movf mout,f
00D1   1D03           05992  btfss STATUS,Z
00D2   2???           05993  goto hllXBAAA 
                      05994 
                      05995         
00D3   0A??           05996  incf mout_hi,f
                      05997 
00D4                  05998 hllXBAAA:
MPASM  5.35                        TARGET.ASM   1-15-2020  22:50:04         PAGE 143


LOC  OBJECT CODE     LINE SOURCE TEXT
  VALUE

                      05999         
00D4   08??           06000  movf mout_hi,f
00D5   1903           06001  btfsc STATUS,Z
00D6   2???           06002  goto hllACAAA 
                      06003 
                      06004         
                      06005         
                      06006         
                      06007         
00D7   01??           06008  clrf big_c
                      06009  RSHIFT fulmin
00D8   36??               M  lsrf sfploc09,f
00D9   1803           06010  btfsc STATUS,C
00DA   1400           06011  bsf big_c,0
                      06012         
                      06013         
                      06014  RSHIFT min_lower
00DB   36??               M  lsrf sfploc06,f
                      06015 
                      06016         
                      06017         
00DC   1C00           06018  btfss big_c,0
00DD   2???           06019  goto hllYBAAA
                      06020         
                      06021         
                      06022         
00DE   1780           06023  bsf min_lower,7        
                      06024         
00DF                  06025 hllYBAAA:
                      06026 
                      06027         
                      06028         
00DF   01??           06029  clrf big_c
                      06030  RSHIFT fulmin2
00E0   36??               M  lsrf sfploc08,f
00E1   1803           06031  btfsc STATUS,C
00E2   1400           06032  bsf big_c,0
                      06033         
                      06034         
                      06035         
                      06036         
                      06037  RSHIFT min2_lower
00E3   36??               M  lsrf sfploc02,f
                      06038         
                      06039         
                      06040         
00E4   1C00           06041  btfss big_c,0
00E5   2???           06042  goto hllZBAAA
                      06043 
                      06044         
                      06045         
                      06046         
00E6   1780           06047  bsf min_lower,7                
MPASM  5.35                        TARGET.ASM   1-15-2020  22:50:04         PAGE 144


LOC  OBJECT CODE     LINE SOURCE TEXT
  VALUE

                      06048         
00E7                  06049 hllZBAAA:
                      06050 
                      06051         
00E7   0A??           06052  incf ein1,f    
                      06053         
                      06054         
00E8   2???           06055  goto hllUBAAA
                      06056 
                      06057 
00E9                  06058 hllACAAA:
                      06059 
00E9   08??           06060  movfw mout 
                      06061  
                      06062  
00EA   1D03           06063  btfss STATUS,Z 
00EB   2???           06064  goto hllBCAAA 
                      06065  
                      06066  
                      06067  
00EC   3000           06068  movlw .0 
                      06069 
                      06070  PUSH
00ED   0018               M  movwi ++INDF0
                      06071  
                      06072  
                      06073  
00EE   3080           06074  movlw 0x80 
                      06075  PUSH
00EF   0018               M  movwi ++INDF0
                      06076  
                      06077  
                      06078  
00F0   2???           06079  goto hllCCAAA
                      06080  
                      06081  
                      06082  
00F1                  06083 hllBCAAA: 
                      06084  
                      06085  
                      06086  
                      06087  
00F1   08??           06088  movfw mout
00F2   3E80           06089  addlw -.128 
00F3   00??           06090  movwf mout 
                      06091 
                      06092  
                      06093  
                      06094  
00F4   1800           06095  btfsc minres,0 
00F5   1780           06096  bsf mout,7
                      06097  
00F6   08??           06098  movfw mout 
MPASM  5.35                        TARGET.ASM   1-15-2020  22:50:04         PAGE 145


LOC  OBJECT CODE     LINE SOURCE TEXT
  VALUE

                      06099  PUSH
00F7   0018               M  movwi ++INDF0
                      06100  
                      06101  
                      06102  
00F8   002?           06103  banksel min
00F9   08??           06104  movfw ein1 
                      06105 
                      06106  PUSH
00FA   0018               M  movwi ++INDF0
                      06107  
00FB                  06108 hllCCAAA:
                      06109  
00FB   0008           06110  return 
                      06111 
                      06112  
                      06113 
                      06114 
                      06115 #undefine mout_hi
                      06116 
                      06117 
                      06118 #undefine big_c
                      06119 
                      06120 
                      06121 #undefine min2_lower
                      06122 
                      06123 
                      06124 #undefine minres
                      06125 
                      06126 
                      06127 #undefine fulmin2H
                      06128 
                      06129 
                      06130 #undefine fulminH
                      06131 
                      06132 
                      06133 #undefine min_lower
                      06134 
                      06135 
                      06136 #undefine rev
                      06137 
                      06138 
                      06139 #undefine fulmin2
                      06140 
                      06141 
                      06142 #undefine fulmin
                      06143 
                      06144 
                      06145 #undefine multiplier
                      06146 
                      06147 
                      06148 #undefine mout
                      06149 
MPASM  5.35                        TARGET.ASM   1-15-2020  22:50:04         PAGE 146


LOC  OBJECT CODE     LINE SOURCE TEXT
  VALUE

                      06150 
                      06151 #undefine util
                      06152 
                      06153 
                      06154 #undefine neg
                      06155 
                      06156 
                      06157 #undefine ein2
                      06158 
                      06159 
                      06160 #undefine min2
                      06161 
                      06162 
                      06163 #undefine ein1
                      06164 
                      06165 
                      06166 #undefine min
                      06167 
                      06168 
                      06169 
                      06170 
                      06171 
                      06172 
                      06173 
                      06174 
                      06175 
                      06176 
                      06177 
                      06178   
                      06179  
                      06180 
                      06181 sfp_div CODE 
                      06182 
                      06183 
                      06184 #define rounded sfploc00
                      06185 
                      06186 
                      06187 #define big_c sfploc01
                      06188 
                      06189 
                      06190 #define a_hi_msb sfploc02
                      06191 
                      06192 
                      06193 #define loop_count sfploc03
                      06194 
                      06195 
                      06196 #define run_total sfploc04
                      06197 
                      06198 
                      06199 #define min2_lower sfploc05
                      06200 
                      06201 
                      06202 #define subtrahend sfploc06
MPASM  5.35                        TARGET.ASM   1-15-2020  22:50:04         PAGE 147


LOC  OBJECT CODE     LINE SOURCE TEXT
  VALUE

                      06203 
                      06204 
                      06205 #define quotient_lo sfploc07
                      06206 
                      06207 
                      06208 #define term sfploc08
                      06209 
                      06210 
                      06211 #define exam sfploc09
                      06212 
                      06213 
                      06214 #define multiplier sfploc10
                      06215 
                      06216 
                      06217 #define mout sfploc11
                      06218 
                      06219 
                      06220 #define util sfploc12
                      06221 
                      06222 
                      06223 #define neg sfploc13
                      06224 
                      06225 
                      06226 #define ein2 sfploc14
                      06227 
                      06228 
                      06229 #define min2 sfploc15
                      06230 
                      06231 
                      06232 #define ein sfploc16
                      06233 
                      06234 
                      06235 #define min sfploc17
                      06236 
                      06237 
0000                  06238 divf:  
                      06239 #ifdef HLLMULTITASK
                      06240 #ifdef HLLGUARDsfploc 
                      06241  movf in_isr,f  
                      06242  btfsc STATUS,Z
                      06243  
                      06244 
                      06245 
                      06246  goto divf0
                      06247 
                      06248 
                      06249 
                      06250 
                      06251 
                      06252 
                      06253 
                      06254 
                      06255 
MPASM  5.35                        TARGET.ASM   1-15-2020  22:50:04         PAGE 148


LOC  OBJECT CODE     LINE SOURCE TEXT
  VALUE

                      06256 
                      06257 
                      06258 
                      06259 
                      06260 
                      06261 
                      06262  POP
                      06263 
                      06264  banksel min
                      06265  movwf ein2 
                      06266  clrf neg 
                      06267 
                      06268 
                      06269  POP
                      06270 
                      06271  banksel min
                      06272  movwf min2 
                      06273  btfsc min2,7
                      06274  bsf neg,1
                      06275  bcf min2,7 
                      06276 
                      06277  POP
                      06278 
                      06279  banksel min
                      06280  movwf ein 
                      06281 
                      06282  POP
                      06283 
                      06284  banksel min
                      06285  movwf min 
                      06286  btfsc min,7
                      06287  bsf neg,0 
                      06288  bcf min,7 
                      06289  movfw ein 
                      06290  movwf util 
                      06291  movfw ein2 
                      06292  subwf util,f 
                      06293 
                      06294  clrf exam 
                      06295 
                      06296  
                      06297  movfw min 
                      06298  addlw .128 
                      06299  movwf min 
                      06300 
                      06301  movfw min2 
                      06302  addlw .128 
                      06303  movwf min2 
                      06304 
                      06305  
                      06306  
                      06307 
                      06308  
MPASM  5.35                        TARGET.ASM   1-15-2020  22:50:04         PAGE 149


LOC  OBJECT CODE     LINE SOURCE TEXT
  VALUE

                      06309  movwf term 
                      06310 
                      06311 
                      06312 
                      06313 
                      06314  clrf quotient_lo
                      06315 
                      06316 
                      06317  clrf subtrahend
                      06318 
                      06319 
                      06320  clrf min2_lower
                      06321 
                      06322 
                      06323  clrf run_total
                      06324 
                      06325 
                      06326  clrf loop_count
                      06327 
                      06328 f4tp:
                      06329 
                      06330  movf loop_count,w
                      06331  xorlw .16
                      06332  btfsc STATUS,Z
                      06333  goto f4dn
                      06334 
                      06335 
                      06336  movf min,w
                      06337  andlw .128
                      06338  movwf a_hi_msb
                      06339  
                      06340 
                      06341  LSHIFT min2_lower
                      06342 
                      06343 
                      06344 
                      06345  LSHIFT run_total
                      06346 
                      06347 
                      06348  btfss STATUS,C
                      06349  goto que4
                      06350 
                      06351 
                      06352  incf min2_lower,f
                      06353 
                      06354 que4:
                      06355 
                      06356 
                      06357  LSHIFT min
                      06358 
                      06359 
                      06360 
                      06361  LSHIFT quotient_lo
MPASM  5.35                        TARGET.ASM   1-15-2020  22:50:04         PAGE 150


LOC  OBJECT CODE     LINE SOURCE TEXT
  VALUE

                      06362 
                      06363 
                      06364  btfsc STATUS,C
                      06365 
                      06366 
                      06367 
                      06368  incf min,f
                      06369 
                      06370 
                      06371  movf a_hi_msb,f
                      06372  btfsc STATUS,Z
                      06373  goto nry4
                      06374 
                      06375 
                      06376  incf run_total,f
                      06377 
                      06378 
                      06379  btfsc STATUS,Z
                      06380  incf min2_lower,f
                      06381 
                      06382 nry4:
                      06383 
                      06384 
                      06385  clrf big_c 
                      06386  movfw min2
                      06387  subwf run_total,w 
                      06388  btfss STATUS,C 
                      06389  bsf big_c,0 
                      06390 
                      06391 
                      06392  movf subtrahend,w
                      06393  subwf min2_lower,f 
                      06394 
                      06395 
                      06396  movf min2,w
                      06397  subwf run_total,f
                      06398 
                      06399 
                      06400  btfsc big_c,0 
                      06401  decf min2_lower,f
                      06402 
                      06403 
                      06404  btfss min2_lower,7
                      06405  goto ga4g0
                      06406 
                      06407 
                      06408 
                      06409  movf min2,w
                      06410  addwf run_total,w
                      06411  clrf big_c
                      06412  btfsc STATUS,C
                      06413  bsf big_c,0
                      06414 
MPASM  5.35                        TARGET.ASM   1-15-2020  22:50:04         PAGE 151


LOC  OBJECT CODE     LINE SOURCE TEXT
  VALUE

                      06415 
                      06416  movf subtrahend,w
                      06417  addwf min2_lower,f
                      06418 
                      06419 
                      06420  movf min2,w
                      06421  addwf run_total,f
                      06422 
                      06423 
                      06424 
                      06425  btfsc big_c,0 
                      06426  incf min2_lower,f
                      06427 
                      06428 
                      06429 
                      06430  movlw .254
                      06431  andwf quotient_lo,f
                      06432 
                      06433 
                      06434  goto ga5g0
                      06435 ga4g0:
                      06436 
                      06437 
                      06438  movlw .1
                      06439  iorwf quotient_lo,f
                      06440 ga5g0:
                      06441 
                      06442 
                      06443 
                      06444  incf loop_count,f
                      06445 
                      06446 
                      06447  goto f4tp
                      06448 
                      06449 f4dn:
                      06450 
                      06451 
                      06452  movf quotient_lo,w
                      06453  movwf mout
                      06454 
                      06455 
                      06456  clrf multiplier
                      06457  btfsc min,0
                      06458  bsf multiplier,0
                      06459 
                      06460  
                      06461  RSHIFT term
                      06462  
                      06463  clrf rounded
                      06464  movfw run_total
                      06465  subwf term,w    
                      06466  btfsc STATUS,C 
                      06467  goto fr9rh   
MPASM  5.35                        TARGET.ASM   1-15-2020  22:50:04         PAGE 152


LOC  OBJECT CODE     LINE SOURCE TEXT
  VALUE

                      06468  incf mout,f 
                      06469  bsf rounded,0 
                      06470  
                      06471 fr9rh:
                      06472  
                      06473 
                      06474 
                      06475  movf multiplier,f
                      06476  btfsc STATUS,Z
                      06477  goto notmult0
                      06478  
                      06479 
                      06480 
                      06481 
                      06482 
                      06483  
                      06484  btfss mout,0
                      06485  goto prpg1
                      06486 
                      06487  
                      06488  btfsc rounded,0
                      06489  goto prpg1
                      06490  
                      06491  
                      06492 
                      06493  RSHIFT mout
                      06494  
                      06495 
                      06496  incf mout,f
                      06497 
                      06498 
                      06499  goto prpgm
                      06500 
                      06501 prpg1:
                      06502 
                      06503 
                      06504  RSHIFT mout
                      06505  
                      06506 prpgm:
                      06507 
                      06508 
                      06509  bsf mout,7
                      06510 
                      06511  goto notmult1
                      06512 notmult0:
                      06513  decf util,f 
                      06514 notmult1:
                      06515  movfw mout 
                      06516 
                      06517 retrydvif1: 
                      06518 
                      06519   addlw -.128 
                      06520   movwf exam 
MPASM  5.35                        TARGET.ASM   1-15-2020  22:50:04         PAGE 153


LOC  OBJECT CODE     LINE SOURCE TEXT
  VALUE

                      06521   btfss exam,7 
                      06522   goto nodivfcarr2 
                      06523   addlw .128    
                      06524 
                      06525  
                      06526  decf util,f 
                      06527 
                      06528  
                      06529  LSHIFT mout
                      06530  movfw mout 
                      06531  goto retrydvif1 
                      06532 
                      06533 nodivfcarr2: 
                      06534 
                      06535 
                      06536  movwf mout
                      06537 
                      06538 
                      06539 
                      06540  
                      06541  
                      06542  btfsc neg,0
                      06543  goto ita33nq 
                      06544  btfss neg,1
                      06545  goto div_sames 
                      06546  goto div_dif5 
                      06547 ita33nq: 
                      06548  btfsc neg,1
                      06549  goto div_sames 
                      06550 
                      06551 div_dif5: 
                      06552 
                      06553  
                      06554  
                      06555  
                      06556  
                      06557  movfw mout 
                      06558  iorlw .128 
                      06559  movwf mout 
                      06560  
                      06561 
                      06562 div_sames: 
                      06563  movfw mout 
                      06564  PUSH
                      06565  banksel min
                      06566  movfw util 
                      06567  PUSH
                      06568  
                      06569  return 
                      06570 
                      06571  
                      06572  
                      06573 
MPASM  5.35                        TARGET.ASM   1-15-2020  22:50:04         PAGE 154


LOC  OBJECT CODE     LINE SOURCE TEXT
  VALUE

                      06574 
                      06575 #undefine rounded
                      06576 
                      06577 
                      06578 #undefine big_c
                      06579 
                      06580 
                      06581 #undefine a_hi_msb
                      06582 
                      06583 
                      06584 #undefine loop_count
                      06585 
                      06586 
                      06587 #undefine run_total
                      06588 
                      06589 
                      06590 #undefine min2_lower
                      06591 
                      06592 
                      06593 #undefine subtrahend
                      06594 
                      06595 
                      06596 #undefine quotient_lo
                      06597 
                      06598 
                      06599 #undefine term
                      06600 
                      06601 
                      06602 #undefine exam
                      06603 
                      06604 
                      06605 #undefine multiplier
                      06606 
                      06607 
                      06608 #undefine mout
                      06609 
                      06610 
                      06611 #undefine util
                      06612 
                      06613 
                      06614 #undefine neg
                      06615 
                      06616 
                      06617 #undefine ein2
                      06618 
                      06619 
                      06620 #undefine min2
                      06621 
                      06622 
                      06623 #undefine ein
                      06624 
                      06625 
                      06626 #undefine min
MPASM  5.35                        TARGET.ASM   1-15-2020  22:50:04         PAGE 155


LOC  OBJECT CODE     LINE SOURCE TEXT
  VALUE

                      06627 
                      06628 
                      06629 #define rounded sfploc00+1
                      06630 
                      06631 
                      06632 #define big_c sfploc01+1
                      06633 
                      06634 
                      06635 #define a_hi_msb sfploc02+1
                      06636 
                      06637 
                      06638 #define loop_count sfploc03+1
                      06639 
                      06640 
                      06641 #define run_total sfploc04+1
                      06642 
                      06643 
                      06644 #define min2_lower sfploc05+1
                      06645 
                      06646 
                      06647 #define subtrahend sfploc06+1
                      06648 
                      06649 
                      06650 #define quotient_lo sfploc07+1
                      06651 
                      06652 
                      06653 #define term sfploc08+1
                      06654 
                      06655 
                      06656 #define exam sfploc09+1
                      06657 
                      06658 
                      06659 #define multiplier sfploc10+1
                      06660 
                      06661 
                      06662 #define mout sfploc11+1
                      06663 
                      06664 
                      06665 #define util sfploc12+1
                      06666 
                      06667 
                      06668 #define neg sfploc13+1
                      06669 
                      06670 
                      06671 #define ein2 sfploc14+1
                      06672 
                      06673 
                      06674 #define min2 sfploc15+1
                      06675 
                      06676 
                      06677 #define ein sfploc16+1
                      06678 
                      06679 
MPASM  5.35                        TARGET.ASM   1-15-2020  22:50:04         PAGE 156


LOC  OBJECT CODE     LINE SOURCE TEXT
  VALUE

                      06680 #define min sfploc17+1
                      06681 
                      06682 
                      06683 divf0:
                      06684 #endif
                      06685 #endif
                      06686 
                      06687 
                      06688 
                      06689 
                      06690 
                      06691 
                      06692 
                      06693 
                      06694 
                      06695 
                      06696 
                      06697 
                      06698 
                      06699 
                      06700 
                      06701  POP
0000   0013               M  moviw INDF0-- ; preserve the safety of this code under interruptible conditions. 
                      06702 
0001   002?           06703  banksel min
0002   00??           06704  movwf ein2 
0003   01??           06705  clrf neg 
                      06706 
                      06707 
                      06708  POP
0004   0013               M  moviw INDF0-- ; preserve the safety of this code under interruptible conditions. 
                      06709 
0005   002?           06710  banksel min
0006   00??           06711  movwf min2 
0007   1B80           06712  btfsc min2,7
0008   1480           06713  bsf neg,1
0009   1380           06714  bcf min2,7 
                      06715 
                      06716  POP
000A   0013               M  moviw INDF0-- ; preserve the safety of this code under interruptible conditions. 
                      06717 
000B   002?           06718  banksel min
000C   00??           06719  movwf ein 
                      06720 
                      06721  POP
000D   0013               M  moviw INDF0-- ; preserve the safety of this code under interruptible conditions. 
                      06722 
000E   002?           06723  banksel min
000F   00??           06724  movwf min 
0010   1B80           06725  btfsc min,7
0011   1400           06726  bsf neg,0 
0012   1380           06727  bcf min,7 
0013   08??           06728  movfw ein 
MPASM  5.35                        TARGET.ASM   1-15-2020  22:50:04         PAGE 157


LOC  OBJECT CODE     LINE SOURCE TEXT
  VALUE

0014   00??           06729  movwf util 
0015   08??           06730  movfw ein2 
0016   02??           06731  subwf util,f 
                      06732 
0017   01??           06733  clrf exam 
                      06734 
                      06735  
0018   08??           06736  movfw min 
0019   3E80           06737  addlw .128 
001A   00??           06738  movwf min 
                      06739 
001B   08??           06740  movfw min2 
001C   3E80           06741  addlw .128 
001D   00??           06742  movwf min2 
                      06743 
                      06744  
                      06745  
                      06746 
                      06747  
001E   00??           06748  movwf term 
                      06749 
                      06750 
                      06751 
                      06752 
001F   01??           06753  clrf quotient_lo
                      06754 
                      06755 
0020   01??           06756  clrf subtrahend
                      06757 
                      06758 
0021   01??           06759  clrf min2_lower
                      06760 
                      06761 
0022   01??           06762  clrf run_total
                      06763 
                      06764 
0023   01??           06765  clrf loop_count
                      06766 
0024                  06767 hllDCAAA:
                      06768 
0024   08??           06769  movf loop_count,w
0025   3A10           06770  xorlw .16
0026   1903           06771  btfsc STATUS,Z
0027   2???           06772  goto hllICAAA
                      06773 
                      06774 
0028   08??           06775  movf min,w
0029   3980           06776  andlw .128
002A   00??           06777  movwf a_hi_msb
                      06778  
                      06779 
                      06780  LSHIFT min2_lower
002B   35??               M  lslf sfploc05,f
MPASM  5.35                        TARGET.ASM   1-15-2020  22:50:04         PAGE 158


LOC  OBJECT CODE     LINE SOURCE TEXT
  VALUE

                      06781 
                      06782 
                      06783 
                      06784  LSHIFT run_total
002C   35??               M  lslf sfploc04,f
                      06785 
                      06786 
002D   1C03           06787  btfss STATUS,C
002E   2???           06788  goto hllECAAA
                      06789 
                      06790 
002F   0A??           06791  incf min2_lower,f
                      06792 
0030                  06793 hllECAAA:
                      06794 
                      06795 
                      06796  LSHIFT min
0030   35??               M  lslf sfploc17,f
                      06797 
                      06798 
                      06799 
                      06800  LSHIFT quotient_lo
0031   35??               M  lslf sfploc07,f
                      06801 
                      06802 
0032   1803           06803  btfsc STATUS,C
                      06804 
                      06805 
                      06806 
0033   0A??           06807  incf min,f
                      06808 
                      06809 
0034   08??           06810  movf a_hi_msb,f
0035   1903           06811  btfsc STATUS,Z
0036   2???           06812  goto hllFCAAA
                      06813 
                      06814 
0037   0A??           06815  incf run_total,f
                      06816 
                      06817 
0038   1903           06818  btfsc STATUS,Z
0039   0A??           06819  incf min2_lower,f
                      06820 
003A                  06821 hllFCAAA:
                      06822 
                      06823 
003A   01??           06824  clrf big_c 
003B   08??           06825  movfw min2
003C   02??           06826  subwf run_total,w 
003D   1C03           06827  btfss STATUS,C 
003E   1400           06828  bsf big_c,0 
                      06829 
                      06830 
MPASM  5.35                        TARGET.ASM   1-15-2020  22:50:04         PAGE 159


LOC  OBJECT CODE     LINE SOURCE TEXT
  VALUE

003F   08??           06831  movf subtrahend,w
0040   02??           06832  subwf min2_lower,f 
                      06833 
                      06834 
0041   08??           06835  movf min2,w
0042   02??           06836  subwf run_total,f
                      06837 
                      06838 
0043   1800           06839  btfsc big_c,0 
0044   03??           06840  decf min2_lower,f
                      06841 
                      06842 
0045   1F80           06843  btfss min2_lower,7
0046   2???           06844  goto hllGCAAA
                      06845 
                      06846 
                      06847 
0047   08??           06848  movf min2,w
0048   07??           06849  addwf run_total,w
0049   01??           06850  clrf big_c
004A   1803           06851  btfsc STATUS,C
004B   1400           06852  bsf big_c,0
                      06853 
                      06854 
004C   08??           06855  movf subtrahend,w
004D   07??           06856  addwf min2_lower,f
                      06857 
                      06858 
004E   08??           06859  movf min2,w
004F   07??           06860  addwf run_total,f
                      06861 
                      06862 
                      06863 
0050   1800           06864  btfsc big_c,0 
0051   0A??           06865  incf min2_lower,f
                      06866 
                      06867 
                      06868 
0052   30FE           06869  movlw .254
0053   05??           06870  andwf quotient_lo,f
                      06871 
                      06872 
0054   2???           06873  goto hllHCAAA
0055                  06874 hllGCAAA:
                      06875 
                      06876 
0055   3001           06877  movlw .1
0056   04??           06878  iorwf quotient_lo,f
0057                  06879 hllHCAAA:
                      06880 
                      06881 
                      06882 
0057   0A??           06883  incf loop_count,f
MPASM  5.35                        TARGET.ASM   1-15-2020  22:50:04         PAGE 160


LOC  OBJECT CODE     LINE SOURCE TEXT
  VALUE

                      06884 
                      06885 
0058   2???           06886  goto hllDCAAA
                      06887 
0059                  06888 hllICAAA:
                      06889 
                      06890 
0059   08??           06891  movf quotient_lo,w
005A   00??           06892  movwf mout
                      06893 
                      06894 
005B   01??           06895  clrf multiplier
005C   1800           06896  btfsc min,0
005D   1400           06897  bsf multiplier,0
                      06898 
                      06899  
                      06900  RSHIFT term
005E   36??               M  lsrf sfploc08,f
                      06901  
005F   01??           06902  clrf rounded
0060   08??           06903  movfw run_total
0061   02??           06904  subwf term,w    
0062   1803           06905  btfsc STATUS,C 
0063   2???           06906  goto hllJCAAA   
0064   0A??           06907  incf mout,f 
0065   1400           06908  bsf rounded,0 
                      06909  
0066                  06910 hllJCAAA:
                      06911  
                      06912 
                      06913 
0066   08??           06914  movf multiplier,f
0067   1903           06915  btfsc STATUS,Z
0068   2???           06916  goto hllMCAAA
                      06917  
                      06918 
                      06919 
                      06920 
                      06921 
                      06922  
0069   1C00           06923  btfss mout,0
006A   2???           06924  goto hllKCAAA
                      06925 
                      06926  
006B   1800           06927  btfsc rounded,0
006C   2???           06928  goto hllKCAAA
                      06929  
                      06930  
                      06931 
                      06932  RSHIFT mout
006D   36??               M  lsrf sfploc11,f
                      06933  
                      06934 
MPASM  5.35                        TARGET.ASM   1-15-2020  22:50:04         PAGE 161


LOC  OBJECT CODE     LINE SOURCE TEXT
  VALUE

006E   0A??           06935  incf mout,f
                      06936 
                      06937 
006F   2???           06938  goto hllLCAAA
                      06939 
0070                  06940 hllKCAAA:
                      06941 
                      06942 
                      06943  RSHIFT mout
0070   36??               M  lsrf sfploc11,f
                      06944  
0071                  06945 hllLCAAA:
                      06946 
                      06947 
0071   1780           06948  bsf mout,7
                      06949 
0072   2???           06950  goto hllNCAAA
0073                  06951 hllMCAAA:
0073   03??           06952  decf util,f 
0074                  06953 hllNCAAA:
0074   08??           06954  movfw mout 
                      06955 
0075                  06956 hllOCAAA: 
                      06957 
0075   3E80           06958   addlw -.128 
0076   00??           06959   movwf exam 
0077   1F80           06960   btfss exam,7 
0078   2???           06961   goto hllPCAAA 
0079   3E80           06962   addlw .128    
                      06963 
                      06964  
007A   03??           06965  decf util,f 
                      06966 
                      06967  
                      06968  LSHIFT mout
007B   35??               M  lslf sfploc11,f
007C   08??           06969  movfw mout 
007D   2???           06970  goto hllOCAAA 
                      06971 
007E                  06972 hllPCAAA: 
                      06973 
                      06974 
007E   00??           06975  movwf mout
                      06976 
                      06977 
                      06978 
                      06979  
                      06980  
007F   1800           06981  btfsc neg,0
0080   2???           06982  goto hllQCAAA 
0081   1C80           06983  btfss neg,1
0082   2???           06984  goto hllSCAAA 
0083   2???           06985  goto hllRCAAA 
MPASM  5.35                        TARGET.ASM   1-15-2020  22:50:04         PAGE 162


LOC  OBJECT CODE     LINE SOURCE TEXT
  VALUE

0084                  06986 hllQCAAA: 
0084   1880           06987  btfsc neg,1
0085   2???           06988  goto hllSCAAA 
                      06989 
0086                  06990 hllRCAAA: 
                      06991 
                      06992  
                      06993  
                      06994  
                      06995  
0086   08??           06996  movfw mout 
0087   3880           06997  iorlw .128 
0088   00??           06998  movwf mout 
                      06999  
                      07000 
0089                  07001 hllSCAAA: 
0089   08??           07002  movfw mout 
                      07003  PUSH
008A   0018               M  movwi ++INDF0
008B   002?           07004  banksel min
008C   08??           07005  movfw util 
                      07006  PUSH
008D   0018               M  movwi ++INDF0
                      07007  
008E   0008           07008  return 
                      07009 
                      07010  
                      07011  
                      07012 
                      07013 
                      07014 #undefine rounded
                      07015 
                      07016 
                      07017 #undefine big_c
                      07018 
                      07019 
                      07020 #undefine a_hi_msb
                      07021 
                      07022 
                      07023 #undefine loop_count
                      07024 
                      07025 
                      07026 #undefine run_total
                      07027 
                      07028 
                      07029 #undefine min2_lower
                      07030 
                      07031 
                      07032 #undefine subtrahend
                      07033 
                      07034 
                      07035 #undefine quotient_lo
                      07036 
MPASM  5.35                        TARGET.ASM   1-15-2020  22:50:04         PAGE 163


LOC  OBJECT CODE     LINE SOURCE TEXT
  VALUE

                      07037 
                      07038 #undefine term
                      07039 
                      07040 
                      07041 #undefine exam
                      07042 
                      07043 
                      07044 #undefine multiplier
                      07045 
                      07046 
                      07047 #undefine mout
                      07048 
                      07049 
                      07050 #undefine util
                      07051 
                      07052 
                      07053 #undefine neg
                      07054 
                      07055 
                      07056 #undefine ein2
                      07057 
                      07058 
                      07059 #undefine min2
                      07060 
                      07061 
                      07062 #undefine ein
                      07063 
                      07064 
                      07065 #undefine min
                      07066 
                      07067 
                      07068 
                      07069 
                      07070 
                      07071 
                      07072 
                      07073 
                      07074  
                      07075  
                      07076 
                      07077 sfp_mul CODE
                      07078 
                      07079 
                      07080 
                      07081 
                      07082 #define savelsb sfploc00
                      07083 
                      07084 
                      07085 #define iterator sfploc01
                      07086 
                      07087 
                      07088 #define hi_byte sfploc02
                      07089 
MPASM  5.35                        TARGET.ASM   1-15-2020  22:50:04         PAGE 164


LOC  OBJECT CODE     LINE SOURCE TEXT
  VALUE

                      07090 
                      07091 #define make_mout sfploc03
                      07092 
                      07093 
                      07094 #define factor2 sfploc04
                      07095 
                      07096 
                      07097 #define factor1 sfploc05
                      07098 
                      07099 
                      07100 #define mulhi sfploc06
                      07101 
                      07102 
                      07103 #define mout sfploc07
                      07104 
                      07105 
                      07106 #define util sfploc08
                      07107 
                      07108 
                      07109 #define neg sfploc09
                      07110 
                      07111 
                      07112 #define ein2 sfploc10
                      07113 
                      07114 
                      07115 #define min2 sfploc11
                      07116 
                      07117 
                      07118 #define ein sfploc12
                      07119 
                      07120 
                      07121 #define min sfploc13
                      07122 
                      07123 
0000                  07124 mulf:  
                      07125 #ifdef HLLMULTITASK
                      07126 #ifdef HLLGUARDsfploc 
                      07127  movf in_isr,f  
                      07128  btfsc STATUS,Z
                      07129  
                      07130 
                      07131 
                      07132  goto mulf0
                      07133 
                      07134 
                      07135  
                      07136  POP
                      07137 
                      07138  
                      07139  banksel ein2
                      07140  movwf ein2 
                      07141  xorlw .128 
                      07142  btfss STATUS,Z
MPASM  5.35                        TARGET.ASM   1-15-2020  22:50:04         PAGE 165


LOC  OBJECT CODE     LINE SOURCE TEXT
  VALUE

                      07143  goto mulf_zokr1
                      07144  movlw .127     
                      07145  
                      07146  andwf HLINDF,w 
                      07147  
                      07148  btfsc STATUS,Z
                      07149  goto mulf_zeer1
                      07150  
                      07151 mulf_zokr1: 
                      07152 
                      07153  
                      07154  
                      07155  clrf neg 
                      07156  
                      07157  
                      07158  
                      07159  POP
                      07160 
                      07161  
                      07162  banksel min2
                      07163  movwf min2 
                      07164  btfsc min2,7
                      07165  bsf neg,1      
                      07166 
                      07167  
                      07168  bcf min2,7 
                      07169 
                      07170  POP
                      07171 
                      07172  banksel ein
                      07173  movwf ein
                      07174  xorlw .128 
                      07175  btfss STATUS,Z
                      07176  goto mulf_zokr2
                      07177  movlw .127
                      07178 
                      07179  andwf HLINDF,w 
                      07180  btfsc STATUS,Z
                      07181  goto mulf_zeer2
                      07182 mulf_zokr2:
                      07183 
                      07184  POP
                      07185 
                      07186  
                      07187  banksel min
                      07188  movwf min 
                      07189  btfsc min,7
                      07190  bsf neg,0
                      07191 
                      07192  
                      07193  bcf min,7 
                      07194  
                      07195  
MPASM  5.35                        TARGET.ASM   1-15-2020  22:50:04         PAGE 166


LOC  OBJECT CODE     LINE SOURCE TEXT
  VALUE

                      07196  
                      07197  movfw ein 
                      07198 
                      07199  
                      07200  movwf util 
                      07201 
                      07202  
                      07203  movfw ein2 
                      07204 
                      07205  
                      07206  addwf util,f 
                      07207  
                      07208  
                      07209  movfw min 
                      07210 
                      07211  
                      07212  addlw .128 
                      07213 
                      07214  
                      07215  PUSH
                      07216  banksel min2
                      07217  movfw min2 
                      07218  addlw .128 
                      07219 
                      07220  PUSH
                      07221  goto kmul16 
                      07222 
                      07223 bmul16:
                      07224 
                      07225  
                      07226  POP
                      07227 
                      07228 
                      07229  banksel mout
                      07230  movwf mout 
                      07231 
                      07232  
                      07233  btfss mout,7 
                      07234  goto no_mulf_carry 
                      07235 
                      07236  
                      07237  POP
                      07238 
                      07239  
                      07240  banksel util
                      07241  incf util,f 
                      07242 
                      07243 
                      07244  
                      07245  andlw .128 
                      07246  btfss STATUS,Z
                      07247  incf mout,f
                      07248 
MPASM  5.35                        TARGET.ASM   1-15-2020  22:50:04         PAGE 167


LOC  OBJECT CODE     LINE SOURCE TEXT
  VALUE

                      07249  goto mulf_if1_done 
                      07250 
                      07251 
                      07252 no_mulf_carry: 
                      07253 
                      07254  
                      07255  
                      07256  
                      07257  
                      07258  
                      07259 
                      07260  
                      07261  bcf STATUS,C 
                      07262 
                      07263  
                      07264  POP
                      07265 
                      07266  banksel savelsb
                      07267  movwf savelsb
                      07268  
                      07269  
                      07270  andlw .128 
                      07271  btfss STATUS,Z 
                      07272  bsf STATUS,C 
                      07273 
                      07274  
                      07275  
                      07276  banksel mout
                      07277  rlf mout,f 
                      07278 
                      07279  
                      07280  
                      07281  
                      07282  movf savelsb,w
                      07283 
                      07284  banksel mout
                      07285  andlw .64
                      07286  btfss STATUS,Z
                      07287  incf mout,f
                      07288  
                      07289 
                      07290 
                      07291 mulf_if1_done: 
                      07292 
                      07293  
                      07294  movfw mout 
                      07295 
                      07296  
                      07297  addlw -.128 
                      07298 
                      07299  
                      07300  movwf mout 
                      07301 
MPASM  5.35                        TARGET.ASM   1-15-2020  22:50:04         PAGE 168


LOC  OBJECT CODE     LINE SOURCE TEXT
  VALUE

                      07302  
                      07303  btfsc neg,0
                      07304  goto ita22nq 
                      07305  btfss neg,1
                      07306  goto mul_sames 
                      07307  goto mul_dif5 
                      07308 ita22nq: 
                      07309  btfsc neg,1
                      07310  goto mul_sames 
                      07311 
                      07312 mul_dif5: 
                      07313 
                      07314  
                      07315  movfw mout 
                      07316 
                      07317  
                      07318  iorlw .128 
                      07319 
                      07320  
                      07321  movwf mout 
                      07322 
                      07323 
                      07324 mul_sames: 
                      07325 
                      07326  
                      07327  movfw mout 
                      07328 
                      07329  
                      07330  PUSH
                      07331 
                      07332  
                      07333  banksel util
                      07334  movfw util 
                      07335  PUSH
                      07336  
                      07337  goto reto9k 
                      07338 
                      07339 mulf_zeer1: 
                      07340 
                      07341  POP
                      07342  POP
                      07343 
                      07344 
                      07345 mulf_zeer2:
                      07346  POP
                      07347 
                      07348  
                      07349  movlw .128
                      07350  PUSH
                      07351  PUSH
                      07352 
                      07353  
                      07354  
MPASM  5.35                        TARGET.ASM   1-15-2020  22:50:04         PAGE 169


LOC  OBJECT CODE     LINE SOURCE TEXT
  VALUE

                      07355 reto9k:
                      07356  
                      07357  return
                      07358  
                      07359  
                      07360  
                      07361  
                      07362 kmul16: 
                      07363 
                      07364  POP
                      07365  banksel factor1
                      07366  movwf factor1
                      07367 
                      07368  POP
                      07369  banksel factor2
                      07370  movwf factor2
                      07371 
                      07372 
                      07373  
                      07374  clrf hi_byte
                      07375  
                      07376  clrf make_mout
                      07377  
                      07378  clrf iterator
                      07379 
                      07380 bptz2:
                      07381 
                      07382  
                      07383  btfss factor1,0
                      07384  goto nyyu11
                      07385 
                      07386  
                      07387  
                      07388  movfw factor2
                      07389  addwf make_mout,f
                      07390 
                      07391  
                      07392  btfsc STATUS,C
                      07393  incf hi_byte,f
                      07394 
                      07395 
                      07396 nyyu11:
                      07397  
                      07398  
                      07399  RSHIFT factor1
                      07400  
                      07401  
                      07402  
                      07403  RSHIFT hi_byte
                      07404  
                      07405  
                      07406  
                      07407  
MPASM  5.35                        TARGET.ASM   1-15-2020  22:50:04         PAGE 170


LOC  OBJECT CODE     LINE SOURCE TEXT
  VALUE

                      07408  
                      07409  
                      07410  rrf make_mout,f
                      07411 
                      07412 
                      07413  
                      07414  
                      07415  
                      07416  
                      07417  
                      07418  
                      07419  
                      07420  
                      07421  
                      07422  
                      07423  
                      07424  
                      07425  btfsc STATUS,C
                      07426  bsf factor1,7 
                      07427 
                      07428 
                      07429  incf iterator,f
                      07430 
                      07431 
                      07432  movlw .8
                      07433  xorwf iterator,w
                      07434  btfss STATUS,Z
                      07435  goto bptz2
                      07436 
                      07437  
                      07438  movfw factor1 
                      07439  PUSH
                      07440 
                      07441  
                      07442  banksel make_mout
                      07443  movfw make_mout
                      07444  PUSH
                      07445 
                      07446  goto bmul16 
                      07447 
                      07448 
                      07449 
                      07450 
                      07451 
                      07452 #undefine savelsb
                      07453 
                      07454 
                      07455 #undefine iterator
                      07456 
                      07457 
                      07458 #undefine hi_byte
                      07459 
                      07460 
MPASM  5.35                        TARGET.ASM   1-15-2020  22:50:04         PAGE 171


LOC  OBJECT CODE     LINE SOURCE TEXT
  VALUE

                      07461 #undefine make_mout
                      07462 
                      07463 
                      07464 #undefine factor2
                      07465 
                      07466 
                      07467 #undefine factor1
                      07468 
                      07469 
                      07470 #undefine mulhi
                      07471 
                      07472 
                      07473 #undefine mout
                      07474 
                      07475 
                      07476 #undefine util
                      07477 
                      07478 
                      07479 #undefine neg
                      07480 
                      07481 
                      07482 #undefine ein2
                      07483 
                      07484 
                      07485 #undefine min2
                      07486 
                      07487 
                      07488 #undefine ein
                      07489 
                      07490 
                      07491 #undefine min
                      07492 
                      07493 
                      07494 #define savelsb sfploc00+1
                      07495 
                      07496 
                      07497 #define iterator sfploc01+1
                      07498 
                      07499 
                      07500 #define hi_byte sfploc02+1
                      07501 
                      07502 
                      07503 #define make_mout sfploc03+1
                      07504 
                      07505 
                      07506 #define factor2 sfploc04+1
                      07507 
                      07508 
                      07509 #define factor1 sfploc05+1
                      07510 
                      07511 
                      07512 #define mulhi sfploc06+1
                      07513 
MPASM  5.35                        TARGET.ASM   1-15-2020  22:50:04         PAGE 172


LOC  OBJECT CODE     LINE SOURCE TEXT
  VALUE

                      07514 
                      07515 #define mout sfploc07+1
                      07516 
                      07517 
                      07518 #define util sfploc08+1
                      07519 
                      07520 
                      07521 #define neg sfploc09+1
                      07522 
                      07523 
                      07524 #define ein2 sfploc10+1
                      07525 
                      07526 
                      07527 #define min2 sfploc11+1
                      07528 
                      07529 
                      07530 #define ein sfploc12+1
                      07531 
                      07532 
                      07533 #define min sfploc13+1
                      07534 
                      07535 
                      07536 mulf0:
                      07537 #endif
                      07538 #endif
                      07539 
                      07540 
                      07541  
                      07542  POP
0000   0013               M  moviw INDF0-- ; preserve the safety of this code under interruptible conditions. 
                      07543 
                      07544  
0001   002?           07545  banksel ein2
0002   00??           07546  movwf ein2 
0003   3A80           07547  xorlw .128 
0004   1D03           07548  btfss STATUS,Z
0005   2???           07549  goto hllTCAAA
0006   307F           07550  movlw .127     
                      07551  
0007   0500           07552  andwf HLINDF,w 
                      07553  
0008   1903           07554  btfsc STATUS,Z
0009   2???           07555  goto hllBDAAA
                      07556  
000A                  07557 hllTCAAA: 
                      07558 
                      07559  
                      07560  
000A   01??           07561  clrf neg 
                      07562  
                      07563  
                      07564  
                      07565  POP
MPASM  5.35                        TARGET.ASM   1-15-2020  22:50:04         PAGE 173


LOC  OBJECT CODE     LINE SOURCE TEXT
  VALUE

000B   0013               M  moviw INDF0-- ; preserve the safety of this code under interruptible conditions. 
                      07566 
                      07567  
000C   002?           07568  banksel min2
000D   00??           07569  movwf min2 
000E   1B80           07570  btfsc min2,7
000F   1480           07571  bsf neg,1      
                      07572 
                      07573  
0010   1380           07574  bcf min2,7 
                      07575 
                      07576  POP
0011   0013               M  moviw INDF0-- ; preserve the safety of this code under interruptible conditions. 
                      07577 
0012   002?           07578  banksel ein
0013   00??           07579  movwf ein
0014   3A80           07580  xorlw .128 
0015   1D03           07581  btfss STATUS,Z
0016   2???           07582  goto hllUCAAA
0017   307F           07583  movlw .127
                      07584 
0018   0500           07585  andwf HLINDF,w 
0019   1903           07586  btfsc STATUS,Z
001A   2???           07587  goto hllCDAAA
001B                  07588 hllUCAAA:
                      07589 
                      07590  POP
001B   0013               M  moviw INDF0-- ; preserve the safety of this code under interruptible conditions. 
                      07591 
                      07592  
001C   002?           07593  banksel min
001D   00??           07594  movwf min 
001E   1B80           07595  btfsc min,7
001F   1400           07596  bsf neg,0
                      07597 
                      07598  
0020   1380           07599  bcf min,7 
                      07600  
                      07601  
                      07602  
0021   08??           07603  movfw ein 
                      07604 
                      07605  
0022   00??           07606  movwf util 
                      07607 
                      07608  
0023   08??           07609  movfw ein2 
                      07610 
                      07611  
0024   07??           07612  addwf util,f 
                      07613  
                      07614  
0025   08??           07615  movfw min 
MPASM  5.35                        TARGET.ASM   1-15-2020  22:50:04         PAGE 174


LOC  OBJECT CODE     LINE SOURCE TEXT
  VALUE

                      07616 
                      07617  
0026   3E80           07618  addlw .128 
                      07619 
                      07620  
                      07621  PUSH
0027   0018               M  movwi ++INDF0
0028   002?           07622  banksel min2
0029   08??           07623  movfw min2 
002A   3E80           07624  addlw .128 
                      07625 
                      07626  PUSH
002B   0018               M  movwi ++INDF0
002C   2???           07627  goto hllEDAAA 
                      07628 
002D                  07629 hllVCAAA:
                      07630 
                      07631  
                      07632  POP
002D   0013               M  moviw INDF0-- ; preserve the safety of this code under interruptible conditions. 
                      07633 
                      07634 
002E   002?           07635  banksel mout
002F   00??           07636  movwf mout 
                      07637 
                      07638  
0030   1F80           07639  btfss mout,7 
0031   2???           07640  goto hllWCAAA 
                      07641 
                      07642  
                      07643  POP
0032   0013               M  moviw INDF0-- ; preserve the safety of this code under interruptible conditions. 
                      07644 
                      07645  
0033   002?           07646  banksel util
0034   0A??           07647  incf util,f 
                      07648 
                      07649 
                      07650  
0035   3980           07651  andlw .128 
0036   1D03           07652  btfss STATUS,Z
0037   0A??           07653  incf mout,f
                      07654 
0038   2???           07655  goto hllXCAAA 
                      07656 
                      07657 
0039                  07658 hllWCAAA: 
                      07659 
                      07660  
                      07661  
                      07662  
                      07663  
                      07664  
MPASM  5.35                        TARGET.ASM   1-15-2020  22:50:04         PAGE 175


LOC  OBJECT CODE     LINE SOURCE TEXT
  VALUE

                      07665 
                      07666  
0039   1003           07667  bcf STATUS,C 
                      07668 
                      07669  
                      07670  POP
003A   0013               M  moviw INDF0-- ; preserve the safety of this code under interruptible conditions. 
                      07671 
003B   002?           07672  banksel savelsb
003C   00??           07673  movwf savelsb
                      07674  
                      07675  
003D   3980           07676  andlw .128 
003E   1D03           07677  btfss STATUS,Z 
003F   1403           07678  bsf STATUS,C 
                      07679 
                      07680  
                      07681  
0040   002?           07682  banksel mout
0041   0D??           07683  rlf mout,f 
                      07684 
                      07685  
                      07686  
                      07687  
0042   08??           07688  movf savelsb,w
                      07689 
0043   002?           07690  banksel mout
0044   3940           07691  andlw .64
0045   1D03           07692  btfss STATUS,Z
0046   0A??           07693  incf mout,f
                      07694  
                      07695 
                      07696 
0047                  07697 hllXCAAA: 
                      07698 
                      07699  
0047   08??           07700  movfw mout 
                      07701 
                      07702  
0048   3E80           07703  addlw -.128 
                      07704 
                      07705  
0049   00??           07706  movwf mout 
                      07707 
                      07708  
004A   1800           07709  btfsc neg,0
004B   2???           07710  goto hllYCAAA 
004C   1C80           07711  btfss neg,1
004D   2???           07712  goto hllADAAA 
004E   2???           07713  goto hllZCAAA 
004F                  07714 hllYCAAA: 
004F   1880           07715  btfsc neg,1
0050   2???           07716  goto hllADAAA 
MPASM  5.35                        TARGET.ASM   1-15-2020  22:50:04         PAGE 176


LOC  OBJECT CODE     LINE SOURCE TEXT
  VALUE

                      07717 
0051                  07718 hllZCAAA: 
                      07719 
                      07720  
0051   08??           07721  movfw mout 
                      07722 
                      07723  
0052   3880           07724  iorlw .128 
                      07725 
                      07726  
0053   00??           07727  movwf mout 
                      07728 
                      07729 
0054                  07730 hllADAAA: 
                      07731 
                      07732  
0054   08??           07733  movfw mout 
                      07734 
                      07735  
                      07736  PUSH
0055   0018               M  movwi ++INDF0
                      07737 
                      07738  
0056   002?           07739  banksel util
0057   08??           07740  movfw util 
                      07741  PUSH
0058   0018               M  movwi ++INDF0
                      07742  
0059   2???           07743  goto hllDDAAA 
                      07744 
005A                  07745 hllBDAAA: 
                      07746 
                      07747  POP
005A   0013               M  moviw INDF0-- ; preserve the safety of this code under interruptible conditions. 
                      07748  POP
005B   0013               M  moviw INDF0-- ; preserve the safety of this code under interruptible conditions. 
                      07749 
                      07750 
005C                  07751 hllCDAAA:
                      07752  POP
005C   0013               M  moviw INDF0-- ; preserve the safety of this code under interruptible conditions. 
                      07753 
                      07754  
005D   3080           07755  movlw .128
                      07756  PUSH
005E   0018               M  movwi ++INDF0
                      07757  PUSH
005F   0018               M  movwi ++INDF0
                      07758 
                      07759  
                      07760  
0060                  07761 hllDDAAA:
                      07762  
MPASM  5.35                        TARGET.ASM   1-15-2020  22:50:04         PAGE 177


LOC  OBJECT CODE     LINE SOURCE TEXT
  VALUE

0060   0008           07763  return
                      07764  
                      07765  
                      07766  
                      07767  
0061                  07768 hllEDAAA: 
                      07769 
                      07770  POP
0061   0013               M  moviw INDF0-- ; preserve the safety of this code under interruptible conditions. 
0062   002?           07771  banksel factor1
0063   00??           07772  movwf factor1
                      07773 
                      07774  POP
0064   0013               M  moviw INDF0-- ; preserve the safety of this code under interruptible conditions. 
0065   002?           07775  banksel factor2
0066   00??           07776  movwf factor2
                      07777 
                      07778 
                      07779  
0067   01??           07780  clrf hi_byte
                      07781  
0068   01??           07782  clrf make_mout
                      07783  
0069   01??           07784  clrf iterator
                      07785 
006A                  07786 hllFDAAA:
                      07787 
                      07788  
006A   1C00           07789  btfss factor1,0
006B   2???           07790  goto hllGDAAA
                      07791 
                      07792  
                      07793  
006C   08??           07794  movfw factor2
006D   07??           07795  addwf make_mout,f
                      07796 
                      07797  
006E   1803           07798  btfsc STATUS,C
006F   0A??           07799  incf hi_byte,f
                      07800 
                      07801 
0070                  07802 hllGDAAA:
                      07803  
                      07804  
                      07805  RSHIFT factor1
0070   36??               M  lsrf sfploc05,f
                      07806  
                      07807  
                      07808  
                      07809  RSHIFT hi_byte
0071   36??               M  lsrf sfploc02,f
                      07810  
                      07811  
MPASM  5.35                        TARGET.ASM   1-15-2020  22:50:04         PAGE 178


LOC  OBJECT CODE     LINE SOURCE TEXT
  VALUE

                      07812  
                      07813  
                      07814  
                      07815  
0072   0C??           07816  rrf make_mout,f
                      07817 
                      07818 
                      07819  
                      07820  
                      07821  
                      07822  
                      07823  
                      07824  
                      07825  
                      07826  
                      07827  
                      07828  
                      07829  
                      07830  
0073   1803           07831  btfsc STATUS,C
0074   1780           07832  bsf factor1,7 
                      07833 
                      07834 
0075   0A??           07835  incf iterator,f
                      07836 
                      07837 
0076   3008           07838  movlw .8
0077   06??           07839  xorwf iterator,w
0078   1D03           07840  btfss STATUS,Z
0079   2???           07841  goto hllFDAAA
                      07842 
                      07843  
007A   08??           07844  movfw factor1 
                      07845  PUSH
007B   0018               M  movwi ++INDF0
                      07846 
                      07847  
007C   002?           07848  banksel make_mout
007D   08??           07849  movfw make_mout
                      07850  PUSH
007E   0018               M  movwi ++INDF0
                      07851 
007F   2???           07852  goto hllVCAAA 
                      07853 
                      07854 
                      07855 
                      07856 
                      07857 
                      07858 #undefine savelsb
                      07859 
                      07860 
                      07861 #undefine iterator
                      07862 
MPASM  5.35                        TARGET.ASM   1-15-2020  22:50:04         PAGE 179


LOC  OBJECT CODE     LINE SOURCE TEXT
  VALUE

                      07863 
                      07864 #undefine hi_byte
                      07865 
                      07866 
                      07867 #undefine make_mout
                      07868 
                      07869 
                      07870 #undefine factor2
                      07871 
                      07872 
                      07873 #undefine factor1
                      07874 
                      07875 
                      07876 #undefine mulhi
                      07877 
                      07878 
                      07879 #undefine mout
                      07880 
                      07881 
                      07882 #undefine util
                      07883 
                      07884 
                      07885 #undefine neg
                      07886 
                      07887 
                      07888 #undefine ein2
                      07889 
                      07890 
                      07891 #undefine min2
                      07892 
                      07893 
                      07894 #undefine ein
                      07895 
                      07896 
                      07897 #undefine min
                      07898 
                      07899 
                      07900 
                      07901 
                      07902 
                      07903  
                      07904  
                      07905 
                      07906 sfp_prrr CODE 
                      07907  
                      07908 
                      07909 
                      07910 #define thk003 sfpaux00
                      07911 
                      07912 
                      07913 #define thk002 sfpaux01
                      07914 
                      07915 
MPASM  5.35                        TARGET.ASM   1-15-2020  22:50:04         PAGE 180


LOC  OBJECT CODE     LINE SOURCE TEXT
  VALUE

                      07916 #define thk001 sfpaux02
                      07917 
                      07918 
                      07919 #define thk000 sfpaux03
                      07920 
                      07921 
0000                  07922 printf:  
                      07923 #ifdef HLLMULTITASK
                      07924 #ifdef HLLGUARDsfpaux 
                      07925  movf in_isr,f  
                      07926  btfsc STATUS,Z
                      07927  
                      07928 
                      07929 
                      07930  goto printf0
                      07931   
                      07932 
                      07933  POP
                      07934  banksel thk001 
                      07935  movwf thk001
                      07936  POP
                      07937  movwf thk000
                      07938  movlw '(' 
                      07939  PUSH
                      07940  
                      07941  FAR_CALL printf,printch 
                      07942  banksel thk000
                      07943  
                      07944  movlw '+' 
                      07945  btfss thk000,7 
                      07946  goto nomin
                      07947  
                      07948  movfw thk000
                      07949  andlw .127 
                      07950  movwf thk000 
                      07951  movlw '-' 
                      07952 nomin: 
                      07953  PUSH
                      07954  
                      07955  FAR_CALL printf,printch 
                      07956  banksel thk000
                      07957  movfw thk000
                      07958  addlw .128 
                      07959  movwf thk000 
                      07960  movfw thk000 
                      07961  PUSH
                      07962  movlw .100 
                      07963  PUSH
                      07964  
                      07965  HALF_FAR_CALL divu 
                      07966  
                      07967  HALF_FAR_CALL ascii 
                      07968  
MPASM  5.35                        TARGET.ASM   1-15-2020  22:50:04         PAGE 181


LOC  OBJECT CODE     LINE SOURCE TEXT
  VALUE

                      07969  FAR_CALL printf,printch 
                      07970  banksel thk000
                      07971  movfw thk000
                      07972  PUSH
                      07973  movlw .100 
                      07974  PUSH
                      07975  
                      07976  FAR_CALL printf,modu 
                      07977  movlw .10 
                      07978  PUSH
                      07979  
                      07980  HALF_FAR_CALL divu 
                      07981  
                      07982  HALF_FAR_CALL ascii 
                      07983  
                      07984  FAR_CALL printf,printch 
                      07985  
                      07986  banksel thk000 
                      07987  movfw thk000 
                      07988  PUSH
                      07989  movlw .10 
                      07990  PUSH
                      07991  
                      07992  HALF_FAR_CALL modu 
                      07993  
                      07994  HALF_FAR_CALL ascii 
                      07995  
                      07996  FAR_CALL printf,printch 
                      07997  movlw '/' 
                      07998  PUSH
                      07999  
                      08000  FAR_CALL printf,printch 
                      08001  movlw '1' 
                      08002  PUSH
                      08003  
                      08004  FAR_CALL printf,printch 
                      08005  movlw '2' 
                      08006  PUSH
                      08007  
                      08008  FAR_CALL printf,printch 
                      08009  movlw '8' 
                      08010  PUSH
                      08011  
                      08012  FAR_CALL printf,printch 
                      08013  movlw ')' 
                      08014  PUSH
                      08015  
                      08016  FAR_CALL printf,printch 
                      08017  movlw '*' 
                      08018  PUSH
                      08019  
                      08020  FAR_CALL printf,printch 
                      08021  movlw '2' 
MPASM  5.35                        TARGET.ASM   1-15-2020  22:50:04         PAGE 182


LOC  OBJECT CODE     LINE SOURCE TEXT
  VALUE

                      08022  PUSH
                      08023  
                      08024  FAR_CALL printf,printch 
                      08025  movlw '^' 
                      08026  PUSH
                      08027  
                      08028  FAR_CALL printf,printch 
                      08029  banksel thk001 
                      08030  
                      08031  movlw '+' 
                      08032  btfss thk001,7 
                      08033  goto nomin2 
                      08034  movfw thk001 
                      08035  xorlw .255 
                      08036  addlw .1
                      08037  movwf thk001 
                      08038  movlw '-' 
                      08039 nomin2: 
                      08040  PUSH
                      08041  
                      08042  FAR_CALL printf,printch 
                      08043  
                      08044  banksel thk001 
                      08045  movfw thk001 
                      08046  PUSH
                      08047  movlw .100 
                      08048  PUSH
                      08049  
                      08050  HALF_FAR_CALL divu 
                      08051  
                      08052  HALF_FAR_CALL ascii 
                      08053  
                      08054  FAR_CALL printf,printch 
                      08055  
                      08056  banksel thk001 
                      08057  movfw thk001 
                      08058  PUSH
                      08059  movlw .100 
                      08060  PUSH
                      08061  
                      08062  FAR_CALL printf,modu 
                      08063  movlw .10 
                      08064  PUSH
                      08065  
                      08066  HALF_FAR_CALL divu 
                      08067  
                      08068  HALF_FAR_CALL ascii 
                      08069  
                      08070  FAR_CALL printf,printch 
                      08071  
                      08072  banksel thk001 
                      08073  movfw thk001 
                      08074  PUSH
MPASM  5.35                        TARGET.ASM   1-15-2020  22:50:04         PAGE 183


LOC  OBJECT CODE     LINE SOURCE TEXT
  VALUE

                      08075  movlw .10 
                      08076  PUSH
                      08077  
                      08078  HALF_FAR_CALL modu
                      08079  
                      08080  HALF_FAR_CALL ascii 
                      08081  
                      08082  FAR_CALL printf,printch 
                      08083  movlw ' '
                      08084  PUSH
                      08085  
                      08086  FAR_CALL printf,printch 
                      08087  
                      08088  return 
                      08089 
                      08090 
                      08091 
                      08092 #undefine thk003
                      08093 
                      08094 
                      08095 #undefine thk002
                      08096 
                      08097 
                      08098 #undefine thk001
                      08099 
                      08100 
                      08101 #undefine thk000
                      08102 
                      08103 
                      08104 #define thk003 sfpaux00+1
                      08105 
                      08106 
                      08107 #define thk002 sfpaux01+1
                      08108 
                      08109 
                      08110 #define thk001 sfpaux02+1
                      08111 
                      08112 
                      08113 #define thk000 sfpaux03+1
                      08114 
                      08115 
                      08116 printf0:
                      08117 #endif
                      08118 #endif
                      08119   
                      08120 
                      08121  POP
0000   0013               M  moviw INDF0-- ; preserve the safety of this code under interruptible conditions. 
0001   002?           08122  banksel thk001 
0002   00??           08123  movwf thk001
                      08124  POP
0003   0013               M  moviw INDF0-- ; preserve the safety of this code under interruptible conditions. 
0004   00??           08125  movwf thk000
MPASM  5.35                        TARGET.ASM   1-15-2020  22:50:04         PAGE 184


LOC  OBJECT CODE     LINE SOURCE TEXT
  VALUE

0005   3028           08126  movlw '(' 
                      08127  PUSH
0006   0018               M  movwi ++INDF0
                      08128  
                      08129  FAR_CALL printf,printch 
0007   3180               M  pagesel printch
0008   2???               M  call printch
0009   3180               M  pagesel printf
000A   002?           08130  banksel thk000
                      08131  
000B   302B           08132  movlw '+' 
000C   1F80           08133  btfss thk000,7 
000D   2???           08134  goto hllHDAAA
                      08135  
000E   08??           08136  movfw thk000
000F   397F           08137  andlw .127 
0010   00??           08138  movwf thk000 
0011   302D           08139  movlw '-' 
0012                  08140 hllHDAAA: 
                      08141  PUSH
0012   0018               M  movwi ++INDF0
                      08142  
                      08143  FAR_CALL printf,printch 
0013   3180               M  pagesel printch
0014   2???               M  call printch
0015   3180               M  pagesel printf
0016   002?           08144  banksel thk000
0017   08??           08145  movfw thk000
0018   3E80           08146  addlw .128 
0019   00??           08147  movwf thk000 
001A   08??           08148  movfw thk000 
                      08149  PUSH
001B   0018               M  movwi ++INDF0
001C   3064           08150  movlw .100 
                      08151  PUSH
001D   0018               M  movwi ++INDF0
                      08152  
                      08153  HALF_FAR_CALL divu 
001E   3180               M  pagesel divu           
001F   2???               M  call divu
                      08154  
                      08155  HALF_FAR_CALL ascii 
0020   3180               M  pagesel ascii          
0021   2???               M  call ascii
                      08156  
                      08157  FAR_CALL printf,printch 
0022   3180               M  pagesel printch
0023   2???               M  call printch
0024   3180               M  pagesel printf
0025   002?           08158  banksel thk000
0026   08??           08159  movfw thk000
                      08160  PUSH
0027   0018               M  movwi ++INDF0
MPASM  5.35                        TARGET.ASM   1-15-2020  22:50:04         PAGE 185


LOC  OBJECT CODE     LINE SOURCE TEXT
  VALUE

0028   3064           08161  movlw .100 
                      08162  PUSH
0029   0018               M  movwi ++INDF0
                      08163  
                      08164  FAR_CALL printf,modu 
002A   3180               M  pagesel modu
002B   2???               M  call modu
002C   3180               M  pagesel printf
002D   300A           08165  movlw .10 
                      08166  PUSH
002E   0018               M  movwi ++INDF0
                      08167  
                      08168  HALF_FAR_CALL divu 
002F   3180               M  pagesel divu           
0030   2???               M  call divu
                      08169  
                      08170  HALF_FAR_CALL ascii 
0031   3180               M  pagesel ascii          
0032   2???               M  call ascii
                      08171  
                      08172  FAR_CALL printf,printch 
0033   3180               M  pagesel printch
0034   2???               M  call printch
0035   3180               M  pagesel printf
                      08173  
0036   002?           08174  banksel thk000 
0037   08??           08175  movfw thk000 
                      08176  PUSH
0038   0018               M  movwi ++INDF0
0039   300A           08177  movlw .10 
                      08178  PUSH
003A   0018               M  movwi ++INDF0
                      08179  
                      08180  HALF_FAR_CALL modu 
003B   3180               M  pagesel modu           
003C   2???               M  call modu
                      08181  
                      08182  HALF_FAR_CALL ascii 
003D   3180               M  pagesel ascii          
003E   2???               M  call ascii
                      08183  
                      08184  FAR_CALL printf,printch 
003F   3180               M  pagesel printch
0040   2???               M  call printch
0041   3180               M  pagesel printf
0042   302F           08185  movlw '/' 
                      08186  PUSH
0043   0018               M  movwi ++INDF0
                      08187  
                      08188  FAR_CALL printf,printch 
0044   3180               M  pagesel printch
0045   2???               M  call printch
0046   3180               M  pagesel printf
MPASM  5.35                        TARGET.ASM   1-15-2020  22:50:04         PAGE 186


LOC  OBJECT CODE     LINE SOURCE TEXT
  VALUE

0047   3031           08189  movlw '1' 
                      08190  PUSH
0048   0018               M  movwi ++INDF0
                      08191  
                      08192  FAR_CALL printf,printch 
0049   3180               M  pagesel printch
004A   2???               M  call printch
004B   3180               M  pagesel printf
004C   3032           08193  movlw '2' 
                      08194  PUSH
004D   0018               M  movwi ++INDF0
                      08195  
                      08196  FAR_CALL printf,printch 
004E   3180               M  pagesel printch
004F   2???               M  call printch
0050   3180               M  pagesel printf
0051   3038           08197  movlw '8' 
                      08198  PUSH
0052   0018               M  movwi ++INDF0
                      08199  
                      08200  FAR_CALL printf,printch 
0053   3180               M  pagesel printch
0054   2???               M  call printch
0055   3180               M  pagesel printf
0056   3029           08201  movlw ')' 
                      08202  PUSH
0057   0018               M  movwi ++INDF0
                      08203  
                      08204  FAR_CALL printf,printch 
0058   3180               M  pagesel printch
0059   2???               M  call printch
005A   3180               M  pagesel printf
005B   302A           08205  movlw '*' 
                      08206  PUSH
005C   0018               M  movwi ++INDF0
                      08207  
                      08208  FAR_CALL printf,printch 
005D   3180               M  pagesel printch
005E   2???               M  call printch
005F   3180               M  pagesel printf
0060   3032           08209  movlw '2' 
                      08210  PUSH
0061   0018               M  movwi ++INDF0
                      08211  
                      08212  FAR_CALL printf,printch 
0062   3180               M  pagesel printch
0063   2???               M  call printch
0064   3180               M  pagesel printf
0065   305E           08213  movlw '^' 
                      08214  PUSH
0066   0018               M  movwi ++INDF0
                      08215  
                      08216  FAR_CALL printf,printch 
MPASM  5.35                        TARGET.ASM   1-15-2020  22:50:04         PAGE 187


LOC  OBJECT CODE     LINE SOURCE TEXT
  VALUE

0067   3180               M  pagesel printch
0068   2???               M  call printch
0069   3180               M  pagesel printf
006A   002?           08217  banksel thk001 
                      08218  
006B   302B           08219  movlw '+' 
006C   1F80           08220  btfss thk001,7 
006D   2???           08221  goto hllHDAAA2 
006E   08??           08222  movfw thk001 
006F   3AFF           08223  xorlw .255 
0070   3E01           08224  addlw .1
0071   00??           08225  movwf thk001 
0072   302D           08226  movlw '-' 
0073                  08227 hllHDAAA2: 
                      08228  PUSH
0073   0018               M  movwi ++INDF0
                      08229  
                      08230  FAR_CALL printf,printch 
0074   3180               M  pagesel printch
0075   2???               M  call printch
0076   3180               M  pagesel printf
                      08231  
0077   002?           08232  banksel thk001 
0078   08??           08233  movfw thk001 
                      08234  PUSH
0079   0018               M  movwi ++INDF0
007A   3064           08235  movlw .100 
                      08236  PUSH
007B   0018               M  movwi ++INDF0
                      08237  
                      08238  HALF_FAR_CALL divu 
007C   3180               M  pagesel divu           
007D   2???               M  call divu
                      08239  
                      08240  HALF_FAR_CALL ascii 
007E   3180               M  pagesel ascii          
007F   2???               M  call ascii
                      08241  
                      08242  FAR_CALL printf,printch 
0080   3180               M  pagesel printch
0081   2???               M  call printch
0082   3180               M  pagesel printf
                      08243  
0083   002?           08244  banksel thk001 
0084   08??           08245  movfw thk001 
                      08246  PUSH
0085   0018               M  movwi ++INDF0
0086   3064           08247  movlw .100 
                      08248  PUSH
0087   0018               M  movwi ++INDF0
                      08249  
                      08250  FAR_CALL printf,modu 
0088   3180               M  pagesel modu
MPASM  5.35                        TARGET.ASM   1-15-2020  22:50:04         PAGE 188


LOC  OBJECT CODE     LINE SOURCE TEXT
  VALUE

0089   2???               M  call modu
008A   3180               M  pagesel printf
008B   300A           08251  movlw .10 
                      08252  PUSH
008C   0018               M  movwi ++INDF0
                      08253  
                      08254  HALF_FAR_CALL divu 
008D   3180               M  pagesel divu           
008E   2???               M  call divu
                      08255  
                      08256  HALF_FAR_CALL ascii 
008F   3180               M  pagesel ascii          
0090   2???               M  call ascii
                      08257  
                      08258  FAR_CALL printf,printch 
0091   3180               M  pagesel printch
0092   2???               M  call printch
0093   3180               M  pagesel printf
                      08259  
0094   002?           08260  banksel thk001 
0095   08??           08261  movfw thk001 
                      08262  PUSH
0096   0018               M  movwi ++INDF0
0097   300A           08263  movlw .10 
                      08264  PUSH
0098   0018               M  movwi ++INDF0
                      08265  
                      08266  HALF_FAR_CALL modu
0099   3180               M  pagesel modu           
009A   2???               M  call modu
                      08267  
                      08268  HALF_FAR_CALL ascii 
009B   3180               M  pagesel ascii          
009C   2???               M  call ascii
                      08269  
                      08270  FAR_CALL printf,printch 
009D   3180               M  pagesel printch
009E   2???               M  call printch
009F   3180               M  pagesel printf
00A0   3020           08271  movlw ' '
                      08272  PUSH
00A1   0018               M  movwi ++INDF0
                      08273  
                      08274  FAR_CALL printf,printch 
00A2   3180               M  pagesel printch
00A3   2???               M  call printch
00A4   3180               M  pagesel printf
                      08275  
00A5   0008           08276  return 
                      08277 
                      08278 
                      08279 
                      08280 #undefine thk003
MPASM  5.35                        TARGET.ASM   1-15-2020  22:50:04         PAGE 189


LOC  OBJECT CODE     LINE SOURCE TEXT
  VALUE

                      08281 
                      08282 
                      08283 #undefine thk002
                      08284 
                      08285 
                      08286 #undefine thk001
                      08287 
                      08288 
                      08289 #undefine thk000
                      08290 sfp_ddbasc CODE 
                      08291  
0000                  08292 ascii:
                      08293  POP
0000   0013               M  moviw INDF0-- ; preserve the safety of this code under interruptible conditions. 
0001   3E30           08294  addlw '0' 
                      08295  PUSH
0002   0018               M  movwi ++INDF0
0003   0008           08296  return
                      08297 
                      08298  
                      08299  
                      08300 
                      08301 
                      08302 
                      08303 
                      08304  
                      08305 
                      08306 
                      08307 
                      08308 sfp_uto CODE 
                      08309 
                      08310 
                      08311 
                      08312 #define arg1 sfploc00
                      08313 
                      08314 
0000                  08315 utof:  
                      08316 #ifdef HLLMULTITASK
                      08317 #ifdef HLLGUARDsfploc 
                      08318  movf in_isr,f  
                      08319  btfsc STATUS,Z
                      08320  
                      08321 
                      08322 
                      08323  goto utof0
                      08324 
                      08325  
                      08326  POP
                      08327  banksel arg1 
                      08328  movwf arg1
                      08329 
                      08330  btfss arg1,7
                      08331  goto mbww0 
MPASM  5.35                        TARGET.ASM   1-15-2020  22:50:04         PAGE 190


LOC  OBJECT CODE     LINE SOURCE TEXT
  VALUE

                      08332  
                      08333  
                      08334  
                      08335 
                      08336  bcf arg1,7 
                      08337  movfw arg1 
                      08338  
                      08339  PUSH
                      08340 
                      08341 
                      08342  movlw .7
                      08343  PUSH
                      08344  
                      08345  goto ret101
                      08346 
                      08347 mbww0: 
                      08348  btfss arg1,6
                      08349  goto mbww1 
                      08350 
                      08351 
                      08352  
                      08353  
                      08354 
                      08355  
                      08356  
                      08357  
                      08358 
                      08359  banksel arg1
                      08360  bcf arg1,6 
                      08361  bcf STATUS,C 
                      08362  rlf arg1,f
                      08363  movfw arg1
                      08364  PUSH
                      08365 
                      08366  movlw .6
                      08367  PUSH
                      08368  
                      08369  goto ret101
                      08370 mbww1: 
                      08371 
                      08372  btfss arg1,5
                      08373  goto mbww2
                      08374 
                      08375  banksel arg1
                      08376  bcf arg1,5 
                      08377  bcf STATUS,C 
                      08378  rlf arg1,f
                      08379  rlf arg1,f
                      08380  movfw arg1
                      08381  PUSH
                      08382 
                      08383  movlw .5
                      08384  PUSH
MPASM  5.35                        TARGET.ASM   1-15-2020  22:50:04         PAGE 191


LOC  OBJECT CODE     LINE SOURCE TEXT
  VALUE

                      08385  
                      08386  goto ret101
                      08387 mbww2: 
                      08388 
                      08389  btfss arg1,4
                      08390  goto mbww3
                      08391 
                      08392 
                      08393  banksel arg1
                      08394  bcf arg1,4 
                      08395  bcf STATUS,C 
                      08396  rlf arg1,f
                      08397  rlf arg1,f
                      08398  rlf arg1,f
                      08399  movfw arg1
                      08400  PUSH
                      08401 
                      08402  movlw .4
                      08403  PUSH
                      08404  
                      08405  goto ret101
                      08406 mbww3: 
                      08407 
                      08408  btfss arg1,3
                      08409  goto mbww4
                      08410 
                      08411  banksel arg1
                      08412  bcf arg1,3 
                      08413  bcf STATUS,C 
                      08414  rlf arg1,f
                      08415  rlf arg1,f
                      08416  rlf arg1,f
                      08417  rlf arg1,f
                      08418  movfw arg1
                      08419  PUSH
                      08420 
                      08421  movlw .3
                      08422  PUSH
                      08423  
                      08424  goto ret101
                      08425 
                      08426 mbww4: 
                      08427 
                      08428  btfss arg1,2
                      08429  goto mbww5
                      08430 
                      08431 
                      08432  banksel arg1
                      08433  bcf arg1,2 
                      08434  bcf STATUS,C 
                      08435  rlf arg1,f
                      08436  rlf arg1,f
                      08437  rlf arg1,f
MPASM  5.35                        TARGET.ASM   1-15-2020  22:50:04         PAGE 192


LOC  OBJECT CODE     LINE SOURCE TEXT
  VALUE

                      08438  rlf arg1,f
                      08439  rlf arg1,f
                      08440  movfw arg1
                      08441  PUSH
                      08442 
                      08443 
                      08444  movlw .2
                      08445  PUSH
                      08446  
                      08447  goto ret101
                      08448 
                      08449 mbww5: 
                      08450 
                      08451  btfss arg1,1
                      08452  goto mbww6
                      08453 
                      08454  banksel arg1
                      08455  bcf arg1,1 
                      08456  bcf STATUS,C 
                      08457  rlf arg1,f
                      08458  rlf arg1,f
                      08459  rlf arg1,f
                      08460  rlf arg1,f
                      08461  rlf arg1,f
                      08462  rlf arg1,f
                      08463  movfw arg1
                      08464  PUSH
                      08465 
                      08466  movlw .1
                      08467  PUSH
                      08468 
                      08469  goto ret101
                      08470 mbww6: 
                      08471  btfss arg1,0
                      08472  goto tis00
                      08473  movlw .0
                      08474  PUSH
                      08475 
                      08476  movlw .0
                      08477  PUSH
                      08478  
                      08479  goto ret101
                      08480 tis00:
                      08481  movlw .0
                      08482  PUSH
                      08483 
                      08484  movlw -.128
                      08485  PUSH
                      08486  
                      08487 ret101:
                      08488  
                      08489  return
                      08490 
MPASM  5.35                        TARGET.ASM   1-15-2020  22:50:04         PAGE 193


LOC  OBJECT CODE     LINE SOURCE TEXT
  VALUE

                      08491 
                      08492 
                      08493 
                      08494 #undefine arg1
                      08495 
                      08496 
                      08497 #define arg1 sfploc00+1
                      08498 
                      08499 
                      08500 utof0:
                      08501 #endif
                      08502 #endif
                      08503 
                      08504  
                      08505  POP
0000   0013               M  moviw INDF0-- ; preserve the safety of this code under interruptible conditions. 
0001   002?           08506  banksel arg1 
0002   00??           08507  movwf arg1
                      08508 
0003   1F80           08509  btfss arg1,7
0004   2???           08510  goto hllJDAAA 
                      08511  
                      08512  
                      08513  
                      08514 
0005   1380           08515  bcf arg1,7 
0006   08??           08516  movfw arg1 
                      08517  
                      08518  PUSH
0007   0018               M  movwi ++INDF0
                      08519 
                      08520 
0008   3007           08521  movlw .7
                      08522  PUSH
0009   0018               M  movwi ++INDF0
                      08523  
000A   2???           08524  goto hllRDAAA
                      08525 
000B                  08526 hllJDAAA: 
000B   1F00           08527  btfss arg1,6
000C   2???           08528  goto hllKDAAA 
                      08529 
                      08530 
                      08531  
                      08532  
                      08533 
                      08534  
                      08535  
                      08536  
                      08537 
000D   002?           08538  banksel arg1
000E   1300           08539  bcf arg1,6 
000F   1003           08540  bcf STATUS,C 
MPASM  5.35                        TARGET.ASM   1-15-2020  22:50:04         PAGE 194


LOC  OBJECT CODE     LINE SOURCE TEXT
  VALUE

0010   0D??           08541  rlf arg1,f
0011   08??           08542  movfw arg1
                      08543  PUSH
0012   0018               M  movwi ++INDF0
                      08544 
0013   3006           08545  movlw .6
                      08546  PUSH
0014   0018               M  movwi ++INDF0
                      08547  
0015   2???           08548  goto hllRDAAA
0016                  08549 hllKDAAA: 
                      08550 
0016   1E80           08551  btfss arg1,5
0017   2???           08552  goto hllLDAAA
                      08553 
0018   002?           08554  banksel arg1
0019   1280           08555  bcf arg1,5 
001A   1003           08556  bcf STATUS,C 
001B   0D??           08557  rlf arg1,f
001C   0D??           08558  rlf arg1,f
001D   08??           08559  movfw arg1
                      08560  PUSH
001E   0018               M  movwi ++INDF0
                      08561 
001F   3005           08562  movlw .5
                      08563  PUSH
0020   0018               M  movwi ++INDF0
                      08564  
0021   2???           08565  goto hllRDAAA
0022                  08566 hllLDAAA: 
                      08567 
0022   1E00           08568  btfss arg1,4
0023   2???           08569  goto hllMDAAA
                      08570 
                      08571 
0024   002?           08572  banksel arg1
0025   1200           08573  bcf arg1,4 
0026   1003           08574  bcf STATUS,C 
0027   0D??           08575  rlf arg1,f
0028   0D??           08576  rlf arg1,f
0029   0D??           08577  rlf arg1,f
002A   08??           08578  movfw arg1
                      08579  PUSH
002B   0018               M  movwi ++INDF0
                      08580 
002C   3004           08581  movlw .4
                      08582  PUSH
002D   0018               M  movwi ++INDF0
                      08583  
002E   2???           08584  goto hllRDAAA
002F                  08585 hllMDAAA: 
                      08586 
002F   1D80           08587  btfss arg1,3
MPASM  5.35                        TARGET.ASM   1-15-2020  22:50:04         PAGE 195


LOC  OBJECT CODE     LINE SOURCE TEXT
  VALUE

0030   2???           08588  goto hllNDAAA
                      08589 
0031   002?           08590  banksel arg1
0032   1180           08591  bcf arg1,3 
0033   1003           08592  bcf STATUS,C 
0034   0D??           08593  rlf arg1,f
0035   0D??           08594  rlf arg1,f
0036   0D??           08595  rlf arg1,f
0037   0D??           08596  rlf arg1,f
0038   08??           08597  movfw arg1
                      08598  PUSH
0039   0018               M  movwi ++INDF0
                      08599 
003A   3003           08600  movlw .3
                      08601  PUSH
003B   0018               M  movwi ++INDF0
                      08602  
003C   2???           08603  goto hllRDAAA
                      08604 
003D                  08605 hllNDAAA: 
                      08606 
003D   1D00           08607  btfss arg1,2
003E   2???           08608  goto hllODAAA
                      08609 
                      08610 
003F   002?           08611  banksel arg1
0040   1100           08612  bcf arg1,2 
0041   1003           08613  bcf STATUS,C 
0042   0D??           08614  rlf arg1,f
0043   0D??           08615  rlf arg1,f
0044   0D??           08616  rlf arg1,f
0045   0D??           08617  rlf arg1,f
0046   0D??           08618  rlf arg1,f
0047   08??           08619  movfw arg1
                      08620  PUSH
0048   0018               M  movwi ++INDF0
                      08621 
                      08622 
0049   3002           08623  movlw .2
                      08624  PUSH
004A   0018               M  movwi ++INDF0
                      08625  
004B   2???           08626  goto hllRDAAA
                      08627 
004C                  08628 hllODAAA: 
                      08629 
004C   1C80           08630  btfss arg1,1
004D   2???           08631  goto hllPDAAA
                      08632 
004E   002?           08633  banksel arg1
004F   1080           08634  bcf arg1,1 
0050   1003           08635  bcf STATUS,C 
0051   0D??           08636  rlf arg1,f
MPASM  5.35                        TARGET.ASM   1-15-2020  22:50:04         PAGE 196


LOC  OBJECT CODE     LINE SOURCE TEXT
  VALUE

0052   0D??           08637  rlf arg1,f
0053   0D??           08638  rlf arg1,f
0054   0D??           08639  rlf arg1,f
0055   0D??           08640  rlf arg1,f
0056   0D??           08641  rlf arg1,f
0057   08??           08642  movfw arg1
                      08643  PUSH
0058   0018               M  movwi ++INDF0
                      08644 
0059   3001           08645  movlw .1
                      08646  PUSH
005A   0018               M  movwi ++INDF0
                      08647 
005B   2???           08648  goto hllRDAAA
005C                  08649 hllPDAAA: 
005C   1C00           08650  btfss arg1,0
005D   2???           08651  goto hllQDAAA
005E   3000           08652  movlw .0
                      08653  PUSH
005F   0018               M  movwi ++INDF0
                      08654 
0060   3000           08655  movlw .0
                      08656  PUSH
0061   0018               M  movwi ++INDF0
                      08657  
0062   2???           08658  goto hllRDAAA
0063                  08659 hllQDAAA:
0063   3000           08660  movlw .0
                      08661  PUSH
0064   0018               M  movwi ++INDF0
                      08662 
0065   3080           08663  movlw -.128
                      08664  PUSH
0066   0018               M  movwi ++INDF0
                      08665  
0067                  08666 hllRDAAA:
                      08667  
0067   0008           08668  return
                      08669 
                      08670 
                      08671 
                      08672 
                      08673 #undefine arg1
                      08674 
C9A4 DFFF             08675  end
MPASM  5.35                        TARGET.ASM   1-15-2020  22:50:04         PAGE 197


SYMBOL TABLE
  LABEL                             VALUE 

ABDEN                             00000000
ABDOVF                            00000007
ACKDT                             00000005
ACKEN                             00000004
ACKSTAT                           00000006
ACKTIM                            00000007
ADCON0                            0000009D
ADCON1                            0000009E
ADCS0                             00000004
ADCS1                             00000005
ADCS2                             00000006
ADDEN                             00000003
ADFM                              00000007
ADFVR0                            00000000
ADFVR1                            00000001
ADGO                              00000001
ADIE                              00000006
ADIF                              00000006
ADNREF                            00000002
ADON                              00000000
ADPREF0                           00000000
ADPREF1                           00000001
ADRES                             0000009B
ADRESH                            0000009C
ADRESL                            0000009B
AHEN                              00000001
ALT_Save                          0000000A
ANSA0                             00000000
ANSA1                             00000001
ANSA2                             00000002
ANSA3                             00000003
ANSA4                             00000004
ANSB1                             00000001
ANSB2                             00000002
ANSB3                             00000003
ANSB4                             00000004
ANSB5                             00000005
ANSB6                             00000006
ANSB7                             00000007
ANSELA                            0000018C
ANSELB                            0000018D
APFCON0                           0000011D
APFCON1                           0000011E
BAUDCON                           0000019F
BCL1IE                            00000003
BCL1IF                            00000003
BCL2IE                            00000001
BCL2IF                            00000001
BF                                00000000
BOEN                              00000004
BORCON                            00000116
BORRDY                            00000000
BRG16                             00000003
MPASM  5.35                        TARGET.ASM   1-15-2020  22:50:04         PAGE 198


SYMBOL TABLE
  LABEL                             VALUE 

BRGH                              00000002
BSR                               00000008
BSR0                              00000000
BSR1                              00000001
BSR2                              00000002
BSR3                              00000003
BSR4                              00000004
BSR_SHAD                          00000FE6
C                                 00000000
C1HYS                             00000001
C1IE                              00000005
C1IF                              00000005
C1INTN                            00000006
C1INTP                            00000007
C1NCH0                            00000000
C1NCH1                            00000001
C1OE                              00000005
C1ON                              00000007
C1OUT                             00000006
C1PCH0                            00000004
C1PCH1                            00000005
C1POL                             00000004
C1SP                              00000002
C1SYNC                            00000000
C1TSEL0                           00000000
C1TSEL1                           00000001
C2HYS                             00000001
C2IE                              00000006
C2IF                              00000006
C2INTN                            00000006
C2INTP                            00000007
C2NCH0                            00000000
C2NCH1                            00000001
C2OE                              00000005
C2ON                              00000007
C2OUT                             00000006
C2PCH0                            00000004
C2PCH1                            00000005
C2POL                             00000004
C2SP                              00000002
C2SYNC                            00000000
C2TSEL0                           00000002
C2TSEL1                           00000003
C3TSEL0                           00000004
C3TSEL1                           00000005
C4TSEL0                           00000006
C4TSEL1                           00000007
CCP1AS                            00000295
CCP1AS0                           00000004
CCP1AS1                           00000005
CCP1AS2                           00000006
CCP1ASE                           00000007
CCP1CON                           00000293
MPASM  5.35                        TARGET.ASM   1-15-2020  22:50:04         PAGE 199


SYMBOL TABLE
  LABEL                             VALUE 

CCP1IE                            00000002
CCP1IF                            00000002
CCP1M0                            00000000
CCP1M1                            00000001
CCP1M2                            00000002
CCP1M3                            00000003
CCP1SEL                           00000000
CCP2AS                            0000029C
CCP2AS0                           00000004
CCP2AS1                           00000005
CCP2AS2                           00000006
CCP2ASE                           00000007
CCP2CON                           0000029A
CCP2IE                            00000000
CCP2IF                            00000000
CCP2M0                            00000000
CCP2M1                            00000001
CCP2M2                            00000002
CCP2M3                            00000003
CCP2SEL                           00000003
CCP3CON                           00000313
CCP3IE                            00000004
CCP3IF                            00000004
CCP3M0                            00000000
CCP3M1                            00000001
CCP3M2                            00000002
CCP3M3                            00000003
CCP4CON                           0000031A
CCP4IE                            00000005
CCP4IF                            00000005
CCP4M0                            00000000
CCP4M1                            00000001
CCP4M2                            00000002
CCP4M3                            00000003
CCPR1H                            00000292
CCPR1L                            00000291
CCPR2H                            00000299
CCPR2L                            00000298
CCPR3H                            00000312
CCPR3L                            00000311
CCPR4H                            00000319
CCPR4L                            00000318
CCPTMRS                           0000029E
CCPTMRS0                          0000029E
CDAFVR0                           00000002
CDAFVR1                           00000003
CFGS                              00000006
CHS0                              00000002
CHS1                              00000003
CHS2                              00000004
CHS3                              00000005
CHS4                              00000006
CKE                               00000006
MPASM  5.35                        TARGET.ASM   1-15-2020  22:50:04         PAGE 200


SYMBOL TABLE
  LABEL                             VALUE 

CKP                               00000004
CLKRCON                           0000039A
CLKRDC0                           00000003
CLKRDC1                           00000004
CLKRDIV0                          00000000
CLKRDIV1                          00000001
CLKRDIV2                          00000002
CLKREN                            00000007
CLKROE                            00000006
CLKRSLR                           00000005
CM1CON0                           00000111
CM1CON1                           00000112
CM2CON0                           00000113
CM2CON1                           00000114
CMOUT                             00000115
COPY                              
CPSCH0                            00000000
CPSCH1                            00000001
CPSCH2                            00000002
CPSCH3                            00000003
CPSCON0                           0000001E
CPSCON1                           0000001F
CPSON                             00000007
CPSOUT                            00000001
CPSRNG0                           00000002
CPSRNG1                           00000003
CREN                              00000004
CSRC                              00000007
C_SHAD                            00000000
DACCON0                           00000118
DACCON1                           00000119
DACEN                             00000007
DACLPS                            00000006
DACNSS                            00000000
DACOE                             00000005
DACPSS0                           00000002
DACPSS1                           00000003
DACR0                             00000000
DACR1                             00000001
DACR2                             00000002
DACR3                             00000003
DACR4                             00000004
DC                                00000001
DC1B0                             00000004
DC1B1                             00000005
DC2B0                             00000004
DC2B1                             00000005
DC3B0                             00000004
DC3B1                             00000005
DC4B0                             00000004
DC4B1                             00000005
DC_SHAD                           00000001
DHEN                              00000000
MPASM  5.35                        TARGET.ASM   1-15-2020  22:50:04         PAGE 201


SYMBOL TABLE
  LABEL                             VALUE 

DISCARD                           
D_NOT_A                           00000005
ECCP1AS                           00000295
ECCP2AS                           0000029C
EEADR                             00000191
EEADRH                            00000192
EEADRL                            00000191
EECON1                            00000195
EECON2                            00000196
EEDAT                             00000193
EEDATH                            00000194
EEDATL                            00000193
EEIE                              00000004
EEIF                              00000004
EEPGD                             00000007
ExitISR                           000000D6
F                                 00000001
FAR_CALL                          
FERR                              00000002
FREE                              00000004
FSR0                              00000004
FSR0H                             00000005
FSR0H_SHAD                        00000FE9
FSR0L                             00000004
FSR0L_SHAD                        00000FE8
FSR1                              00000006
FSR1H                             00000007
FSR1H_SHAD                        00000FEB
FSR1L                             00000006
FSR1L_SHAD                        00000FEA
FSR_Save                          00000009
FVRCON                            00000117
FVREN                             00000007
FVRRDY                            00000006
GCEN                              00000007
GIE                               00000007
GO_NOT_DONE                       00000001
HALF_FAR_CALL                     
HFIOFL                            00000003
HFIOFR                            00000004
HFIOFS                            00000000
HLFSR                             FSR0L
HLINDF                            INDF0
HLLGUARDhllblss                   
HLLMULTITASK                      
HLOE_STACK2_SIZE                  .80
HLOE_STACK_SIZE                   .80
HLTABLE                           
INDF0                             00000000
INDF1                             00000001
INTCON                            0000000B
INTE                              00000004
INTEDG                            00000006
MPASM  5.35                        TARGET.ASM   1-15-2020  22:50:04         PAGE 202


SYMBOL TABLE
  LABEL                             VALUE 

INTF                              00000001
IOCBF                             00000396
IOCBF0                            00000000
IOCBF1                            00000001
IOCBF2                            00000002
IOCBF3                            00000003
IOCBF4                            00000004
IOCBF5                            00000005
IOCBF6                            00000006
IOCBF7                            00000007
IOCBN                             00000395
IOCBN0                            00000000
IOCBN1                            00000001
IOCBN2                            00000002
IOCBN3                            00000003
IOCBN4                            00000004
IOCBN5                            00000005
IOCBN6                            00000006
IOCBN7                            00000007
IOCBP                             00000394
IOCBP0                            00000000
IOCBP1                            00000001
IOCBP2                            00000002
IOCBP3                            00000003
IOCBP4                            00000004
IOCBP5                            00000005
IOCBP6                            00000006
IOCBP7                            00000007
IOCIE                             00000003
IOCIF                             00000000
IRCF0                             00000003
IRCF1                             00000004
IRCF2                             00000005
IRCF3                             00000006
ISR                               00000004
KDISCARD                          
KPOP                              
KPUSH                             
LATA                              0000010C
LATA0                             00000000
LATA1                             00000001
LATA2                             00000002
LATA3                             00000003
LATA4                             00000004
LATA6                             00000006
LATA7                             00000007
LATB                              0000010D
LATB0                             00000000
LATB1                             00000001
LATB2                             00000002
LATB3                             00000003
LATB4                             00000004
LATB5                             00000005
MPASM  5.35                        TARGET.ASM   1-15-2020  22:50:04         PAGE 203


SYMBOL TABLE
  LABEL                             VALUE 

LATB6                             00000006
LATB7                             00000007
LFIOFR                            00000001
LSHIFT                            
LWLO                              00000005
MC1OUT                            00000000
MC2OUT                            00000001
MDBIT                             00000000
MDCARH                            0000039F
MDCARL                            0000039E
MDCH0                             00000000
MDCH1                             00000001
MDCH2                             00000002
MDCH3                             00000003
MDCHODIS                          00000007
MDCHPOL                           00000006
MDCHSYNC                          00000005
MDCL0                             00000000
MDCL1                             00000001
MDCL2                             00000002
MDCL3                             00000003
MDCLODIS                          00000007
MDCLPOL                           00000006
MDCLSYNC                          00000005
MDCON                             0000039C
MDEN                              00000007
MDMS0                             00000000
MDMS1                             00000001
MDMS2                             00000002
MDMS3                             00000003
MDMSODIS                          00000007
MDOE                              00000006
MDOPOL                            00000004
MDOUT                             00000003
MDSLR                             00000005
MDSRC                             0000039D
MFIOFR                            00000002
NOT_BOR                           00000000
NOT_PD                            00000003
NOT_POR                           00000001
NOT_RI                            00000002
NOT_RMCLR                         00000003
NOT_T1SYNC                        00000002
NOT_TO                            00000004
NOT_WPUEN                         00000007
OERR                              00000001
OPTION_REG                        00000095
OSCCON                            00000099
OSCCONH                           0000009A
OSCCONL                           00000099
OSCSTAT                           0000009A
OSCTUNE                           00000098
OSFIE                             00000007
MPASM  5.35                        TARGET.ASM   1-15-2020  22:50:04         PAGE 204


SYMBOL TABLE
  LABEL                             VALUE 

OSFIF                             00000007
OSTS                              00000005
P                                 00000004
P1CSEL                            00000001
P1DC0                             00000000
P1DC1                             00000001
P1DC2                             00000002
P1DC3                             00000003
P1DC4                             00000004
P1DC5                             00000005
P1DC6                             00000006
P1DSEL                            00000002
P1M0                              00000006
P1M1                              00000007
P1RSEN                            00000007
P2BSEL                            00000004
P2DC0                             00000000
P2DC1                             00000001
P2DC2                             00000002
P2DC3                             00000003
P2DC4                             00000004
P2DC5                             00000005
P2DC6                             00000006
P2M0                              00000006
P2M1                              00000007
P2RSEN                            00000007
PCIE                              00000006
PCL                               00000002
PCLATH                            0000000A
PCLATH_SHAD                       00000FE7
PCON                              00000096
PEIE                              00000006
PEN                               00000002
PIE1                              00000091
PIE2                              00000092
PIE3                              00000093
PIE4                              00000094
PIR1                              00000011
PIR2                              00000012
PIR3                              00000013
PIR4                              00000014
PLLR                              00000006
POP                               
PORTA                             0000000C
PORTB                             0000000D
PR2                               0000001B
PR4                               00000416
PR6                               0000041D
PREEMPT                           
PS0                               00000000
PS1                               00000001
PS2                               00000002
PSA                               00000003
MPASM  5.35                        TARGET.ASM   1-15-2020  22:50:04         PAGE 205


SYMBOL TABLE
  LABEL                             VALUE 

PSS1AC0                           00000002
PSS1AC1                           00000003
PSS1BD0                           00000000
PSS1BD1                           00000001
PSS2AC0                           00000002
PSS2AC1                           00000003
PSS2BD0                           00000000
PSS2BD1                           00000001
PSTR1CON                          00000296
PSTR2CON                          0000029D
PUSH                              
PWM1CON                           00000294
PWM2CON                           0000029B
RA0                               00000000
RA1                               00000001
RA2                               00000002
RA3                               00000003
RA4                               00000004
RA5                               00000005
RA6                               00000006
RA7                               00000007
RB0                               00000000
RB1                               00000001
RB2                               00000002
RB3                               00000003
RB4                               00000004
RB5                               00000005
RB6                               00000006
RB7                               00000007
RCEN                              00000003
RCIDL                             00000006
RCIE                              00000005
RCIF                              00000005
RCREG                             00000199
RCSTA                             0000019D
RD                                00000000
READEEPROM                        
RESUME                            
RSEN                              00000001
RSHIFT                            
RX9                               00000006
RX9D                              00000000
RXDTSEL                           00000007
R_NOT_W                           00000002
S                                 00000003
SBCDE                             00000002
SBOREN                            00000007
SCIE                              00000005
SCKP                              00000004
SCS0                              00000000
SCS1                              00000001
SDAHT                             00000003
SDO1SEL                           00000006
MPASM  5.35                        TARGET.ASM   1-15-2020  22:50:04         PAGE 206


SYMBOL TABLE
  LABEL                             VALUE 

SEN                               00000000
SENDB                             00000003
SMP                               00000007
SPBRG                             0000019B
SPBRGH                            0000019C
SPBRGL                            0000019B
SPEN                              00000007
SPLLEN                            00000007
SRCLK0                            00000004
SRCLK1                            00000005
SRCLK2                            00000006
SRCON0                            0000011A
SRCON1                            0000011B
SREN                              00000005
SRLEN                             00000007
SRNQEN                            00000002
SRPR                              00000000
SRPS                              00000001
SRQEN                             00000003
SRRC1E                            00000000
SRRC2E                            00000001
SRRCKE                            00000002
SRRPE                             00000003
SRSC1E                            00000004
SRSC2E                            00000005
SRSCKE                            00000006
SRSPE                             00000007
SS1SEL                            00000005
SSP1ADD                           00000212
SSP1BUF                           00000211
SSP1CON1                          00000215
SSP1CON2                          00000216
SSP1CON3                          00000217
SSP1IE                            00000003
SSP1IF                            00000003
SSP1MSK                           00000213
SSP1STAT                          00000214
SSP2ADD                           0000021A
SSP2BUF                           00000219
SSP2CON1                          0000021D
SSP2CON2                          0000021E
SSP2CON3                          0000021F
SSP2IE                            00000000
SSP2IF                            00000000
SSP2MSK                           0000021B
SSP2STAT                          0000021C
SSPADD                            00000212
SSPBUF                            00000211
SSPCON                            00000215
SSPCON1                           00000215
SSPCON2                           00000216
SSPCON3                           00000217
SSPEN                             00000005
MPASM  5.35                        TARGET.ASM   1-15-2020  22:50:04         PAGE 207


SYMBOL TABLE
  LABEL                             VALUE 

SSPM0                             00000000
SSPM1                             00000001
SSPM2                             00000002
SSPM3                             00000003
SSPMSK                            00000213
SSPOV                             00000006
SSPSTAT                           00000214
STATUS                            00000003
STATUS_SHAD                       00000FE4
STATUS_Save                       00000008
STKOVF                            00000007
STKPTR                            00000FED
STKUNF                            00000006
STR1A                             00000000
STR1B                             00000001
STR1C                             00000002
STR1D                             00000003
STR1SYNC                          00000004
STR2A                             00000000
STR2B                             00000001
STR2C                             00000002
STR2D                             00000003
STR2SYNC                          00000004
SWDTEN                            00000000
SYNC                              00000004
T0CS                              00000005
T0IE                              00000005
T0IF                              00000002
T0SE                              00000004
T0XCS                             00000000
T1CKPS0                           00000004
T1CKPS1                           00000005
T1CON                             00000018
T1GCON                            00000019
T1GGO                             00000003
T1GPOL                            00000006
T1GSPM                            00000004
T1GSS0                            00000000
T1GSS1                            00000001
T1GTM                             00000005
T1GVAL                            00000002
T1OSCEN                           00000003
T1OSCR                            00000007
T2CKPS0                           00000000
T2CKPS1                           00000001
T2CON                             0000001C
T2OUTPS0                          00000003
T2OUTPS1                          00000004
T2OUTPS2                          00000005
T2OUTPS3                          00000006
T4CKPS0                           00000000
T4CKPS1                           00000001
T4CON                             00000417
MPASM  5.35                        TARGET.ASM   1-15-2020  22:50:04         PAGE 208


SYMBOL TABLE
  LABEL                             VALUE 

T4OUTPS0                          00000003
T4OUTPS1                          00000004
T4OUTPS2                          00000005
T4OUTPS3                          00000006
T6CKPS0                           00000000
T6CKPS1                           00000001
T6CON                             0000041E
T6OUTPS0                          00000003
T6OUTPS1                          00000004
T6OUTPS2                          00000005
T6OUTPS3                          00000006
TMR0                              00000015
TMR0CS                            00000005
TMR0IE                            00000005
TMR0IF                            00000002
TMR0SE                            00000004
TMR1                              00000016
TMR1CS0                           00000006
TMR1CS1                           00000007
TMR1GE                            00000007
TMR1GIE                           00000007
TMR1GIF                           00000007
TMR1H                             00000017
TMR1IE                            00000000
TMR1IF                            00000000
TMR1L                             00000016
TMR1ON                            00000000
TMR2                              0000001A
TMR2IE                            00000001
TMR2IF                            00000001
TMR2ON                            00000002
TMR4                              00000415
TMR4IE                            00000001
TMR4IF                            00000001
TMR4ON                            00000002
TMR6                              0000041C
TMR6IE                            00000003
TMR6IF                            00000003
TMR6ON                            00000002
TOSH                              00000FEF
TOSL                              00000FEE
TRISA                             0000008C
TRISA0                            00000000
TRISA1                            00000001
TRISA2                            00000002
TRISA3                            00000003
TRISA4                            00000004
TRISA5                            00000005
TRISA6                            00000006
TRISA7                            00000007
TRISB                             0000008D
TRISB0                            00000000
TRISB1                            00000001
MPASM  5.35                        TARGET.ASM   1-15-2020  22:50:04         PAGE 209


SYMBOL TABLE
  LABEL                             VALUE 

TRISB2                            00000002
TRISB3                            00000003
TRISB4                            00000004
TRISB5                            00000005
TRISB6                            00000006
TRISB7                            00000007
TRMT                              00000001
TUN0                              00000000
TUN1                              00000001
TUN2                              00000002
TUN3                              00000003
TUN4                              00000004
TUN5                              00000005
TX9                               00000006
TX9D                              00000000
TXCKSEL                           00000000
TXEN                              00000005
TXIE                              00000004
TXIF                              00000004
TXREG                             0000019A
TXSTA                             0000019E
UA                                00000001
W                                 00000000
WCOL                              00000007
WDTCON                            00000097
WDTPS0                            00000001
WDTPS1                            00000002
WDTPS2                            00000003
WDTPS3                            00000004
WDTPS4                            00000005
WPUA                              0000020C
WPUA5                             00000005
WPUB                              0000020D
WPUB0                             00000000
WPUB1                             00000001
WPUB2                             00000002
WPUB3                             00000003
WPUB4                             00000004
WPUB5                             00000005
WPUB6                             00000006
WPUB7                             00000007
WR                                00000001
WREG                              00000009
WREG_SHAD                         00000FE5
WREN                              00000002
WRERR                             00000003
WRITEEEPROM                       
WUE                               00000001
W_Save                            00000007
Z                                 00000002
Z_SHAD                            00000002
_BOREN_NSLEEP                     0000FDFF
_BOREN_OFF                        0000F9FF
MPASM  5.35                        TARGET.ASM   1-15-2020  22:50:04         PAGE 210


SYMBOL TABLE
  LABEL                             VALUE 

_BOREN_ON                         0000FFFF
_BOREN_SBODEN                     0000FBFF
_BORV_19                          0000FFFF
_BORV_25                          0000FBFF
_CLKOUTEN_OFF                     0000FFFF
_CLKOUTEN_ON                      0000F7FF
_CONFIG1                          00008007
_CONFIG2                          00008008
_CPD_OFF                          0000FFFF
_CPD_ON                           0000FEFF
_CP_OFF                           0000FFFF
_CP_ON                            0000FF7F
_DEVID1                           00008006
_FCMEN_OFF                        0000DFFF
_FCMEN_ON                         0000FFFF
_FOSC_ECH                         0000FFFF
_FOSC_ECL                         0000FFFD
_FOSC_ECM                         0000FFFE
_FOSC_EXTRC                       0000FFFB
_FOSC_HS                          0000FFFA
_FOSC_INTOSC                      0000FFFC
_FOSC_LP                          0000FFF8
_FOSC_XT                          0000FFF9
_IDLOC0                           00008000
_IDLOC1                           00008001
_IDLOC2                           00008002
_IDLOC3                           00008003
_IESO_OFF                         0000EFFF
_IESO_ON                          0000FFFF
_LVP_OFF                          0000DFFF
_LVP_ON                           0000FFFF
_MCLRE_OFF                        0000FFBF
_MCLRE_ON                         0000FFFF
_PLLEN_OFF                        0000FEFF
_PLLEN_ON                         0000FFFF
_PWRTE_OFF                        0000FFFF
_PWRTE_ON                         0000FFDF
_STVREN_OFF                       0000FDFF
_STVREN_ON                        0000FFFF
_WDTE_NSLEEP                      0000FFF7
_WDTE_OFF                         0000FFE7
_WDTE_ON                          0000FFFF
_WDTE_SWDTEN                      0000FFEF
_WRT_ALL                          0000FFFC
_WRT_BOOT                         0000FFFE
_WRT_HALF                         0000FFFD
_WRT_OFF                          0000FFFF
__16F1827                         00000001
_hllkrna00_000A                   0000000A
_hllkrna00_0014                   00000014
_hllkrna03_0003                   00000003
_hllkrna03_0008                   00000008
_hllkrna04_000C                   0000000C
MPASM  5.35                        TARGET.ASM   1-15-2020  22:50:04         PAGE 211


SYMBOL TABLE
  LABEL                             VALUE 

_hllkrna04_000E                   0000000E
_hllkrna04_001B                   0000001B
_hllkrna04_001D                   0000001D
_hllkrna05_000C                   0000000C
_hllkrna05_000E                   0000000E
_hllkrna05_001B                   0000001B
_hllkrna05_001D                   0000001D
add                               00000000
addf                              00000000
alt_fsr                           00000006
alt_stack                         00000000
andb                              00000000
andu                              00000000
ascii                             00000000
clearbit                          00000000
clearbit0                         0000003A
dispose                           00000000
divf                              00000000
divu                              00000000
divu0                             00000012
dmm445                            00000010
dofunc                            00000000
eq                                00000000
filtervalid                       hllfiltervalidl
fix                               hllfixl
getch                             00000000
geth2                             00000005
geth3                             0000000A
geth4                             00000009
geu                               00000000
geu0                              00000012
hllAAAAA                          00000044
hllABAAA                          0000004D
hllACAAA                          000000E9
hllADAAA                          00000054
hllBAAAA                          0000004A
hllBBAAA                          00000058
hllBCAAA                          000000F1
hllBDAAA                          0000005A
hllCAAAA                          00000051
hllCBAAA                          00000059
hllCCAAA                          000000FB
hllCDAAA                          0000005C
hllDAAAA                          00000058
hllDBAAA                          0000005F
hllDCAAA                          00000024
hllDDAAA                          00000060
hllEAAAA                          0000005F
hllEBAAA                          00000061
hllECAAA                          00000030
hllEDAAA                          00000061
hllFAAAA                          00000066
hllFBAAA                          00000068
MPASM  5.35                        TARGET.ASM   1-15-2020  22:50:04         PAGE 212


SYMBOL TABLE
  LABEL                             VALUE 

hllFCAAA                          0000003A
hllFDAAA                          0000006A
hllGAAAA                          0000006D
hllGBAAA                          0000006B
hllGCAAA                          00000055
hllGDAAA                          00000070
hllHAAAA                          0000006F
hllHBAAA                          00000077
hllHCAAA                          00000057
hllHDAAA                          00000012
hllHDAAA2                         00000073
hllIAAAA                          0000001B
hllIBAAA                          0000007A
hllIBAAAb                         000000A8
hllICAAA                          00000059
hllJAAAA                          0000001E
hllJBAAA                          00000083
hllJCAAA                          00000066
hllJDAAA                          0000000B
hllKAAAA                          00000044
hllKBAAA                          0000008C
hllKCAAA                          00000070
hllKDAAA                          00000016
hllLAAAA                          0000004A
hllLBAAA                          0000008D
hllLCAAA                          00000071
hllLDAAA                          00000022
hllMAAAA                          00000051
hllMBAAA                          0000008F
hllMCAAA                          00000073
hllMDAAA                          0000002F
hllNAAAA                          00000058
hllNBAAA                          00000096
hllNCAAA                          00000074
hllNDAAA                          0000003D
hllOAAAA                          0000005F
hllOBAAA                          00000099
hllOCAAA                          00000075
hllODAAA                          0000004C
hllPAAAA                          00000066
hllPBAAA                          000000A5
hllPCAAA                          0000007E
hllPDAAA                          0000005C
hllQAAAA                          0000006D
hllQCAAA                          00000084
hllQDAAA                          00000063
hllRAAAA                          0000006F
hllRBAAA                          000000B1
hllRCAAA                          00000086
hllRDAAA                          00000067
hllSAAAA                          00000018
hllSBAAA                          000000BA
hllSCAAA                          00000089
MPASM  5.35                        TARGET.ASM   1-15-2020  22:50:04         PAGE 213


SYMBOL TABLE
  LABEL                             VALUE 

hllTAAAA                          0000001C
hllTBAAA                          000000BB
hllTCAAA                          0000000A
hllUAAAA                          0000001D
hllUBAAA                          000000C0
hllUCAAA                          0000001B
hllVAAAA                          0000001F
hllVBAAA                          000000C7
hllVCAAA                          0000002D
hllWAAAA                          0000002D
hllWAAAA_done                     0000002E
hllWBAAA                          000000CF
hllWCAAA                          00000039
hllXBAAA                          000000D4
hllXCAAA                          00000047
hllYAAAA                          00000042
hllYBAAA                          000000DF
hllYCAAA                          0000004F
hllZAAAA                          0000004B
hllZBAAA                          000000E7
hllZCAAA                          00000051
hllblss00                         00000000
hllblss00isr                      00000001
hllblss01                         00000002
hllblss01isr                      00000003
hllblss02                         00000004
hllblss02isr                      00000005
hllfiltervalidl                   00000000
hllfixl                           00000000
hllisglll                         00000000
hlllatdegbl                       00000000
hlllatdegl                        00000000
hlllatminbl                       00000000
hlllatminl                        00000000
hlllatsubminbl                    00000000
hlllatsubminl                     00000000
hlllb51J0                         000000B3
hlllb51J1                         000000B3
hlllb51J10                        000000AB
hlllb51J11                        000000C6
hlllb51J12                        00000093
hlllb51J13                        000000C6
hlllb51J15                        00000111
hlllb51J16                        00000118
hlllb51J17                        00000274
hlllb51J18                        00000284
hlllb51J19                        0000037C
hlllb51J20                        0000039A
hlllb51J21                        0000039B
hlllb51J22                        0000039B
hlllb51J4                         00000092
hlllb51J5                         00000092
hlllb51J6                         0000006C
MPASM  5.35                        TARGET.ASM   1-15-2020  22:50:04         PAGE 214


SYMBOL TABLE
  LABEL                             VALUE 

hlllb51J7                         00000092
hlllb51J8                         00000052
hlllb51J9                         00000092
hlllondegbl                       00000000
hlllondegl                        00000000
hlllonminbl                       00000000
hlllonminl                        00000000
hlllonsubminbl                    00000000
hlllonsubminl                     00000000
hllnotisr49                       000000C1
hllnotisr98                       000000D6
hllparmcore                       
hllprgen2                         0000039D
hllprogend                        00000197
hllscalerl                        00000000
hlltempbl                         00000000
hlltempl                          00000000
hlluserprog                       00000000
hloego                            00000000
in_isr                            0000000B
isgll                             hllisglll
kpop                              00000000
kpush                             00000000
kspox5                            00000007
latdeg                            hlllatdegl
latdegb                           hlllatdegbl
latmin                            hlllatminl
latminb                           hlllatminbl
latsubmin                         hlllatsubminl
latsubminb                        hlllatsubminbl
londeg                            hlllondegl
londegb                           hlllondegbl
lonmin                            hlllonminl
lonminb                           hlllonminbl
lonsubmin                         hlllonsubminl
lonsubminb                        hlllonsubminbl
mainloop                          00000000
modu                              00000000
modu0                             00000012
mul                               00000000
mul0                              0000000D
mulf                              00000000
mxhbl                             0000000C
mxhbm                             0000000F
negti                             00000000
oru                               00000000
parm                              00000000
parm4                             00000014
pbase                             00000000
pbaseisr                          00000001
printch                           00000000
printf                            00000000
purge                             00000000
MPASM  5.35                        TARGET.ASM   1-15-2020  22:50:04         PAGE 215


SYMBOL TABLE
  LABEL                             VALUE 

receive                           00000000
safepush                          00000000
scaler                            hllscalerl
setbit                            00000000
setbit0                           0000003A
sfpaux00                          00000001
sfpaux01                          00000003
sfpaux02                          00000005
sfpaux03                          00000007
sfploc00                          00000000
sfploc01                          00000002
sfploc02                          00000004
sfploc03                          00000006
sfploc04                          00000008
sfploc05                          00000009
sfploc06                          0000000A
sfploc07                          0000000B
sfploc08                          0000000C
sfploc09                          0000000D
sfploc10                          0000000E
sfploc11                          0000000F
sfploc12                          00000010
sfploc13                          00000011
sfploc14                          00000012
sfploc15                          00000013
sfploc16                          00000014
sfploc17                          00000015
softstack0                        00000000
softstack0isr                     00000001
softstack1                        00000002
softstack1isr                     00000003
softstack2                        00000004
softstack2isr                     00000005
sperr11                           0000000E
stack                             00000000
tcf00h                            0000000D
tcf01h                            00000013
tcf02h                            0000001A
tcf03h                            00000021
tcf04h                            00000028
tcf05h                            0000002F
tcf07h                            00000036
tcf99h                            00000038
temp                              hlltempl
tempb                             hlltempbl
tff00h                            0000000D
tff01h                            00000013
tff02h                            0000001A
tff03h                            00000021
tff04h                            00000028
tff05h                            0000002F
tff07h                            00000036
tff99h                            00000038
MPASM  5.35                        TARGET.ASM   1-15-2020  22:50:04         PAGE 216


SYMBOL TABLE
  LABEL                             VALUE 

utof                              00000000

Errors   :     0
Warnings :     0 reported,     2 suppressed
Messages :     0 reported,    46 suppressed

